 Scylla

 Timestamp is 55460d8e (Sun May 03 13:59:10 2015)

 Preferred load address is 00400000

 Start         Length     Name                   Class
 0001:00000000 00049644H .text                   CODE
 0001:00049650 00001985H .text$x                 CODE
 0001:0004afe0 00000230H .text$yc                CODE
 0001:0004b210 00000187H .text$yd                CODE
 0002:00000000 000003f4H .idata$5                DATA
 0002:000003f4 00000004H .CRT$XCA                DATA
 0002:000003f8 0000000cH .CRT$XCL                DATA
 0002:00000404 00000024H .CRT$XCU                DATA
 0002:00000428 00000004H .CRT$XCZ                DATA
 0002:0000042c 00000004H .CRT$XIA                DATA
 0002:00000430 00000010H .CRT$XIC                DATA
 0002:00000440 00000004H .CRT$XIY                DATA
 0002:00000444 00000004H .CRT$XIZ                DATA
 0002:00000448 00000004H .CRT$XPA                DATA
 0002:0000044c 00000004H .CRT$XPX                DATA
 0002:00000450 00000004H .CRT$XPXA               DATA
 0002:00000454 00000004H .CRT$XPZ                DATA
 0002:00000458 00000004H .CRT$XTA                DATA
 0002:0000045c 00000004H .CRT$XTZ                DATA
 0002:00000460 000091e8H .rdata                  DATA
 0002:00009648 00001880H .rdata$r                DATA
 0002:0000aed0 00000204H .rdata$sxdata           DATA
 0002:0000b0d4 00000004H .rtc$IAA                DATA
 0002:0000b0d8 00000004H .rtc$IZZ                DATA
 0002:0000b0dc 00000004H .rtc$TAA                DATA
 0002:0000b0e0 00000004H .rtc$TZZ                DATA
 0002:0000b0e8 00002808H .xdata$x                DATA
 0002:0000d8f0 00000004H ATL$__a                 DATA
 0002:0000d8f4 00000004H ATL$__z                 DATA
 0002:0000d8f8 000000f0H .idata$2                DATA
 0002:0000d9e8 00000014H .idata$3                DATA
 0002:0000d9fc 000003f4H .idata$4                DATA
 0002:0000ddf0 00001144H .idata$6                DATA
 0002:0000ef34 00000000H .edata                  DATA
 0003:00000000 000091d4H .data                   DATA
 0003:000091e0 0000e95cH .bss                    DATA
 0004:00000000 00000628H .rsrc$01                DATA
 0004:00000630 000090b8H .rsrc$02                DATA

  Address         Publics by Value              Rva+Base       Lib:Object

 0000:00000000       __except_list              00000000     <absolute>
 0000:00000081       ___safe_se_handler_count   00000081     <absolute>
 0000:00000000       ___ImageBase               00400000     <linker-defined>
 0001:00000000       ?Create@CWindow@ATL@@QAEPAUHWND__@@PB_WPAU3@V_U_RECT@2@0KKV_U_MENUorID@2@PAX@Z 00401000 f i AboutGui.obj
 0001:00000060       ?CenterWindow@CWindow@ATL@@QAEHPAUHWND__@@@Z 00401060 f i AboutGui.obj
 0001:00000220       ?DoDataExchange@AboutGui@@QAEHHI@Z 00401220 f i AboutGui.obj
 0001:00000370       ?OnInitDialog@AboutGui@@IAEHVCWindow@ATL@@J@Z 00401370 f   AboutGui.obj
 0001:00000440       ?OnClose@AboutGui@@IAEXXZ  00401440 f   AboutGui.obj
 0001:000004a0       ?OnLink@AboutGui@@IAEJPAUtagNMHDR@@@Z 004014a0 f   AboutGui.obj
 0001:000004c0       ?setupLinks@AboutGui@@IAEXXZ 004014c0 f   AboutGui.obj
 0001:00000720       ?setLinkURL@AboutGui@@IAEXAAV?$CLinkCtrlT@VCWindow@ATL@@@WTL@@PB_WH@Z 00401720 f   AboutGui.obj
 0001:00000790       ?setupTooltip@AboutGui@@IAEXV?$CToolTipCtrlT@VCWindow@ATL@@@WTL@@VCWindow@ATL@@PB_W@Z 00401790 f   AboutGui.obj
 0001:00000810       ??1bad_alloc@std@@UAE@XZ   00401810 f i ApiReader.obj
 0001:00000820       ??_Ebad_alloc@std@@UAEPAXI@Z 00401820 f i  CIL library: CIL module
 0001:00000820       ??_Gbad_alloc@std@@UAEPAXI@Z 00401820 f i ApiReader.obj
 0001:00000850       ??3@YAXPAX0@Z              00401850 f i ApiReader.obj
 0001:00000850       ??1?$CMenuT@$0A@@WTL@@QAE@XZ 00401850 f i DisassemblerGui.obj
 0001:00000860       ??0logic_error@std@@QAE@ABV?$basic_string@DU?$char_traits@D@std@@V?$allocator@D@2@@1@@Z 00401860 f i ApiReader.obj
 0001:000008d0       ?what@logic_error@std@@UBEPBDXZ 004018d0 f i ApiReader.obj
 0001:000008e0       ??_Elength_error@std@@UAEPAXI@Z 004018e0 f i  CIL library: CIL module
 0001:000008e0       ??_Gout_of_range@std@@UAEPAXI@Z 004018e0 f i ApiReader.obj
 0001:000008e0       ??_Elogic_error@std@@UAEPAXI@Z 004018e0 f i  CIL library: CIL module
 0001:000008e0       ??_Glogic_error@std@@UAEPAXI@Z 004018e0 f i ApiReader.obj
 0001:000008e0       ??_Glength_error@std@@UAEPAXI@Z 004018e0 f i ApiReader.obj
 0001:000008e0       ??_Eout_of_range@std@@UAEPAXI@Z 004018e0 f i  CIL library: CIL module
 0001:00000930       ??0length_error@std@@QAE@ABV?$basic_string@DU?$char_traits@D@std@@V?$allocator@D@2@@1@@Z 00401930 f i ApiReader.obj
 0001:00000950       ??1length_error@std@@UAE@XZ 00401950 f i ApiReader.obj
 0001:00000950       ??1out_of_range@std@@UAE@XZ 00401950 f i ApiReader.obj
 0001:00000990       ??0out_of_range@std@@QAE@ABV?$basic_string@DU?$char_traits@D@std@@V?$allocator@D@2@@1@@Z 00401990 f i ApiReader.obj
 0001:000009b0       ?readApisFromModuleList@ApiReader@@QAEXXZ 004019b0 f   ApiReader.obj
 0001:00000c10       ?parseModule@ApiReader@@AAEXPAVModuleInfo@@@Z 00401c10 f   ApiReader.obj
 0001:00000cb0       ?parseModuleWithMapping@ApiReader@@AAEXPAVModuleInfo@@@Z 00401cb0 f   ApiReader.obj
 0001:00000d30       ?handleForwardedApi@ApiReader@@AAEXKPADKGPAVModuleInfo@@@Z 00401d30 f   ApiReader.obj
 0001:00000f50       ?findModuleByName@ApiReader@@AAEPAVModuleInfo@@PA_W@Z 00401f50 f   ApiReader.obj
 0001:00001010       ?addApi@ApiReader@@AAEXPADGGKK_NPAVModuleInfo@@@Z 00402010 f   ApiReader.obj
 0001:00001150       ?getExportTableFromProcess@ApiReader@@AAEPAEPAVModuleInfo@@PAU_IMAGE_NT_HEADERS@@@Z 00402150 f   ApiReader.obj
 0001:000011c0       ?parseModuleWithProcess@ApiReader@@AAEXPAVModuleInfo@@@Z 004021c0 f   ApiReader.obj
 0001:000012c0       ?parseExportTable@ApiReader@@AAEXPAVModuleInfo@@PAU_IMAGE_NT_HEADERS@@PAU_IMAGE_EXPORT_DIRECTORY@@K@Z 004022c0 f   ApiReader.obj
 0001:00001490       ?findApiByModuleAndName@ApiReader@@AAEXPAVModuleInfo@@PADPAK2@Z 00402490 f   ApiReader.obj
 0001:00001500       ?findApiByModule@ApiReader@@AAEXPAVModuleInfo@@PADGPAK2@Z 00402500 f   ApiReader.obj
 0001:00001580       ?isModuleLoadedInOwnProcess@ApiReader@@AAE_NPAVModuleInfo@@@Z 00402580 f   ApiReader.obj
 0001:00001600       ?parseModuleWithOwnProcess@ApiReader@@AAEXPAVModuleInfo@@@Z 00402600 f   ApiReader.obj
 0001:00001680       ?findApiInProcess@ApiReader@@AAEXPAVModuleInfo@@PADGPAK2@Z 00402680 f   ApiReader.obj
 0001:00001780       ?findApiInExportTable@ApiReader@@AAE_NPAVModuleInfo@@PAU_IMAGE_EXPORT_DIRECTORY@@KPADGPAK3@Z 00402780 f   ApiReader.obj
 0001:00001880       ?setModulePriority@ApiReader@@AAEXPAVModuleInfo@@@Z 00402880 f   ApiReader.obj
 0001:00001950       ?isApiAddressValid@ApiReader@@QAE_NK@Z 00402950 f   ApiReader.obj
 0001:000019a0       ?getApiByVirtualAddress@ApiReader@@QAEPAVApiInfo@@KPA_N@Z 004029a0 f   ApiReader.obj
 0001:00001f90       ?readAndParseIAT@ApiReader@@QAEXKKAAV?$map@KVImportModuleThunk@@U?$less@K@std@@V?$allocator@U?$pair@$$CBKVImportModuleThunk@@@std@@@3@@std@@@Z 00402f90 f   ApiReader.obj
 0001:00001fd0       ?parseIAT@ApiReader@@AAEXKPAEK@Z 00402fd0 f   ApiReader.obj
 0001:000020e0       ?addFoundApiToModuleList@ApiReader@@QAEXKPAVApiInfo@@_N1@Z 004030e0 f   ApiReader.obj
 0001:00002140       ?addModuleToModuleList@ApiReader@@AAE_NPB_WK@Z 00403140 f   ApiReader.obj
 0001:00002240       ??1ImportModuleThunk@@QAE@XZ 00403240 f i ApiReader.obj
 0001:000022a0       ??1?$pair@$$CBKVImportModuleThunk@@@std@@QAE@XZ 004032a0 f i ApiReader.obj
 0001:000022a0       ??1?$pair@KVImportModuleThunk@@@std@@QAE@XZ 004032a0 f i ApiReader.obj
 0001:000022b0       ?addUnknownModuleToModuleList@ApiReader@@AAEXK@Z 004032b0 f   ApiReader.obj
 0001:000023b0       ?addFunctionToModuleList@ApiReader@@AAE_NPAVApiInfo@@KKG_N1@Z 004033b0 f   ApiReader.obj
 0001:00002600       ?clearAll@ApiReader@@QAEXXZ 00403600 f   ApiReader.obj
 0001:000026c0       ?addNotFoundApiToModuleList@ApiReader@@AAE_NKK@Z 004036c0 f   ApiReader.obj
 0001:000029b0       ?isInvalidMemoryForIat@ApiReader@@QAE_NK@Z 004039b0 f   ApiReader.obj
 0001:00002a30       ??1?$basic_string@DU?$char_traits@D@std@@V?$allocator@D@2@@std@@QAE@XZ 00403a30 f i ApiReader.obj
 0001:00002a60       ?push_back@?$vector@KV?$allocator@K@std@@@std@@QAEXABK@Z 00403a60 f i DisassemblerGui.obj
 0001:00002a60       ?push_back@?$vector@PAVApiInfo@@V?$allocator@PAVApiInfo@@@std@@@std@@QAEXABQAVApiInfo@@@Z 00403a60 f i ApiReader.obj
 0001:00002ac0       ?insert@?$_Tree@V?$_Tmap_traits@KVImportThunk@@U?$less@K@std@@V?$allocator@U?$pair@$$CBKVImportThunk@@@std@@@3@$0A@@std@@@std@@QAE?AU?$pair@Viterator@?$_Tree@V?$_Tmap_traits@KVImportThunk@@U?$less@K@std@@V?$allocator@U?$pair@$$CBKVImportThunk@@@std@@@3@$0A@@std@@@std@@_N@2@ABU?$pair@$$CBKVImportThunk@@@2@@Z 00403ac0 f i ApiReader.obj
 0001:00002bb0       ??1?$_Hash@V?$_Hmap_traits@KPAVApiInfo@@V?$hash_compare@KU?$less@K@std@@@stdext@@V?$allocator@U?$pair@$$CBKPAVApiInfo@@@std@@@std@@$00@stdext@@@stdext@@QAE@XZ 00403bb0 f i ApiReader.obj
 0001:00002c00       ?clear@?$_Hash@V?$_Hmap_traits@KPAVApiInfo@@V?$hash_compare@KU?$less@K@std@@@stdext@@V?$allocator@U?$pair@$$CBKPAVApiInfo@@@std@@@std@@$00@stdext@@@stdext@@QAEXXZ 00403c00 f i ApiReader.obj
 0001:00002c90       ??D?$_Iterator@$00@?$list@U?$pair@$$CBKPAVApiInfo@@@std@@V?$allocator@U?$pair@$$CBKPAVApiInfo@@@std@@@2@@std@@QBEAAU?$pair@$$CBKPAVApiInfo@@@2@XZ 00403c90 f i ApiReader.obj
 0001:00002cc0       ??E?$_Iterator@$00@?$list@U?$pair@$$CBKPAVApiInfo@@@std@@V?$allocator@U?$pair@$$CBKPAVApiInfo@@@std@@@2@@std@@QAE?AV012@H@Z 00403cc0 f i ApiReader.obj
 0001:00002d00       ?insert@?$_Tree@V?$_Tmap_traits@KVImportModuleThunk@@U?$less@K@std@@V?$allocator@U?$pair@$$CBKVImportModuleThunk@@@std@@@3@$0A@@std@@@std@@QAE?AU?$pair@Viterator@?$_Tree@V?$_Tmap_traits@KVImportModuleThunk@@U?$less@K@std@@V?$allocator@U?$pair@$$CBKVImportModuleThunk@@@std@@@3@$0A@@std@@@std@@_N@2@ABU?$pair@$$CBKVImportModuleThunk@@@2@@Z 00403d00 f i ApiReader.obj
 0001:00002df0       ?find@?$_Tree@V?$_Tmap_traits@KVImportModuleThunk@@U?$less@K@std@@V?$allocator@U?$pair@$$CBKVImportModuleThunk@@@std@@@3@$0A@@std@@@std@@QAE?AViterator@12@ABK@Z 00403df0 f i ApiReader.obj
 0001:00002e80       ??Diterator@?$_Tree@V?$_Tset_traits@KU?$less@K@std@@V?$allocator@K@2@$0A@@std@@@std@@QBEAAKXZ 00403e80 f i IATReferenceScan.obj
 0001:00002e80       ??Citerator@?$_Tree@V?$_Tmap_traits@KVImportThunk@@U?$less@K@std@@V?$allocator@U?$pair@$$CBKVImportThunk@@@std@@@3@$0A@@std@@@std@@QBEPAU?$pair@$$CBKVImportThunk@@@2@XZ 00403e80 f i DllInjectionPlugin.obj
 0001:00002e80       ??Citerator@?$_Tree@V?$_Tmap_traits@KVImportModuleThunk@@U?$less@K@std@@V?$allocator@U?$pair@$$CBKVImportModuleThunk@@@std@@@3@$0A@@std@@@std@@QBEPAU?$pair@$$CBKVImportModuleThunk@@@2@XZ 00403e80 f i ApiReader.obj
 0001:00002eb0       ??8const_iterator@?$_Tree@V?$_Tmap_traits@KVImportThunk@@U?$less@K@std@@V?$allocator@U?$pair@$$CBKVImportThunk@@@std@@@3@$0A@@std@@@std@@QBE_NABV012@@Z 00403eb0 f i ApiReader.obj
 0001:00002eb0       ??8const_iterator@?$_Tree@V?$_Tmap_traits@KVImportModuleThunk@@U?$less@K@std@@V?$allocator@U?$pair@$$CBKVImportModuleThunk@@@std@@@3@$0A@@std@@@std@@QBE_NABV012@@Z 00403eb0 f i ApiReader.obj
 0001:00002eb0       ??8const_iterator@?$_Tree@V?$_Tmap_traits@W4ConfigOption@@VConfiguration@@U?$less@W4ConfigOption@@@std@@V?$allocator@U?$pair@$$CBW4ConfigOption@@VConfiguration@@@std@@@4@$0A@@std@@@std@@QBE_NABV012@@Z 00403eb0 f i ConfigurationHolder.obj
 0001:00002ed0       ??0ImportModuleThunk@@QAE@ABV0@@Z 00403ed0 f i ApiReader.obj
 0001:00002f40       ??0ImportThunk@@QAE@ABV0@@Z 00403f40 f i ApiReader.obj
 0001:00002ff0       ?assign@?$basic_string@DU?$char_traits@D@std@@V?$allocator@D@2@@std@@QAEAAV12@ABV12@II@Z 00403ff0 f i ApiReader.obj
 0001:000030e0       ?insert@?$vector@KV?$allocator@K@std@@@std@@QAE?AV?$_Vector_iterator@KV?$allocator@K@std@@@2@V?$_Vector_const_iterator@KV?$allocator@K@std@@@2@ABK@Z 004040e0 f i DisassemblerGui.obj
 0001:000030e0       ?insert@?$vector@PAVApiInfo@@V?$allocator@PAVApiInfo@@@std@@@std@@QAE?AV?$_Vector_iterator@PAVApiInfo@@V?$allocator@PAVApiInfo@@@std@@@2@V?$_Vector_const_iterator@PAVApiInfo@@V?$allocator@PAVApiInfo@@@std@@@2@ABQAVApiInfo@@@Z 004040e0 f i ApiReader.obj
 0001:00003190       ??0?$_Tree@V?$_Tmap_traits@KVImportThunk@@U?$less@K@std@@V?$allocator@U?$pair@$$CBKVImportThunk@@@std@@@3@$0A@@std@@@std@@QAE@ABU?$less@K@1@ABV?$allocator@U?$pair@$$CBKVImportThunk@@@std@@@1@@Z 00404190 f i ApiReader.obj
 0001:00003210       ??0?$_Tree@V?$_Tmap_traits@KVImportThunk@@U?$less@K@std@@V?$allocator@U?$pair@$$CBKVImportThunk@@@std@@@3@$0A@@std@@@std@@QAE@ABV01@@Z 00404210 f i ApiReader.obj
 0001:000032c0       ?_Insert@?$_Tree@V?$_Tmap_traits@KVImportThunk@@U?$less@K@std@@V?$allocator@U?$pair@$$CBKVImportThunk@@@std@@@3@$0A@@std@@@std@@IAE?AViterator@12@_NPAU_Node@?$_Tree_nod@V?$_Tmap_traits@KVImportThunk@@U?$less@K@std@@V?$allocator@U?$pair@$$CBKVImportThunk@@@std@@@3@$0A@@std@@@2@ABU?$pair@$$CBKVImportThunk@@@2@@Z 004042c0 f i ApiReader.obj
 0001:000034b0       ?_Tidy@?$_Tree@V?$_Tmap_traits@KVImportThunk@@U?$less@K@std@@V?$allocator@U?$pair@$$CBKVImportThunk@@@std@@@3@$0A@@std@@@std@@IAEXXZ 004044b0 f i ApiReader.obj
 0001:000034f0       ??0?$_Hash@V?$_Hmap_traits@KPAVApiInfo@@V?$hash_compare@KU?$less@K@std@@@stdext@@V?$allocator@U?$pair@$$CBKPAVApiInfo@@@std@@@std@@$00@stdext@@@stdext@@QAE@ABV?$hash_compare@KU?$less@K@std@@@1@ABV?$allocator@U?$pair@$$CBKPAVApiInfo@@@std@@@std@@@Z 004044f0 f i ApiReader.obj
 0001:00003570       ?lower_bound@?$_Hash@V?$_Hmap_traits@KPAVApiInfo@@V?$hash_compare@KU?$less@K@std@@@stdext@@V?$allocator@U?$pair@$$CBKPAVApiInfo@@@std@@@std@@$00@stdext@@@stdext@@QAE?AV?$_Iterator@$00@?$list@U?$pair@$$CBKPAVApiInfo@@@std@@V?$allocator@U?$pair@$$CBKPAVApiInfo@@@std@@@2@@std@@ABK@Z 00404570 f i ApiReader.obj
 0001:00003700       ?equal_range@?$_Hash@V?$_Hmap_traits@KPAVApiInfo@@V?$hash_compare@KU?$less@K@std@@@stdext@@V?$allocator@U?$pair@$$CBKPAVApiInfo@@@std@@@std@@$00@stdext@@@stdext@@QBE?AU?$pair@V?$_Const_iterator@$00@?$list@U?$pair@$$CBKPAVApiInfo@@@std@@V?$allocator@U?$pair@$$CBKPAVApiInfo@@@std@@@2@@std@@V123@@std@@ABK@Z 00404700 f i ApiReader.obj
 0001:000038c0       ?_Init@?$_Hash@V?$_Hmap_traits@KPAVApiInfo@@V?$hash_compare@KU?$less@K@std@@@stdext@@V?$allocator@U?$pair@$$CBKPAVApiInfo@@@std@@@std@@$00@stdext@@@stdext@@IAEXI@Z 004048c0 f i ApiReader.obj
 0001:00003910       ??1?$list@U?$pair@$$CBKPAVApiInfo@@@std@@V?$allocator@U?$pair@$$CBKPAVApiInfo@@@std@@@2@@std@@QAE@XZ 00404910 f i ApiReader.obj
 0001:00003910       ??1?$list@U?$pair@QAU_TREEITEM@@UTreeItemData@ImportsHandling@@@std@@V?$allocator@U?$pair@QAU_TREEITEM@@UTreeItemData@ImportsHandling@@@std@@@2@@std@@QAE@XZ 00404910 f i ImportsHandling.obj
 0001:00003930       ??1?$vector@VHardDisk@@V?$allocator@VHardDisk@@@std@@@std@@QAE@XZ 00404930 f i DeviceNameResolver.obj
 0001:00003930       ??1?$vector@VDisassemblerAddressComment@@V?$allocator@VDisassemblerAddressComment@@@std@@@std@@QAE@XZ 00404930 f i DisassemblerGui.obj
 0001:00003930       ??1?$vector@VMemory@@V?$allocator@VMemory@@@std@@@std@@QAE@XZ 00404930 f i DumpMemoryGui.obj
 0001:00003930       ??1?$vector@U_List_position@?$_Hash@V?$_Hmap_traits@KPAVApiInfo@@V?$hash_compare@KU?$less@K@std@@@stdext@@V?$allocator@U?$pair@$$CBKPAVApiInfo@@@std@@@std@@$00@stdext@@@stdext@@V?$allocator@U_List_position@?$_Hash@V?$_Hmap_traits@KPAVApiInfo@@V?$hash_compare@KU?$less@K@std@@@stdext@@V?$allocator@U?$pair@$$CBKPAVApiInfo@@@std@@@std@@$00@stdext@@@stdext@@@std@@@std@@QAE@XZ 00404930 f i ApiReader.obj
 0001:00003930       ??1?$vector@U_List_position@?$_Hash@V?$_Hmap_traits@PAU_TREEITEM@@UTreeItemData@ImportsHandling@@V?$hash_compare@PAU_TREEITEM@@U?$less@PAU_TREEITEM@@@std@@@stdext@@V?$allocator@U?$pair@QAU_TREEITEM@@UTreeItemData@ImportsHandling@@@std@@@std@@$0A@@stdext@@@stdext@@V?$allocator@U_List_position@?$_Hash@V?$_Hmap_traits@PAU_TREEITEM@@UTreeItemData@ImportsHandling@@V?$hash_compare@PAU_TREEITEM@@U?$less@PAU_TREEITEM@@@std@@@stdext@@V?$allocator@U?$pair@QAU_TREEITEM@@UTreeItemData@ImportsHandling@@@std@@@std@@$0A@@stdext@@@stdext@@@std@@@std@@QAE@XZ 00404930 f i ImportsHandling.obj
 0001:00003930       ??1?$vector@VIATReference@@V?$allocator@VIATReference@@@std@@@std@@QAE@XZ 00404930 f i main.obj
 0001:00003930       ??1?$vector@VPeFileSection@@V?$allocator@VPeFileSection@@@std@@@std@@QAE@XZ 00404930 f i PeParser.obj
 0001:00003930       ??1?$vector@KV?$allocator@K@std@@@std@@QAE@XZ 00404930 f i DisassemblerGui.obj
 0001:00003930       ??1?$vector@PAVApiInfo@@V?$allocator@PAVApiInfo@@@std@@@std@@QAE@XZ 00404930 f i PickApiGui.obj
 0001:00003930       ??1?$vector@VPlugin@@V?$allocator@VPlugin@@@std@@@std@@QAE@XZ 00404930 f i Scylla.obj
 0001:00003960       ?_Erase@?$_Tree@V?$_Tmap_traits@KVImportModuleThunk@@U?$less@K@std@@V?$allocator@U?$pair@$$CBKVImportModuleThunk@@@std@@@3@$0A@@std@@@std@@IAEXPAU_Node@?$_Tree_nod@V?$_Tmap_traits@KVImportModuleThunk@@U?$less@K@std@@V?$allocator@U?$pair@$$CBKVImportModuleThunk@@@std@@@3@$0A@@std@@@2@@Z 00404960 f i ApiReader.obj
 0001:00003a00       ?_Insert@?$_Tree@V?$_Tmap_traits@KVImportModuleThunk@@U?$less@K@std@@V?$allocator@U?$pair@$$CBKVImportModuleThunk@@@std@@@3@$0A@@std@@@std@@IAE?AViterator@12@_NPAU_Node@?$_Tree_nod@V?$_Tmap_traits@KVImportModuleThunk@@U?$less@K@std@@V?$allocator@U?$pair@$$CBKVImportModuleThunk@@@std@@@3@$0A@@std@@@2@ABU?$pair@$$CBKVImportModuleThunk@@@2@@Z 00404a00 f i ApiReader.obj
 0001:00003c00       ??0length_error@std@@QAE@ABV01@@Z 00404c00 f i ApiReader.obj
 0001:00003c20       ??0logic_error@std@@QAE@ABV01@@Z 00404c20 f i ApiReader.obj
 0001:00003c90       ??0?$basic_string@DU?$char_traits@D@std@@V?$allocator@D@2@@std@@QAE@PBD@Z 00404c90 f i ApiReader.obj
 0001:00003cd0       ?erase@?$basic_string@DU?$char_traits@D@std@@V?$allocator@D@2@@std@@QAEAAV12@II@Z 00404cd0 f i ApiReader.obj
 0001:00003d60       ?_Insert_n@?$vector@KV?$allocator@K@std@@@std@@IAEXV?$_Vector_const_iterator@KV?$allocator@K@std@@@2@IABK@Z 00404d60 f i DisassemblerGui.obj
 0001:00003d60       ?_Insert_n@?$vector@PAVApiInfo@@V?$allocator@PAVApiInfo@@@std@@@std@@IAEXV?$_Vector_const_iterator@PAVApiInfo@@V?$allocator@PAVApiInfo@@@std@@@2@IABQAVApiInfo@@@Z 00404d60 f i ApiReader.obj
 0001:00003f20       ?_Xlen@?$vector@PAVApiInfo@@V?$allocator@PAVApiInfo@@@std@@@std@@KAXXZ 00404f20 f i ApiReader.obj
 0001:00003f20       ?_Xlen@?$vector@KV?$allocator@K@std@@@std@@KAXXZ 00404f20 f i DisassemblerGui.obj
 0001:00003f20       ?_Xlen@?$vector@U_List_position@?$_Hash@V?$_Hmap_traits@PAU_TREEITEM@@UTreeItemData@ImportsHandling@@V?$hash_compare@PAU_TREEITEM@@U?$less@PAU_TREEITEM@@@std@@@stdext@@V?$allocator@U?$pair@QAU_TREEITEM@@UTreeItemData@ImportsHandling@@@std@@@std@@$0A@@stdext@@@stdext@@V?$allocator@U_List_position@?$_Hash@V?$_Hmap_traits@PAU_TREEITEM@@UTreeItemData@ImportsHandling@@V?$hash_compare@PAU_TREEITEM@@U?$less@PAU_TREEITEM@@@std@@@stdext@@V?$allocator@U?$pair@QAU_TREEITEM@@UTreeItemData@ImportsHandling@@@std@@@std@@$0A@@stdext@@@stdext@@@std@@@std@@KAXXZ 00404f20 f i ImportsHandling.obj
 0001:00003f20       ?_Xlen@?$vector@VPeFileSection@@V?$allocator@VPeFileSection@@@std@@@std@@KAXXZ 00404f20 f i PeParser.obj
 0001:00003f20       ?_Xlen@?$vector@VDisassemblerAddressComment@@V?$allocator@VDisassemblerAddressComment@@@std@@@std@@KAXXZ 00404f20 f i DisassemblerGui.obj
 0001:00003f20       ?_Xlen@?$vector@VMemory@@V?$allocator@VMemory@@@std@@@std@@KAXXZ 00404f20 f i DumpMemoryGui.obj
 0001:00003f20       ?_Xlen@?$vector@VPeSection@@V?$allocator@VPeSection@@@std@@@std@@KAXXZ 00404f20 f i DumpSectionGui.obj
 0001:00003f20       ?_Xlen@?$vector@VIATReference@@V?$allocator@VIATReference@@@std@@@std@@KAXXZ 00404f20 f i IATReferenceScan.obj
 0001:00003f90       ?allocate@?$allocator@PAVApiInfo@@@std@@QAEPAPAVApiInfo@@I@Z 00404f90 f i ApiReader.obj
 0001:00003f90       ?allocate@?$allocator@K@std@@QAEPAKI@Z 00404f90 f i DisassemblerGui.obj
 0001:00003ff0       ?erase@?$_Tree@V?$_Tmap_traits@KVImportThunk@@U?$less@K@std@@V?$allocator@U?$pair@$$CBKVImportThunk@@@std@@@3@$0A@@std@@@std@@QAE?AViterator@12@Vconst_iterator@12@0@Z 00404ff0 f i ApiReader.obj
 0001:000040c0       ?_Copy@?$_Tree@V?$_Tmap_traits@KVImportThunk@@U?$less@K@std@@V?$allocator@U?$pair@$$CBKVImportThunk@@@std@@@3@$0A@@std@@@std@@IAEXABV12@@Z 004050c0 f i ApiReader.obj
 0001:00004140       ?_Lrotate@?$_Tree@V?$_Tmap_traits@KVImportThunk@@U?$less@K@std@@V?$allocator@U?$pair@$$CBKVImportThunk@@@std@@@3@$0A@@std@@@std@@IAEXPAU_Node@?$_Tree_nod@V?$_Tmap_traits@KVImportThunk@@U?$less@K@std@@V?$allocator@U?$pair@$$CBKVImportThunk@@@std@@@3@$0A@@std@@@2@@Z 00405140 f i ApiReader.obj
 0001:000041a0       ?_Rrotate@?$_Tree@V?$_Tmap_traits@KVImportThunk@@U?$less@K@std@@V?$allocator@U?$pair@$$CBKVImportThunk@@@std@@@3@$0A@@std@@@std@@IAEXPAU_Node@?$_Tree_nod@V?$_Tmap_traits@KVImportThunk@@U?$less@K@std@@V?$allocator@U?$pair@$$CBKVImportThunk@@@std@@@3@$0A@@std@@@2@@Z 004051a0 f i ApiReader.obj
 0001:00004200       ?_Buynode@?$_Tree@V?$_Tmap_traits@KVImportThunk@@U?$less@K@std@@V?$allocator@U?$pair@$$CBKVImportThunk@@@std@@@3@$0A@@std@@@std@@IAEPAU_Node@?$_Tree_nod@V?$_Tmap_traits@KVImportThunk@@U?$less@K@std@@V?$allocator@U?$pair@$$CBKVImportThunk@@@std@@@3@$0A@@std@@@2@PAU342@00ABU?$pair@$$CBKVImportThunk@@@2@D@Z 00405200 f i ApiReader.obj
 0001:00004250       ?_Insert@?$_Hash@V?$_Hmap_traits@KPAVApiInfo@@V?$hash_compare@KU?$less@K@std@@@stdext@@V?$allocator@U?$pair@$$CBKPAVApiInfo@@@std@@@std@@$00@stdext@@@stdext@@IAE?AU?$pair@V?$_Iterator@$00@?$list@U?$pair@$$CBKPAVApiInfo@@@std@@V?$allocator@U?$pair@$$CBKPAVApiInfo@@@std@@@2@@std@@_N@std@@ABU?$pair@$$CBKPAVApiInfo@@@4@V?$_Iterator@$00@?$list@U?$pair@$$CBKPAVApiInfo@@@std@@V?$allocator@U?$pair@$$CBKPAVApiInfo@@@std@@@2@@4@@Z 00405250 f i ApiReader.obj
 0001:000044d0       ??0?$list@U?$pair@$$CBKPAVApiInfo@@@std@@V?$allocator@U?$pair@$$CBKPAVApiInfo@@@std@@@2@@std@@QAE@ABV?$allocator@U?$pair@$$CBKPAVApiInfo@@@std@@@1@@Z 004054d0 f i ApiReader.obj
 0001:00004540       ?_Tidy@?$list@U?$pair@$$CBKPAVApiInfo@@@std@@V?$allocator@U?$pair@$$CBKPAVApiInfo@@@std@@@2@@std@@IAEXXZ 00405540 f i ApiReader.obj
 0001:00004540       ?_Tidy@?$list@U?$pair@QAU_TREEITEM@@UTreeItemData@ImportsHandling@@@std@@V?$allocator@U?$pair@QAU_TREEITEM@@UTreeItemData@ImportsHandling@@@std@@@2@@std@@IAEXXZ 00405540 f i ImportsHandling.obj
 0001:00004590       ?_Lrotate@?$_Tree@V?$_Tmap_traits@KVImportModuleThunk@@U?$less@K@std@@V?$allocator@U?$pair@$$CBKVImportModuleThunk@@@std@@@3@$0A@@std@@@std@@IAEXPAU_Node@?$_Tree_nod@V?$_Tmap_traits@KVImportModuleThunk@@U?$less@K@std@@V?$allocator@U?$pair@$$CBKVImportModuleThunk@@@std@@@3@$0A@@std@@@2@@Z 00405590 f i ApiReader.obj
 0001:000045f0       ?_Rrotate@?$_Tree@V?$_Tmap_traits@KVImportModuleThunk@@U?$less@K@std@@V?$allocator@U?$pair@$$CBKVImportModuleThunk@@@std@@@3@$0A@@std@@@std@@IAEXPAU_Node@?$_Tree_nod@V?$_Tmap_traits@KVImportModuleThunk@@U?$less@K@std@@V?$allocator@U?$pair@$$CBKVImportModuleThunk@@@std@@@3@$0A@@std@@@2@@Z 004055f0 f i ApiReader.obj
 0001:00004650       ?_Buynode@?$_Tree@V?$_Tmap_traits@KVImportModuleThunk@@U?$less@K@std@@V?$allocator@U?$pair@$$CBKVImportModuleThunk@@@std@@@3@$0A@@std@@@std@@IAEPAU_Node@?$_Tree_nod@V?$_Tmap_traits@KVImportModuleThunk@@U?$less@K@std@@V?$allocator@U?$pair@$$CBKVImportModuleThunk@@@std@@@3@$0A@@std@@@2@PAU342@00ABU?$pair@$$CBKVImportModuleThunk@@@2@D@Z 00405650 f i ApiReader.obj
 0001:00004700       ?_Copy@?$basic_string@DU?$char_traits@D@std@@V?$allocator@D@2@@std@@IAEXII@Z 00405700 f i ApiReader.obj
 0001:00004870       ?erase@?$_Tree@V?$_Tmap_traits@KVImportThunk@@U?$less@K@std@@V?$allocator@U?$pair@$$CBKVImportThunk@@@std@@@3@$0A@@std@@@std@@QAE?AViterator@12@Vconst_iterator@12@@Z 00405870 f i ApiReader.obj
 0001:00004bd0       ?_Copy@?$_Tree@V?$_Tmap_traits@KVImportThunk@@U?$less@K@std@@V?$allocator@U?$pair@$$CBKVImportThunk@@@std@@@3@$0A@@std@@@std@@IAEPAU_Node@?$_Tree_nod@V?$_Tmap_traits@KVImportThunk@@U?$less@K@std@@V?$allocator@U?$pair@$$CBKVImportThunk@@@std@@@3@$0A@@std@@@2@PAU342@0@Z 00405bd0 f i ApiReader.obj
 0001:00004c90       ?_Max@?$_Tree@V?$_Tmap_traits@KVImportThunk@@U?$less@K@std@@V?$allocator@U?$pair@$$CBKVImportThunk@@@std@@@3@$0A@@std@@@std@@KAPAU_Node@?$_Tree_nod@V?$_Tmap_traits@KVImportThunk@@U?$less@K@std@@V?$allocator@U?$pair@$$CBKVImportThunk@@@std@@@3@$0A@@std@@@2@PAU342@@Z 00405c90 f i ApiReader.obj
 0001:00004cb0       ?_Min@?$_Tree@V?$_Tmap_traits@KVImportThunk@@U?$less@K@std@@V?$allocator@U?$pair@$$CBKVImportThunk@@@std@@@3@$0A@@std@@@std@@KAPAU_Node@?$_Tree_nod@V?$_Tmap_traits@KVImportThunk@@U?$less@K@std@@V?$allocator@U?$pair@$$CBKVImportThunk@@@std@@@3@$0A@@std@@@2@PAU342@@Z 00405cb0 f i ApiReader.obj
 0001:00004cd0       ?_Buynode@?$_Tree@V?$_Tmap_traits@KVImportThunk@@U?$less@K@std@@V?$allocator@U?$pair@$$CBKVImportThunk@@@std@@@3@$0A@@std@@@std@@IAEPAU_Node@?$_Tree_nod@V?$_Tmap_traits@KVImportThunk@@U?$less@K@std@@V?$allocator@U?$pair@$$CBKVImportThunk@@@std@@@3@$0A@@std@@@2@XZ 00405cd0 f i ApiReader.obj
 0001:00004d10       ?_Grow@?$_Hash@V?$_Hmap_traits@KPAVApiInfo@@V?$hash_compare@KU?$less@K@std@@@stdext@@V?$allocator@U?$pair@$$CBKPAVApiInfo@@@std@@@std@@$00@stdext@@@stdext@@IAEXXZ 00405d10 f i ApiReader.obj
 0001:00005110       ?insert@?$list@U?$pair@$$CBKPAVApiInfo@@@std@@V?$allocator@U?$pair@$$CBKPAVApiInfo@@@std@@@2@@std@@QAE?AV?$_Iterator@$00@12@V?$_Const_iterator@$00@12@ABU?$pair@$$CBKPAVApiInfo@@@2@@Z 00406110 f i ApiReader.obj
 0001:00005190       ?splice@?$list@U?$pair@$$CBKPAVApiInfo@@@std@@V?$allocator@U?$pair@$$CBKPAVApiInfo@@@std@@@2@@std@@QAEXV?$_Const_iterator@$00@12@AAV12@0@Z 00406190 f i ApiReader.obj
 0001:00005240       ?_Buynode@?$list@U?$pair@$$CBKPAVApiInfo@@@std@@V?$allocator@U?$pair@$$CBKPAVApiInfo@@@std@@@2@@std@@IAEPAU_Node@?$_List_nod@U?$pair@$$CBKPAVApiInfo@@@std@@V?$allocator@U?$pair@$$CBKPAVApiInfo@@@std@@@2@@2@XZ 00406240 f i ApiReader.obj
 0001:00005260       ?_Assign_n@?$vector@U_List_position@?$_Hash@V?$_Hmap_traits@KPAVApiInfo@@V?$hash_compare@KU?$less@K@std@@@stdext@@V?$allocator@U?$pair@$$CBKPAVApiInfo@@@std@@@std@@$00@stdext@@@stdext@@V?$allocator@U_List_position@?$_Hash@V?$_Hmap_traits@KPAVApiInfo@@V?$hash_compare@KU?$less@K@std@@@stdext@@V?$allocator@U?$pair@$$CBKPAVApiInfo@@@std@@@std@@$00@stdext@@@stdext@@@std@@@std@@IAEXIABU_List_position@?$_Hash@V?$_Hmap_traits@KPAVApiInfo@@V?$hash_compare@KU?$less@K@std@@@stdext@@V?$allocator@U?$pair@$$CBKPAVApiInfo@@@std@@@std@@$00@stdext@@@stdext@@@Z 00406260 f i ApiReader.obj
 0001:000052d0       ?_Dec@const_iterator@?$_Tree@V?$_Tmap_traits@KVImportModuleThunk@@U?$less@K@std@@V?$allocator@U?$pair@$$CBKVImportModuleThunk@@@std@@@3@$0A@@std@@@std@@QAEXXZ 004062d0 f i ApiReader.obj
 0001:00005360       ?_Inc@const_iterator@?$_Tree@V?$_Tmap_traits@KVImportModuleThunk@@U?$less@K@std@@V?$allocator@U?$pair@$$CBKVImportModuleThunk@@@std@@@3@$0A@@std@@@std@@QAEXXZ 00406360 f i ApiReader.obj
 0001:000053d0       ?_Dec@const_iterator@?$_Tree@V?$_Tmap_traits@KVImportThunk@@U?$less@K@std@@V?$allocator@U?$pair@$$CBKVImportThunk@@@std@@@3@$0A@@std@@@std@@QAEXXZ 004063d0 f i ApiReader.obj
 0001:00005460       ??0out_of_range@std@@QAE@ABV01@@Z 00406460 f i ApiReader.obj
 0001:00005480       ?assign@?$basic_string@DU?$char_traits@D@std@@V?$allocator@D@2@@std@@QAEAAV12@PBDI@Z 00406480 f i ApiReader.obj
 0001:00005560       ?allocate@?$allocator@D@std@@QAEPADI@Z 00406560 f i ApiReader.obj
 0001:000055c0       ?_Erase@?$_Tree@V?$_Tmap_traits@KVImportThunk@@U?$less@K@std@@V?$allocator@U?$pair@$$CBKVImportThunk@@@std@@@3@$0A@@std@@@std@@IAEXPAU_Node@?$_Tree_nod@V?$_Tmap_traits@KVImportThunk@@U?$less@K@std@@V?$allocator@U?$pair@$$CBKVImportThunk@@@std@@@3@$0A@@std@@@2@@Z 004065c0 f i ApiReader.obj
 0001:00005600       ?_Splice@?$list@U?$pair@$$CBKPAVApiInfo@@@std@@V?$allocator@U?$pair@$$CBKPAVApiInfo@@@std@@@2@@std@@QAEXV?$_Const_iterator@$00@12@AAV12@00I_N@Z 00406600 f i ApiReader.obj
 0001:00005660       ?resize@?$vector@U_List_position@?$_Hash@V?$_Hmap_traits@KPAVApiInfo@@V?$hash_compare@KU?$less@K@std@@@stdext@@V?$allocator@U?$pair@$$CBKPAVApiInfo@@@std@@@std@@$00@stdext@@@stdext@@V?$allocator@U_List_position@?$_Hash@V?$_Hmap_traits@KPAVApiInfo@@V?$hash_compare@KU?$less@K@std@@@stdext@@V?$allocator@U?$pair@$$CBKPAVApiInfo@@@std@@@std@@$00@stdext@@@stdext@@@std@@@std@@QAEXIU_List_position@?$_Hash@V?$_Hmap_traits@KPAVApiInfo@@V?$hash_compare@KU?$less@K@std@@@stdext@@V?$allocator@U?$pair@$$CBKPAVApiInfo@@@std@@@std@@$00@stdext@@@stdext@@@Z 00406660 f i ApiReader.obj
 0001:00005700       ?_Max@?$_Tree@V?$_Tmap_traits@KVImportModuleThunk@@U?$less@K@std@@V?$allocator@U?$pair@$$CBKVImportModuleThunk@@@std@@@3@$0A@@std@@@std@@KAPAU_Node@?$_Tree_nod@V?$_Tmap_traits@KVImportModuleThunk@@U?$less@K@std@@V?$allocator@U?$pair@$$CBKVImportModuleThunk@@@std@@@3@$0A@@std@@@2@PAU342@@Z 00406700 f i ApiReader.obj
 0001:00005720       ?_Min@?$_Tree@V?$_Tmap_traits@KVImportModuleThunk@@U?$less@K@std@@V?$allocator@U?$pair@$$CBKVImportModuleThunk@@@std@@@3@$0A@@std@@@std@@KAPAU_Node@?$_Tree_nod@V?$_Tmap_traits@KVImportModuleThunk@@U?$less@K@std@@V?$allocator@U?$pair@$$CBKVImportModuleThunk@@@std@@@3@$0A@@std@@@2@PAU342@@Z 00406720 f i ApiReader.obj
 0001:00005740       ?_Buynode@?$list@U?$pair@$$CBKPAVApiInfo@@@std@@V?$allocator@U?$pair@$$CBKPAVApiInfo@@@std@@@2@@std@@IAEPAU_Node@?$_List_nod@U?$pair@$$CBKPAVApiInfo@@@std@@V?$allocator@U?$pair@$$CBKPAVApiInfo@@@std@@@2@@2@PAU342@0ABU?$pair@$$CBKPAVApiInfo@@@2@@Z 00406740 f i ApiReader.obj
 0001:00005780       ?_Incsize@?$list@U?$pair@$$CBKPAVApiInfo@@@std@@V?$allocator@U?$pair@$$CBKPAVApiInfo@@@std@@@2@@std@@IAEXI@Z 00406780 f i ApiReader.obj
 0001:00005820       ?_Insert_n@?$vector@U_List_position@?$_Hash@V?$_Hmap_traits@KPAVApiInfo@@V?$hash_compare@KU?$less@K@std@@@stdext@@V?$allocator@U?$pair@$$CBKPAVApiInfo@@@std@@@std@@$00@stdext@@@stdext@@V?$allocator@U_List_position@?$_Hash@V?$_Hmap_traits@KPAVApiInfo@@V?$hash_compare@KU?$less@K@std@@@stdext@@V?$allocator@U?$pair@$$CBKPAVApiInfo@@@std@@@std@@$00@stdext@@@stdext@@@std@@@std@@IAEXV?$_Vector_const_iterator@U_List_position@?$_Hash@V?$_Hmap_traits@KPAVApiInfo@@V?$hash_compare@KU?$less@K@std@@@stdext@@V?$allocator@U?$pair@$$CBKPAVApiInfo@@@std@@@std@@$00@stdext@@@stdext@@V?$allocator@U_List_position@?$_Hash@V?$_Hmap_traits@KPAVApiInfo@@V?$hash_compare@KU?$less@K@std@@@stdext@@V?$allocator@U?$pair@$$CBKPAVApiInfo@@@std@@@std@@$00@stdext@@@stdext@@@std@@@2@IABU_List_position@?$_Hash@V?$_Hmap_traits@KPAVApiInfo@@V?$hash_compare@KU?$less@K@std@@@stdext@@V?$allocator@U?$pair@$$CBKPAVApiInfo@@@std@@@std@@$00@stdext@@@stdext@@@Z 00406820 f i ApiReader.obj
 0001:00005a80       ?_Inc@const_iterator@?$_Tree@V?$_Tmap_traits@KVImportThunk@@U?$less@K@std@@V?$allocator@U?$pair@$$CBKVImportThunk@@@std@@@3@$0A@@std@@@std@@QAEXXZ 00406a80 f i ApiReader.obj
 0001:00005af0       ??$_Umove@PAU_List_position@?$_Hash@V?$_Hmap_traits@KPAVApiInfo@@V?$hash_compare@KU?$less@K@std@@@stdext@@V?$allocator@U?$pair@$$CBKPAVApiInfo@@@std@@@std@@$00@stdext@@@stdext@@@?$vector@U_List_position@?$_Hash@V?$_Hmap_traits@KPAVApiInfo@@V?$hash_compare@KU?$less@K@std@@@stdext@@V?$allocator@U?$pair@$$CBKPAVApiInfo@@@std@@@std@@$00@stdext@@@stdext@@V?$allocator@U_List_position@?$_Hash@V?$_Hmap_traits@KPAVApiInfo@@V?$hash_compare@KU?$less@K@std@@@stdext@@V?$allocator@U?$pair@$$CBKPAVApiInfo@@@std@@@std@@$00@stdext@@@stdext@@@std@@@std@@IAEPAU_List_position@?$_Hash@V?$_Hmap_traits@KPAVApiInfo@@V?$hash_compare@KU?$less@K@std@@@stdext@@V?$allocator@U?$pair@$$CBKPAVApiInfo@@@std@@@std@@$00@stdext@@@stdext@@PAU234@00@Z 00406af0 f i ApiReader.obj
 0001:00005af0       ??$_Umove@PAU_List_position@?$_Hash@V?$_Hmap_traits@PAU_TREEITEM@@UTreeItemData@ImportsHandling@@V?$hash_compare@PAU_TREEITEM@@U?$less@PAU_TREEITEM@@@std@@@stdext@@V?$allocator@U?$pair@QAU_TREEITEM@@UTreeItemData@ImportsHandling@@@std@@@std@@$0A@@stdext@@@stdext@@@?$vector@U_List_position@?$_Hash@V?$_Hmap_traits@PAU_TREEITEM@@UTreeItemData@ImportsHandling@@V?$hash_compare@PAU_TREEITEM@@U?$less@PAU_TREEITEM@@@std@@@stdext@@V?$allocator@U?$pair@QAU_TREEITEM@@UTreeItemData@ImportsHandling@@@std@@@std@@$0A@@stdext@@@stdext@@V?$allocator@U_List_position@?$_Hash@V?$_Hmap_traits@PAU_TREEITEM@@UTreeItemData@ImportsHandling@@V?$hash_compare@PAU_TREEITEM@@U?$less@PAU_TREEITEM@@@std@@@stdext@@V?$allocator@U?$pair@QAU_TREEITEM@@UTreeItemData@ImportsHandling@@@std@@@std@@$0A@@stdext@@@stdext@@@std@@@std@@IAEPAU_List_position@?$_Hash@V?$_Hmap_traits@PAU_TREEITEM@@UTreeItemData@ImportsHandling@@V?$hash_compare@PAU_TREEITEM@@U?$less@PAU_TREEITEM@@@std@@@stdext@@V?$allocator@U?$pair@QAU_TREEITEM@@UTreeItemData@ImportsHandling@@@std@@@std@@$0A@@stdext@@@stdext@@PAU234@00@Z 00406af0 f i ImportsHandling.obj
 0001:00005b20       ??0bad_alloc@std@@QAE@ABV01@@Z 00406b20 f i ApiReader.obj
 0001:00005b40       ??$_Uninit_fill_n@PAU_List_position@?$_Hash@V?$_Hmap_traits@KPAVApiInfo@@V?$hash_compare@KU?$less@K@std@@@stdext@@V?$allocator@U?$pair@$$CBKPAVApiInfo@@@std@@@std@@$00@stdext@@@stdext@@IU123@V?$allocator@U_List_position@?$_Hash@V?$_Hmap_traits@KPAVApiInfo@@V?$hash_compare@KU?$less@K@std@@@stdext@@V?$allocator@U?$pair@$$CBKPAVApiInfo@@@std@@@std@@$00@stdext@@@stdext@@@std@@@std@@YAXPAU_List_position@?$_Hash@V?$_Hmap_traits@KPAVApiInfo@@V?$hash_compare@KU?$less@K@std@@@stdext@@V?$allocator@U?$pair@$$CBKPAVApiInfo@@@std@@@std@@$00@stdext@@@stdext@@IABU123@AAV?$allocator@U_List_position@?$_Hash@V?$_Hmap_traits@KPAVApiInfo@@V?$hash_compare@KU?$less@K@std@@@stdext@@V?$allocator@U?$pair@$$CBKPAVApiInfo@@@std@@@std@@$00@stdext@@@stdext@@@0@U_Nonscalar_ptr_iterator_tag@0@U_Range_checked_iterator_tag@0@@Z 00406b40 f i ApiReader.obj
 0001:00005b40       ??$_Uninit_fill_n@PAU_List_position@?$_Hash@V?$_Hmap_traits@PAU_TREEITEM@@UTreeItemData@ImportsHandling@@V?$hash_compare@PAU_TREEITEM@@U?$less@PAU_TREEITEM@@@std@@@stdext@@V?$allocator@U?$pair@QAU_TREEITEM@@UTreeItemData@ImportsHandling@@@std@@@std@@$0A@@stdext@@@stdext@@IU123@V?$allocator@U_List_position@?$_Hash@V?$_Hmap_traits@PAU_TREEITEM@@UTreeItemData@ImportsHandling@@V?$hash_compare@PAU_TREEITEM@@U?$less@PAU_TREEITEM@@@std@@@stdext@@V?$allocator@U?$pair@QAU_TREEITEM@@UTreeItemData@ImportsHandling@@@std@@@std@@$0A@@stdext@@@stdext@@@std@@@std@@YAXPAU_List_position@?$_Hash@V?$_Hmap_traits@PAU_TREEITEM@@UTreeItemData@ImportsHandling@@V?$hash_compare@PAU_TREEITEM@@U?$less@PAU_TREEITEM@@@std@@@stdext@@V?$allocator@U?$pair@QAU_TREEITEM@@UTreeItemData@ImportsHandling@@@std@@@std@@$0A@@stdext@@@stdext@@IABU123@AAV?$allocator@U_List_position@?$_Hash@V?$_Hmap_traits@PAU_TREEITEM@@UTreeItemData@ImportsHandling@@V?$hash_compare@PAU_TREEITEM@@U?$less@PAU_TREEITEM@@@std@@@stdext@@V?$allocator@U?$pair@QAU_TREEITEM@@UTreeItemData@ImportsHandling@@@std@@@std@@$0A@@stdext@@@stdext@@@0@U_Nonscalar_ptr_iterator_tag@0@U_Range_checked_iterator_tag@0@@Z 00406b40 f i ImportsHandling.obj
 0001:00005b60       ??$_Uninit_copy@PAU_List_position@?$_Hash@V?$_Hmap_traits@KPAVApiInfo@@V?$hash_compare@KU?$less@K@std@@@stdext@@V?$allocator@U?$pair@$$CBKPAVApiInfo@@@std@@@std@@$00@stdext@@@stdext@@PAU123@V?$allocator@U_List_position@?$_Hash@V?$_Hmap_traits@KPAVApiInfo@@V?$hash_compare@KU?$less@K@std@@@stdext@@V?$allocator@U?$pair@$$CBKPAVApiInfo@@@std@@@std@@$00@stdext@@@stdext@@@std@@@std@@YAPAU_List_position@?$_Hash@V?$_Hmap_traits@KPAVApiInfo@@V?$hash_compare@KU?$less@K@std@@@stdext@@V?$allocator@U?$pair@$$CBKPAVApiInfo@@@std@@@std@@$00@stdext@@@stdext@@PAU123@00AAV?$allocator@U_List_position@?$_Hash@V?$_Hmap_traits@KPAVApiInfo@@V?$hash_compare@KU?$less@K@std@@@stdext@@V?$allocator@U?$pair@$$CBKPAVApiInfo@@@std@@@std@@$00@stdext@@@stdext@@@0@U_Nonscalar_ptr_iterator_tag@0@U_Range_checked_iterator_tag@0@@Z 00406b60 f i ApiReader.obj
 0001:00005b60       ??$_Uninit_copy@PAU_List_position@?$_Hash@V?$_Hmap_traits@PAU_TREEITEM@@UTreeItemData@ImportsHandling@@V?$hash_compare@PAU_TREEITEM@@U?$less@PAU_TREEITEM@@@std@@@stdext@@V?$allocator@U?$pair@QAU_TREEITEM@@UTreeItemData@ImportsHandling@@@std@@@std@@$0A@@stdext@@@stdext@@PAU123@V?$allocator@U_List_position@?$_Hash@V?$_Hmap_traits@PAU_TREEITEM@@UTreeItemData@ImportsHandling@@V?$hash_compare@PAU_TREEITEM@@U?$less@PAU_TREEITEM@@@std@@@stdext@@V?$allocator@U?$pair@QAU_TREEITEM@@UTreeItemData@ImportsHandling@@@std@@@std@@$0A@@stdext@@@stdext@@@std@@@std@@YAPAU_List_position@?$_Hash@V?$_Hmap_traits@PAU_TREEITEM@@UTreeItemData@ImportsHandling@@V?$hash_compare@PAU_TREEITEM@@U?$less@PAU_TREEITEM@@@std@@@stdext@@V?$allocator@U?$pair@QAU_TREEITEM@@UTreeItemData@ImportsHandling@@@std@@@std@@$0A@@stdext@@@stdext@@PAU123@00AAV?$allocator@U_List_position@?$_Hash@V?$_Hmap_traits@PAU_TREEITEM@@UTreeItemData@ImportsHandling@@V?$hash_compare@PAU_TREEITEM@@U?$less@PAU_TREEITEM@@@std@@@stdext@@V?$allocator@U?$pair@QAU_TREEITEM@@UTreeItemData@ImportsHandling@@@std@@@std@@$0A@@stdext@@@stdext@@@0@U_Nonscalar_ptr_iterator_tag@0@U_Range_checked_iterator_tag@0@@Z 00406b60 f i ImportsHandling.obj
 0001:00005b80       ??0ConfigurationHolder@@QAE@PB_W@Z 00406b80 f   ConfigurationHolder.obj
 0001:000061a0       ??1?$map@W4ConfigOption@@VConfiguration@@U?$less@W4ConfigOption@@@std@@V?$allocator@U?$pair@$$CBW4ConfigOption@@VConfiguration@@@std@@@4@@std@@QAE@XZ 004071a0 f i ConfigurationHolder.obj
 0001:000061f0       ?loadConfiguration@ConfigurationHolder@@QAE_NXZ 004071f0 f   ConfigurationHolder.obj
 0001:00006280       ?saveConfiguration@ConfigurationHolder@@QBE_NXZ 00407280 f   ConfigurationHolder.obj
 0001:00006310       ??AConfigurationHolder@@QAEAAVConfiguration@@W4ConfigOption@@@Z 00407310 f   ConfigurationHolder.obj
 0001:00006330       ?saveNumericToConfigFile@ConfigurationHolder@@ABE_NABVConfiguration@@H@Z 00407330 f   ConfigurationHolder.obj
 0001:000063a0       ?readNumericFromConfigFile@ConfigurationHolder@@AAE_NAAVConfiguration@@H@Z 004073a0 f   ConfigurationHolder.obj
 0001:00006430       ?readStringFromConfigFile@ConfigurationHolder@@AAE_NAAVConfiguration@@@Z 00407430 f   ConfigurationHolder.obj
 0001:000064c0       ?loadConfig@ConfigurationHolder@@AAE_NAAVConfiguration@@@Z 004074c0 f   ConfigurationHolder.obj
 0001:00006530       ?saveConfig@ConfigurationHolder@@ABE_NABVConfiguration@@@Z 00407530 f   ConfigurationHolder.obj
 0001:00006600       ??A?$map@W4ConfigOption@@VConfiguration@@U?$less@W4ConfigOption@@@std@@V?$allocator@U?$pair@$$CBW4ConfigOption@@VConfiguration@@@std@@@4@@std@@QAEAAVConfiguration@@ABW4ConfigOption@@@Z 00407600 f i ConfigurationHolder.obj
 0001:00006700       ??0?$_Tree@V?$_Tmap_traits@W4ConfigOption@@VConfiguration@@U?$less@W4ConfigOption@@@std@@V?$allocator@U?$pair@$$CBW4ConfigOption@@VConfiguration@@@std@@@4@$0A@@std@@@std@@QAE@ABU?$less@W4ConfigOption@@@1@ABV?$allocator@U?$pair@$$CBW4ConfigOption@@VConfiguration@@@std@@@1@@Z 00407700 f i ConfigurationHolder.obj
 0001:00006780       ?insert@?$_Tree@V?$_Tmap_traits@W4ConfigOption@@VConfiguration@@U?$less@W4ConfigOption@@@std@@V?$allocator@U?$pair@$$CBW4ConfigOption@@VConfiguration@@@std@@@4@$0A@@std@@@std@@QAE?AViterator@12@Vconst_iterator@12@ABU?$pair@$$CBW4ConfigOption@@VConfiguration@@@2@@Z 00407780 f i ConfigurationHolder.obj
 0001:00006920       ?_Tidy@?$_Tree@V?$_Tmap_traits@W4ConfigOption@@VConfiguration@@U?$less@W4ConfigOption@@@std@@V?$allocator@U?$pair@$$CBW4ConfigOption@@VConfiguration@@@std@@@4@$0A@@std@@@std@@IAEXXZ 00407920 f i ConfigurationHolder.obj
 0001:00006960       ?insert@?$_Tree@V?$_Tmap_traits@W4ConfigOption@@VConfiguration@@U?$less@W4ConfigOption@@@std@@V?$allocator@U?$pair@$$CBW4ConfigOption@@VConfiguration@@@std@@@4@$0A@@std@@@std@@QAE?AU?$pair@Viterator@?$_Tree@V?$_Tmap_traits@W4ConfigOption@@VConfiguration@@U?$less@W4ConfigOption@@@std@@V?$allocator@U?$pair@$$CBW4ConfigOption@@VConfiguration@@@std@@@4@$0A@@std@@@std@@_N@2@ABU?$pair@$$CBW4ConfigOption@@VConfiguration@@@2@@Z 00407960 f i ConfigurationHolder.obj
 0001:00006a50       ?erase@?$_Tree@V?$_Tmap_traits@W4ConfigOption@@VConfiguration@@U?$less@W4ConfigOption@@@std@@V?$allocator@U?$pair@$$CBW4ConfigOption@@VConfiguration@@@std@@@4@$0A@@std@@@std@@QAE?AViterator@12@Vconst_iterator@12@0@Z 00407a50 f i ConfigurationHolder.obj
 0001:00006b20       ?_Insert@?$_Tree@V?$_Tmap_traits@W4ConfigOption@@VConfiguration@@U?$less@W4ConfigOption@@@std@@V?$allocator@U?$pair@$$CBW4ConfigOption@@VConfiguration@@@std@@@4@$0A@@std@@@std@@IAE?AViterator@12@_NPAU_Node@?$_Tree_nod@V?$_Tmap_traits@W4ConfigOption@@VConfiguration@@U?$less@W4ConfigOption@@@std@@V?$allocator@U?$pair@$$CBW4ConfigOption@@VConfiguration@@@std@@@4@$0A@@std@@@2@ABU?$pair@$$CBW4ConfigOption@@VConfiguration@@@2@@Z 00407b20 f i ConfigurationHolder.obj
 0001:00006d20       ?_Inc@const_iterator@?$_Tree@V?$_Tmap_traits@W4ConfigOption@@VConfiguration@@U?$less@W4ConfigOption@@@std@@V?$allocator@U?$pair@$$CBW4ConfigOption@@VConfiguration@@@std@@@4@$0A@@std@@@std@@QAEXXZ 00407d20 f i ConfigurationHolder.obj
 0001:00006d90       ?erase@?$_Tree@V?$_Tmap_traits@W4ConfigOption@@VConfiguration@@U?$less@W4ConfigOption@@@std@@V?$allocator@U?$pair@$$CBW4ConfigOption@@VConfiguration@@@std@@@4@$0A@@std@@@std@@QAE?AViterator@12@Vconst_iterator@12@@Z 00407d90 f i ConfigurationHolder.obj
 0001:000070f0       ?_Lrotate@?$_Tree@V?$_Tmap_traits@W4ConfigOption@@VConfiguration@@U?$less@W4ConfigOption@@@std@@V?$allocator@U?$pair@$$CBW4ConfigOption@@VConfiguration@@@std@@@4@$0A@@std@@@std@@IAEXPAU_Node@?$_Tree_nod@V?$_Tmap_traits@W4ConfigOption@@VConfiguration@@U?$less@W4ConfigOption@@@std@@V?$allocator@U?$pair@$$CBW4ConfigOption@@VConfiguration@@@std@@@4@$0A@@std@@@2@@Z 004080f0 f i ConfigurationHolder.obj
 0001:00007150       ?_Min@?$_Tree@V?$_Tmap_traits@W4ConfigOption@@VConfiguration@@U?$less@W4ConfigOption@@@std@@V?$allocator@U?$pair@$$CBW4ConfigOption@@VConfiguration@@@std@@@4@$0A@@std@@@std@@KAPAU_Node@?$_Tree_nod@V?$_Tmap_traits@W4ConfigOption@@VConfiguration@@U?$less@W4ConfigOption@@@std@@V?$allocator@U?$pair@$$CBW4ConfigOption@@VConfiguration@@@std@@@4@$0A@@std@@@2@PAU342@@Z 00408150 f i ConfigurationHolder.obj
 0001:00007170       ?_Rrotate@?$_Tree@V?$_Tmap_traits@W4ConfigOption@@VConfiguration@@U?$less@W4ConfigOption@@@std@@V?$allocator@U?$pair@$$CBW4ConfigOption@@VConfiguration@@@std@@@4@$0A@@std@@@std@@IAEXPAU_Node@?$_Tree_nod@V?$_Tmap_traits@W4ConfigOption@@VConfiguration@@U?$less@W4ConfigOption@@@std@@V?$allocator@U?$pair@$$CBW4ConfigOption@@VConfiguration@@@std@@@4@$0A@@std@@@2@@Z 00408170 f i ConfigurationHolder.obj
 0001:000071d0       ?_Buynode@?$_Tree@V?$_Tmap_traits@W4ConfigOption@@VConfiguration@@U?$less@W4ConfigOption@@@std@@V?$allocator@U?$pair@$$CBW4ConfigOption@@VConfiguration@@@std@@@4@$0A@@std@@@std@@IAEPAU_Node@?$_Tree_nod@V?$_Tmap_traits@W4ConfigOption@@VConfiguration@@U?$less@W4ConfigOption@@@std@@V?$allocator@U?$pair@$$CBW4ConfigOption@@VConfiguration@@@std@@@4@$0A@@std@@@2@XZ 004081d0 f i ConfigurationHolder.obj
 0001:00007210       ?_Buynode@?$_Tree@V?$_Tmap_traits@W4ConfigOption@@VConfiguration@@U?$less@W4ConfigOption@@@std@@V?$allocator@U?$pair@$$CBW4ConfigOption@@VConfiguration@@@std@@@4@$0A@@std@@@std@@IAEPAU_Node@?$_Tree_nod@V?$_Tmap_traits@W4ConfigOption@@VConfiguration@@U?$less@W4ConfigOption@@@std@@V?$allocator@U?$pair@$$CBW4ConfigOption@@VConfiguration@@@std@@@4@$0A@@std@@@2@PAU342@00ABU?$pair@$$CBW4ConfigOption@@VConfiguration@@@2@D@Z 00408210 f i ConfigurationHolder.obj
 0001:00007260       ?_Dec@const_iterator@?$_Tree@V?$_Tmap_traits@W4ConfigOption@@VConfiguration@@U?$less@W4ConfigOption@@@std@@V?$allocator@U?$pair@$$CBW4ConfigOption@@VConfiguration@@@std@@@4@$0A@@std@@@std@@QAEXXZ 00408260 f i ConfigurationHolder.obj
 0001:000072f0       ?_Erase@?$_Tree@V?$_Tmap_traits@W4ConfigOption@@VConfiguration@@U?$less@W4ConfigOption@@@std@@V?$allocator@U?$pair@$$CBW4ConfigOption@@VConfiguration@@@std@@@4@$0A@@std@@@std@@IAEXPAU_Node@?$_Tree_nod@V?$_Tmap_traits@W4ConfigOption@@VConfiguration@@U?$less@W4ConfigOption@@@std@@V?$allocator@U?$pair@$$CBW4ConfigOption@@VConfiguration@@@std@@@4@$0A@@std@@@2@@Z 004082f0 f i ConfigurationHolder.obj
 0001:00007330       ?_Max@?$_Tree@V?$_Tmap_traits@W4ConfigOption@@VConfiguration@@U?$less@W4ConfigOption@@@std@@V?$allocator@U?$pair@$$CBW4ConfigOption@@VConfiguration@@@std@@@4@$0A@@std@@@std@@KAPAU_Node@?$_Tree_nod@V?$_Tmap_traits@W4ConfigOption@@VConfiguration@@U?$less@W4ConfigOption@@@std@@V?$allocator@U?$pair@$$CBW4ConfigOption@@VConfiguration@@@std@@@4@$0A@@std@@@2@PAU342@@Z 00408330 f i ConfigurationHolder.obj
 0001:00007350       ??$swprintf_s@$0BF@@@YAHAAY0BF@_WPB_WZZ 00408350 f i ConfigurationHolder.obj
 0001:00007370       ??0DeviceNameResolver@@QAE@XZ 00408370 f   DeviceNameResolver.obj
 0001:000073d0       ??1DeviceNameResolver@@QAE@XZ 004083d0 f   DeviceNameResolver.obj
 0001:00007410       ?initDeviceNameList@DeviceNameResolver@@AAEXXZ 00408410 f   DeviceNameResolver.obj
 0001:00007530       ?resolveDeviceLongNameToShort@DeviceNameResolver@@QAE_NPB_WPA_W@Z 00408530 f   DeviceNameResolver.obj
 0001:000076b0       ?fixVirtualDevices@DeviceNameResolver@@AAEXXZ 004086b0 f   DeviceNameResolver.obj
 0001:00007940       ?reserve@?$vector@VHardDisk@@V?$allocator@VHardDisk@@@std@@@std@@QAEXI@Z 00408940 f i DeviceNameResolver.obj
 0001:00007a50       ?push_back@?$vector@VHardDisk@@V?$allocator@VHardDisk@@@std@@@std@@QAEXABVHardDisk@@@Z 00408a50 f i DeviceNameResolver.obj
 0001:00007b00       ?clear@?$vector@VHardDisk@@V?$allocator@VHardDisk@@@std@@@std@@QAEXXZ 00408b00 f i DeviceNameResolver.obj
 0001:00007b50       ?insert@?$vector@VHardDisk@@V?$allocator@VHardDisk@@@std@@@std@@QAE?AV?$_Vector_iterator@VHardDisk@@V?$allocator@VHardDisk@@@std@@@2@V?$_Vector_const_iterator@VHardDisk@@V?$allocator@VHardDisk@@@std@@@2@ABVHardDisk@@@Z 00408b50 f i DeviceNameResolver.obj
 0001:00007c20       ?erase@?$vector@VHardDisk@@V?$allocator@VHardDisk@@@std@@@std@@QAE?AV?$_Vector_iterator@VHardDisk@@V?$allocator@VHardDisk@@@std@@@2@V?$_Vector_const_iterator@VHardDisk@@V?$allocator@VHardDisk@@@std@@@2@0@Z 00408c20 f i DeviceNameResolver.obj
 0001:00007cb0       ?_Ufill@?$vector@VHardDisk@@V?$allocator@VHardDisk@@@std@@@std@@IAEPAVHardDisk@@PAV3@IABV3@@Z 00408cb0 f i DeviceNameResolver.obj
 0001:00007cb0       ?_Ufill@?$vector@VDisassemblerAddressComment@@V?$allocator@VDisassemblerAddressComment@@@std@@@std@@IAEPAVDisassemblerAddressComment@@PAV3@IABV3@@Z 00408cb0 f i DisassemblerGui.obj
 0001:00007ce0       ?allocate@?$allocator@VHardDisk@@@std@@QAEPAVHardDisk@@I@Z 00408ce0 f i DeviceNameResolver.obj
 0001:00007ce0       ?allocate@?$allocator@VDisassemblerAddressComment@@@std@@QAEPAVDisassemblerAddressComment@@I@Z 00408ce0 f i DisassemblerGui.obj
 0001:00007d40       ?_Insert_n@?$vector@VHardDisk@@V?$allocator@VHardDisk@@@std@@@std@@IAEXV?$_Vector_const_iterator@VHardDisk@@V?$allocator@VHardDisk@@@std@@@2@IABVHardDisk@@@Z 00408d40 f i DeviceNameResolver.obj
 0001:00008000       ??$fill@PAVHardDisk@@V1@@std@@YAXPAVHardDisk@@0ABV1@@Z 00409000 f i DeviceNameResolver.obj
 0001:00008000       ??$fill@PAVDisassemblerAddressComment@@V1@@std@@YAXPAVDisassemblerAddressComment@@0ABV1@@Z 00409000 f i DisassemblerGui.obj
 0001:00008030       ??$_Copy_opt@PAVHardDisk@@PAV1@@std@@YAPAVHardDisk@@PAV1@00Urandom_access_iterator_tag@0@U_Nonscalar_ptr_iterator_tag@0@U_Range_checked_iterator_tag@0@@Z 00409030 f i DeviceNameResolver.obj
 0001:00008090       ??$_Uninit_fill_n@PAVHardDisk@@IV1@V?$allocator@VHardDisk@@@std@@@std@@YAXPAVHardDisk@@IABV1@AAV?$allocator@VHardDisk@@@0@U_Nonscalar_ptr_iterator_tag@0@U_Range_checked_iterator_tag@0@@Z 00409090 f i DeviceNameResolver.obj
 0001:00008090       ??$_Uninit_fill_n@PAVDisassemblerAddressComment@@IV1@V?$allocator@VDisassemblerAddressComment@@@std@@@std@@YAXPAVDisassemblerAddressComment@@IABV1@AAV?$allocator@VDisassemblerAddressComment@@@0@U_Nonscalar_ptr_iterator_tag@0@U_Range_checked_iterator_tag@0@@Z 00409090 f i DisassemblerGui.obj
 0001:000080c0       ??$_Uninit_copy@PAVDisassemblerAddressComment@@PAV1@V?$allocator@VDisassemblerAddressComment@@@std@@@std@@YAPAVDisassemblerAddressComment@@PAV1@00AAV?$allocator@VDisassemblerAddressComment@@@0@U_Nonscalar_ptr_iterator_tag@0@U_Range_checked_iterator_tag@0@@Z 004090c0 f i DisassemblerGui.obj
 0001:000080c0       ??$_Uninit_copy@PAVHardDisk@@PAV1@V?$allocator@VHardDisk@@@std@@@std@@YAPAVHardDisk@@PAV1@00AAV?$allocator@VHardDisk@@@0@U_Nonscalar_ptr_iterator_tag@0@U_Range_checked_iterator_tag@0@@Z 004090c0 f i DeviceNameResolver.obj
 0001:000080f0       ?AtlThrowImpl@ATL@@YGXJ@Z  004090f0 f i DisassemblerGui.obj
 0001:00008110       ?SetWindowPos@CWindow@ATL@@QAEHPAUHWND__@@PBUtagRECT@@I@Z 00409110 f i DisassemblerGui.obj
 0001:00008140       ?Init@CWndProcThunk@ATL@@QAEHP6GJPAUHWND__@@IIJ@ZPAX@Z 00409140 f i DisassemblerGui.obj
 0001:000081a0       ?DoDataExchange@DisassemblerGui@@QAEHHI@Z 004091a0 f i DisassemblerGui.obj
 0001:00008220       ?ProcessWindowMessage@DisassemblerGui@@UAEHPAUHWND__@@IIJAAJK@Z 00409220 f i DisassemblerGui.obj
 0001:00008420       ??0DisassemblerGui@@QAE@KPAVApiReader@@@Z 00409420 f   DisassemblerGui.obj
 0001:00008570       ??_GDisassemblerGui@@UAEPAXI@Z 00409570 f i DisassemblerGui.obj
 0001:00008570       ??_EDisassemblerGui@@UAEPAXI@Z 00409570 f i  CIL library: CIL module
 0001:000085a0       ??1?$CDialogResize@VDisassemblerGui@@@WTL@@QAE@XZ 004095a0 f i DisassemblerGui.obj
 0001:000085a0       ??1?$CDialogResize@VDumpMemoryGui@@@WTL@@QAE@XZ 004095a0 f i DumpMemoryGui.obj
 0001:000085a0       ??1?$CDialogResize@VMainGui@@@WTL@@QAE@XZ 004095a0 f i main.obj
 0001:000085a0       ??1?$CDialogResize@VDumpSectionGui@@@WTL@@QAE@XZ 004095a0 f i DumpSectionGui.obj
 0001:000085c0       ??1DisassemblerGui@@UAE@XZ 004095c0 f i DisassemblerGui.obj
 0001:000086d0       ?OnInitDialog@DisassemblerGui@@IAEHVCWindow@ATL@@J@Z 004096d0 f   DisassemblerGui.obj
 0001:00008780       ?OnContextMenu@DisassemblerGui@@IAEXVCWindow@ATL@@VCPoint@WTL@@@Z 00409780 f   DisassemblerGui.obj
 0001:00008970       ?OnNMCustomdraw@DisassemblerGui@@IAEJPAUtagNMHDR@@@Z 00409970 f   DisassemblerGui.obj
 0001:00008a20       ?OnDisassemble@DisassemblerGui@@IAEXIHVCWindow@ATL@@@Z 00409a20 f   DisassemblerGui.obj
 0001:00008a80       ?disassembleNewAddress@DisassemblerGui@@AAEXK@Z 00409a80 f   DisassemblerGui.obj
 0001:00008b30       ?OnDisassembleForward@DisassemblerGui@@IAEXIHVCWindow@ATL@@@Z 00409b30 f   DisassemblerGui.obj
 0001:00008bb0       ?OnDisassembleBack@DisassemblerGui@@IAEXIHVCWindow@ATL@@@Z 00409bb0 f   DisassemblerGui.obj
 0001:00008c50       ?addColumnsToDisassembler@DisassemblerGui@@IAEXAAV?$CListViewCtrlT@VCWindow@ATL@@@WTL@@@Z 00409c50 f   DisassemblerGui.obj
 0001:00008db0       ?displayDisassembly@DisassemblerGui@@IAE_NXZ 00409db0 f   DisassemblerGui.obj
 0001:00009030       ?copyToClipboard@DisassemblerGui@@IAEXPB_W@Z 0040a030 f   DisassemblerGui.obj
 0001:000090b0       ?toUpperCase@DisassemblerGui@@AAEXPA_W@Z 0040a0b0 f   DisassemblerGui.obj
 0001:00009110       ?followInstruction@DisassemblerGui@@AAEXH@Z 0040a110 f   DisassemblerGui.obj
 0001:000091a0       ?getDisassemblyComment@DisassemblerGui@@AAE_NI@Z 0040a1a0 f   DisassemblerGui.obj
 0001:000092a0       ?initAddressCommentList@DisassemblerGui@@AAEXXZ 0040a2a0 f   DisassemblerGui.obj
 0001:000093d0       ?addModuleAddressCommentEntry@DisassemblerGui@@AAEXKKPB_W@Z 0040a3d0 f   DisassemblerGui.obj
 0001:00009450       ?analyzeAddress@DisassemblerGui@@AAEXKPA_W@Z 0040a450 f   DisassemblerGui.obj
 0001:000096b0       ?GetDialogProc@?$CDialogImplBaseT@VCWindow@ATL@@@ATL@@UAEP6GHPAUHWND__@@IIJ@ZXZ 0040a6b0 f i DisassemblerGui.obj
 0001:000096c0       ?OnFinalMessage@?$CDialogImplBaseT@VCWindow@ATL@@@ATL@@UAEXPAUHWND__@@@Z 0040a6c0 f i DisassemblerGui.obj
 0001:000096c0       ?OnFinalMessage@?$CWindowImplBaseT@V?$CEditT@VCWindow@ATL@@@WTL@@V?$CWinTraits@$0FGAAAAAA@$0A@@ATL@@@ATL@@UAEXPAUHWND__@@@Z 0040a6c0 f i DisassemblerGui.obj
 0001:000096c0       ?OnFinalMessage@?$CWindowImplBaseT@V?$CTreeViewCtrlExT@VCWindow@ATL@@@WTL@@V?$CWinTraitsOR@$0CA@$0A@V?$CWinTraits@$0FGAAAAAA@$0A@@ATL@@@ATL@@@ATL@@UAEXPAUHWND__@@@Z 0040a6c0 f i MainGui.obj
 0001:000096d0       ?DlgResize_Init@?$CDialogResize@VDisassemblerGui@@@WTL@@QAEX_N0K@Z 0040a6d0 f i DisassemblerGui.obj
 0001:00009a30       ?ProcessWindowMessage@?$CDialogResize@VDisassemblerGui@@@WTL@@QAEHPAUHWND__@@IIJAAJK@Z 0040aa30 f i DisassemblerGui.obj
 0001:00009a90       ?push_back@?$vector@VDisassemblerAddressComment@@V?$allocator@VDisassemblerAddressComment@@@std@@@std@@QAEXABVDisassemblerAddressComment@@@Z 0040aa90 f i DisassemblerGui.obj
 0001:00009b40       ?GetItemText@?$CListViewCtrlT@VCWindow@ATL@@@WTL@@QBEHHHPA_WH@Z 0040ab40 f i DisassemblerGui.obj
 0001:00009b90       ?GetValue@?$CHexEditImpl@V?$CHexEdit@K@@KV?$CEditT@VCWindow@ATL@@@WTL@@V?$CWinTraits@$0FGAAAAAA@$0A@@ATL@@@@QBEKXZ 0040ab90 f i DisassemblerGui.obj
 0001:00009be0       ?SetValue@?$CHexEditImpl@V?$CHexEdit@K@@KV?$CEditT@VCWindow@ATL@@@WTL@@V?$CWinTraits@$0FGAAAAAA@$0A@@ATL@@@@QAEXK_N@Z 0040abe0 f i DisassemblerGui.obj
 0001:00009c30       ?ProcessWindowMessage@?$CHexEditImpl@V?$CHexEdit@K@@KV?$CEditT@VCWindow@ATL@@@WTL@@V?$CWinTraits@$0FGAAAAAA@$0A@@ATL@@@@UAEHPAUHWND__@@IIJAAJK@Z 0040ac30 f i DisassemblerGui.obj
 0001:00009c70       ?GetWindowProc@?$CWindowImplBaseT@V?$CEditT@VCWindow@ATL@@@WTL@@V?$CWinTraits@$0FGAAAAAA@$0A@@ATL@@@ATL@@UAEP6GJPAUHWND__@@IIJ@ZXZ 0040ac70 f i DisassemblerGui.obj
 0001:00009c70       ?GetWindowProc@?$CWindowImplBaseT@V?$CTreeViewCtrlExT@VCWindow@ATL@@@WTL@@V?$CWinTraitsOR@$0CA@$0A@V?$CWinTraits@$0FGAAAAAA@$0A@@ATL@@@ATL@@@ATL@@UAEP6GJPAUHWND__@@IIJ@ZXZ 0040ac70 f i MainGui.obj
 0001:00009c80       ??1?$CMenuT@$00@WTL@@QAE@XZ 0040ac80 f i DisassemblerGui.obj
 0001:00009ca0       ?GetSubMenu@?$CMenuT@$00@WTL@@QBE?AV?$CMenuT@$0A@@2@H@Z 0040aca0 f i DisassemblerGui.obj
 0001:00009cb0       ?OnSize@?$CDialogResize@VDisassemblerGui@@@WTL@@QAEJIIJAAH@Z 0040acb0 f i DisassemblerGui.obj
 0001:00009d10       ?Add@?$CSimpleArray@U_AtlDlgResizeData@?$CDialogResize@VDumpSectionGui@@@WTL@@V?$CSimpleArrayEqualHelper@U_AtlDlgResizeData@?$CDialogResize@VDumpSectionGui@@@WTL@@@ATL@@@ATL@@QAEHABU_AtlDlgResizeData@?$CDialogResize@VDumpSectionGui@@@WTL@@@Z 0040ad10 f i DumpSectionGui.obj
 0001:00009d10       ?Add@?$CSimpleArray@U_AtlDlgResizeData@?$CDialogResize@VDumpMemoryGui@@@WTL@@V?$CSimpleArrayEqualHelper@U_AtlDlgResizeData@?$CDialogResize@VDumpMemoryGui@@@WTL@@@ATL@@@ATL@@QAEHABU_AtlDlgResizeData@?$CDialogResize@VDumpMemoryGui@@@WTL@@@Z 0040ad10 f i DumpMemoryGui.obj
 0001:00009d10       ?Add@?$CSimpleArray@U_AtlDlgResizeData@?$CDialogResize@VPickDllGui@@@WTL@@V?$CSimpleArrayEqualHelper@U_AtlDlgResizeData@?$CDialogResize@VPickDllGui@@@WTL@@@ATL@@@ATL@@QAEHABU_AtlDlgResizeData@?$CDialogResize@VPickDllGui@@@WTL@@@Z 0040ad10 f i PickDllGui.obj
 0001:00009d10       ?Add@?$CSimpleArray@U_AtlDlgResizeData@?$CDialogResize@VPickApiGui@@@WTL@@V?$CSimpleArrayEqualHelper@U_AtlDlgResizeData@?$CDialogResize@VPickApiGui@@@WTL@@@ATL@@@ATL@@QAEHABU_AtlDlgResizeData@?$CDialogResize@VPickApiGui@@@WTL@@@Z 0040ad10 f i PickApiGui.obj
 0001:00009d10       ?Add@?$CSimpleArray@U_AtlDlgResizeData@?$CDialogResize@VDisassemblerGui@@@WTL@@V?$CSimpleArrayEqualHelper@U_AtlDlgResizeData@?$CDialogResize@VDisassemblerGui@@@WTL@@@ATL@@@ATL@@QAEHABU_AtlDlgResizeData@?$CDialogResize@VDisassemblerGui@@@WTL@@@Z 0040ad10 f i DisassemblerGui.obj
 0001:00009d10       ?Add@?$CSimpleArray@U_AtlDlgResizeData@?$CDialogResize@VMainGui@@@WTL@@V?$CSimpleArrayEqualHelper@U_AtlDlgResizeData@?$CDialogResize@VMainGui@@@WTL@@@ATL@@@ATL@@QAEHABU_AtlDlgResizeData@?$CDialogResize@VMainGui@@@WTL@@@Z 0040ad10 f i MainGui.obj
 0001:00009db0       ?_Ufill@?$vector@PAVApiInfo@@V?$allocator@PAVApiInfo@@@std@@@std@@IAEPAPAVApiInfo@@PAPAV3@IABQAV3@@Z 0040adb0 f i ApiReader.obj
 0001:00009db0       ?_Ufill@?$vector@KV?$allocator@K@std@@@std@@IAEPAKPAKIABK@Z 0040adb0 f i DisassemblerGui.obj
 0001:00009de0       ?insert@?$vector@VDisassemblerAddressComment@@V?$allocator@VDisassemblerAddressComment@@@std@@@std@@QAE?AV?$_Vector_iterator@VDisassemblerAddressComment@@V?$allocator@VDisassemblerAddressComment@@@std@@@2@V?$_Vector_const_iterator@VDisassemblerAddressComment@@V?$allocator@VDisassemblerAddressComment@@@std@@@2@ABVDisassemblerAddressComment@@@Z 0040ade0 f i DisassemblerGui.obj
 0001:00009eb0       ?SetItem@?$CListViewCtrlT@VCWindow@ATL@@@WTL@@QAEHHHIPB_WHIIJ@Z 0040aeb0 f i DisassemblerGui.obj
 0001:00009f20       ?InsertItem@?$CListViewCtrlT@VCWindow@ATL@@@WTL@@QAEHIHPB_WIIHJ@Z 0040af20 f i DisassemblerGui.obj
 0001:00009f80       ?_StringToNum@?$CHexEditImpl@V?$CHexEdit@K@@KV?$CEditT@VCWindow@ATL@@@WTL@@V?$CWinTraits@$0FGAAAAAA@$0A@@ATL@@@@QBEKQB_W@Z 0040af80 f i DisassemblerGui.obj
 0001:00009fe0       ?_NumToString@?$CHexEditImpl@V?$CHexEdit@K@@KV?$CEditT@VCWindow@ATL@@@WTL@@V?$CWinTraits@$0FGAAAAAA@$0A@@ATL@@@@QBEXKQA_W_N@Z 0040afe0 f i DisassemblerGui.obj
 0001:0000a070       ?_ProcessWindowMessage@?$CHexEditImpl@V?$CHexEdit@K@@KV?$CEditT@VCWindow@ATL@@@WTL@@V?$CWinTraits@$0FGAAAAAA@$0A@@ATL@@@@QAEHPAUHWND__@@IIJAAJK@Z 0040b070 f i DisassemblerGui.obj
 0001:0000a140       ?_FixTrackMenuPopupX@?$CMenuT@$0A@@WTL@@SAHHH@Z 0040b140 f i DisassemblerGui.obj
 0001:0000a1b0       ?DlgResize_UpdateLayout@?$CDialogResize@VDisassemblerGui@@@WTL@@QAEXHH@Z 0040b1b0 f i DisassemblerGui.obj
 0001:0000a3e0       ?_Insert_n@?$vector@VDisassemblerAddressComment@@V?$allocator@VDisassemblerAddressComment@@@std@@@std@@IAEXV?$_Vector_const_iterator@VDisassemblerAddressComment@@V?$allocator@VDisassemblerAddressComment@@@std@@@2@IABVDisassemblerAddressComment@@@Z 0040b3e0 f i DisassemblerGui.obj
 0001:0000a6a0       ?OnSetText@?$CHexEditImpl@V?$CHexEdit@K@@KV?$CEditT@VCWindow@ATL@@@WTL@@V?$CWinTraits@$0FGAAAAAA@$0A@@ATL@@@@QAEHPB_W@Z 0040b6a0 f i DisassemblerGui.obj
 0001:0000a6f0       ?OnPaste@?$CHexEditImpl@V?$CHexEdit@K@@KV?$CEditT@VCWindow@ATL@@@WTL@@V?$CWinTraits@$0FGAAAAAA@$0A@@ATL@@@@QAEXXZ 0040b6f0 f i DisassemblerGui.obj
 0001:0000a750       ?OnChar@?$CHexEditImpl@V?$CHexEdit@K@@KV?$CEditT@VCWindow@ATL@@@WTL@@V?$CWinTraits@$0FGAAAAAA@$0A@@ATL@@@@QAEXIII@Z 0040b750 f i DisassemblerGui.obj
 0001:0000a7b0       ?DlgResize_PositionControl@?$CDialogResize@VPickDllGui@@@WTL@@QAE_NHHAAUtagRECT@@AAU_AtlDlgResizeData@12@_NPAU412@@Z 0040b7b0 f i PickDllGui.obj
 0001:0000a7b0       ?DlgResize_PositionControl@?$CDialogResize@VDumpSectionGui@@@WTL@@QAE_NHHAAUtagRECT@@AAU_AtlDlgResizeData@12@_NPAU412@@Z 0040b7b0 f i DumpSectionGui.obj
 0001:0000a7b0       ?DlgResize_PositionControl@?$CDialogResize@VDumpMemoryGui@@@WTL@@QAE_NHHAAUtagRECT@@AAU_AtlDlgResizeData@12@_NPAU412@@Z 0040b7b0 f i DumpMemoryGui.obj
 0001:0000a7b0       ?DlgResize_PositionControl@?$CDialogResize@VPickApiGui@@@WTL@@QAE_NHHAAUtagRECT@@AAU_AtlDlgResizeData@12@_NPAU412@@Z 0040b7b0 f i PickApiGui.obj
 0001:0000a7b0       ?DlgResize_PositionControl@?$CDialogResize@VDisassemblerGui@@@WTL@@QAE_NHHAAUtagRECT@@AAU_AtlDlgResizeData@12@_NPAU412@@Z 0040b7b0 f i DisassemblerGui.obj
 0001:0000ab20       ?_IsValidString@?$CHexEditImpl@V?$CHexEdit@K@@KV?$CEditT@VCWindow@ATL@@@WTL@@V?$CWinTraits@$0FGAAAAAA@$0A@@ATL@@@@QBE_NQB_W@Z 0040bb20 f i DisassemblerGui.obj
 0001:0000ab80       ?_GetClipboardText@?$CHexEditImpl@V?$CHexEdit@K@@KV?$CEditT@VCWindow@ATL@@@WTL@@V?$CWinTraits@$0FGAAAAAA@$0A@@ATL@@@@QAE_NQA_W@Z 0040bb80 f i DisassemblerGui.obj
 0001:0000abf0       ?DialogProc@?$CDialogImplBaseT@VCWindow@ATL@@@ATL@@SGHPAUHWND__@@IIJ@Z 0040bbf0 f i DisassemblerGui.obj
 0001:0000acf0       ?WindowProc@?$CWindowImplBaseT@V?$CTreeViewCtrlExT@VCWindow@ATL@@@WTL@@V?$CWinTraitsOR@$0CA@$0A@V?$CWinTraits@$0FGAAAAAA@$0A@@ATL@@@ATL@@@ATL@@SGJPAUHWND__@@IIJ@Z 0040bcf0 f i MainGui.obj
 0001:0000acf0       ?WindowProc@?$CWindowImplBaseT@V?$CEditT@VCWindow@ATL@@@WTL@@V?$CWinTraits@$0FGAAAAAA@$0A@@ATL@@@ATL@@SGJPAUHWND__@@IIJ@Z 0040bcf0 f i DisassemblerGui.obj
 0001:0000ae10       ??$swprintf_s@$0BPE@@@YAHAAY0BPE@_WPB_WZZ 0040be10 f i DisassemblerGui.obj
 0001:0000ae30       ??$_Umove@PAVHardDisk@@@?$vector@VHardDisk@@V?$allocator@VHardDisk@@@std@@@std@@IAEPAVHardDisk@@PAV2@00@Z 0040be30 f i DeviceNameResolver.obj
 0001:0000ae30       ??$_Umove@PAVDisassemblerAddressComment@@@?$vector@VDisassemblerAddressComment@@V?$allocator@VDisassemblerAddressComment@@@std@@@std@@IAEPAVDisassemblerAddressComment@@PAV2@00@Z 0040be30 f i DisassemblerGui.obj
 0001:0000ae60       ??$_Sort@PAVDisassemblerAddressComment@@H@std@@YAXPAVDisassemblerAddressComment@@0H@Z 0040be60 f i DisassemblerGui.obj
 0001:0000afa0       ??$_Unguarded_partition@PAVDisassemblerAddressComment@@@std@@YA?AU?$pair@PAVDisassemblerAddressComment@@PAV1@@0@PAVDisassemblerAddressComment@@0@Z 0040bfa0 f i DisassemblerGui.obj
 0001:0000b300       ??$_Copy_backward_opt@PAVDisassemblerAddressComment@@PAV1@@std@@YAPAVDisassemblerAddressComment@@PAV1@00Urandom_access_iterator_tag@0@U_Nonscalar_ptr_iterator_tag@0@U_Range_checked_iterator_tag@0@@Z 0040c300 f i DisassemblerGui.obj
 0001:0000b300       ??$_Copy_backward_opt@PAVHardDisk@@PAV1@@std@@YAPAVHardDisk@@PAV1@00Urandom_access_iterator_tag@0@U_Nonscalar_ptr_iterator_tag@0@U_Range_checked_iterator_tag@0@@Z 0040c300 f i DeviceNameResolver.obj
 0001:0000b360       ??$_Median@PAVDisassemblerAddressComment@@@std@@YAXPAVDisassemblerAddressComment@@00@Z 0040c360 f i DisassemblerGui.obj
 0001:0000b4e0       ??$_Make_heap@PAVDisassemblerAddressComment@@HV1@@std@@YAXPAVDisassemblerAddressComment@@0PAH0@Z 0040c4e0 f i DisassemblerGui.obj
 0001:0000b560       ??$_Sort_heap@PAVDisassemblerAddressComment@@@std@@YAXPAVDisassemblerAddressComment@@0@Z 0040c560 f i DisassemblerGui.obj
 0001:0000b600       ??$_Insertion_sort1@PAVDisassemblerAddressComment@@V1@@std@@YAXPAVDisassemblerAddressComment@@00@Z 0040c600 f i DisassemblerGui.obj
 0001:0000b710       ??$swap@VDisassemblerAddressComment@@@std@@YAXAAVDisassemblerAddressComment@@0@Z 0040c710 f i DisassemblerGui.obj
 0001:0000b770       ??$_Adjust_heap@PAVDisassemblerAddressComment@@HV1@@std@@YAXPAVDisassemblerAddressComment@@HHV1@@Z 0040c770 f i DisassemblerGui.obj
 0001:0000b860       ??$_Push_heap@PAVDisassemblerAddressComment@@HV1@@std@@YAXPAVDisassemblerAddressComment@@HHV1@@Z 0040c860 f i DisassemblerGui.obj
 0001:0000b910       ??$_Pop_heap@PAVDisassemblerAddressComment@@HV1@@std@@YAXPAVDisassemblerAddressComment@@00V1@PAH@Z 0040c910 f i DisassemblerGui.obj
 0001:0000b990       ?dllInjection@DllInjection@@QAEPAUHINSTANCE__@@PAXPB_W@Z 0040c990 f   DllInjection.obj
 0001:0000ba50       ?unloadDllInProcess@DllInjection@@QAE_NPAXPAUHINSTANCE__@@@Z 0040ca50 f   DllInjection.obj
 0001:0000bac0       ?startRemoteThread@DllInjection@@QAEPAXPAX00@Z 0040cac0 f   DllInjection.obj
 0001:0000bb00       ?customCreateRemoteThread@DllInjection@@AAEPAXPAX00@Z 0040cb00 f   DllInjection.obj
 0001:0000bb60       ?injectPlugin@DllInjectionPlugin@@QAEXAAVPlugin@@AAV?$map@KVImportModuleThunk@@U?$less@K@std@@V?$allocator@U?$pair@$$CBKVImportModuleThunk@@@std@@@3@@std@@KK@Z 0040cb60 f   DllInjectionPlugin.obj
 0001:0000bc90       ?injectImprecPlugin@DllInjectionPlugin@@QAEXAAVPlugin@@AAV?$map@KVImportModuleThunk@@U?$less@K@std@@V?$allocator@U?$pair@$$CBKVImportModuleThunk@@@std@@@3@@std@@KK@Z 0040cc90 f   DllInjectionPlugin.obj
 0001:0000bdb0       ?createFileMapping@DllInjectionPlugin@@AAE_NK@Z 0040cdb0 f   DllInjectionPlugin.obj
 0001:0000be00       ?getNumberOfUnresolvedImports@DllInjectionPlugin@@AAEKAAV?$map@KVImportModuleThunk@@U?$less@K@std@@V?$allocator@U?$pair@$$CBKVImportModuleThunk@@@std@@@3@@std@@@Z 0040ce00 f   DllInjectionPlugin.obj
 0001:0000bee0       ?addUnresolvedImports@DllInjectionPlugin@@AAEXPAU_UNRESOLVED_IMPORT@@AAV?$map@KVImportModuleThunk@@U?$less@K@std@@V?$allocator@U?$pair@$$CBKVImportModuleThunk@@@std@@@3@@std@@@Z 0040cee0 f   DllInjectionPlugin.obj
 0001:0000c000       ?handlePluginResults@DllInjectionPlugin@@AAEXPAU_SCYLLA_EXCHANGE@@AAV?$map@KVImportModuleThunk@@U?$less@K@std@@V?$allocator@U?$pair@$$CBKVImportModuleThunk@@@std@@@3@@std@@@Z 0040d000 f   DllInjectionPlugin.obj
 0001:0000c0d0       ?updateImportsWithPluginResult@DllInjectionPlugin@@AAEXPAU_UNRESOLVED_IMPORT@@AAV?$map@KVImportModuleThunk@@U?$less@K@std@@V?$allocator@U?$pair@$$CBKVImportModuleThunk@@@std@@@3@@std@@@Z 0040d0d0 f   DllInjectionPlugin.obj
 0001:0000c2d0       ?OnInitDialog@DonateGui@@IAEHVCWindow@ATL@@J@Z 0040d2d0 f   DonateGui.obj
 0001:0000c330       ?CopyBtcAddress@DonateGui@@IAEXIHVCWindow@ATL@@@Z 0040d330 f   DonateGui.obj
 0001:0000c3a0       ?DoDataExchange@DumpMemoryGui@@QAEHHI@Z 0040d3a0 f i DumpMemoryGui.obj
 0001:0000c4b0       ?ProcessWindowMessage@DumpMemoryGui@@UAEHPAUHWND__@@IIJAAJK@Z 0040d4b0 f i DumpMemoryGui.obj
 0001:0000c630       ??0DumpMemoryGui@@QAE@XZ   0040d630 f   DumpMemoryGui.obj
 0001:0000c740       ??_GDumpMemoryGui@@UAEPAXI@Z 0040d740 f i DumpMemoryGui.obj
 0001:0000c740       ??_EDumpMemoryGui@@UAEPAXI@Z 0040d740 f i  CIL library: CIL module
 0001:0000c770       ??1?$CHexEdit@K@@UAE@XZ    0040d770 f i DisassemblerGui.obj
 0001:0000c770       ??1?$CDialogImpl@VDumpMemoryGui@@VCWindow@ATL@@@ATL@@UAE@XZ 0040d770 f i DumpMemoryGui.obj
 0001:0000c770       ??1?$CDialogImpl@VDisassemblerGui@@VCWindow@ATL@@@ATL@@UAE@XZ 0040d770 f i DisassemblerGui.obj
 0001:0000c770       ??1?$CDialogImpl@VDumpSectionGui@@VCWindow@ATL@@@ATL@@UAE@XZ 0040d770 f i DumpSectionGui.obj
 0001:0000c770       ??1AboutGui@@UAE@XZ        0040d770 f i MainGui.obj
 0001:0000c770       ??1DonateGui@@UAE@XZ       0040d770 f i MainGui.obj
 0001:0000c770       ??1OptionsGui@@UAE@XZ      0040d770 f i MainGui.obj
 0001:0000c770       ??1?$CDialogImpl@VMainGui@@VCWindow@ATL@@@ATL@@UAE@XZ 0040d770 f i main.obj
 0001:0000c780       ??1DumpMemoryGui@@UAE@XZ   0040d780 f   DumpMemoryGui.obj
 0001:0000c870       ??_GDeviceNameResolver@@QAEPAXI@Z 0040d870 f i DumpMemoryGui.obj
 0001:0000c8c0       ?OnInitDialog@DumpMemoryGui@@IAEHVCWindow@ATL@@J@Z 0040d8c0 f   DumpMemoryGui.obj
 0001:0000c9a0       ?addColumnsToMemoryList@DumpMemoryGui@@IAEXAAV?$CListViewCtrlT@VCWindow@ATL@@@WTL@@@Z 0040d9a0 f   DumpMemoryGui.obj
 0001:0000cbd0       ?displayMemoryList@DumpMemoryGui@@IAEXAAV?$CListViewCtrlT@VCWindow@ATL@@@WTL@@@Z 0040dbd0 f   DumpMemoryGui.obj
 0001:0000d2d0       ?getMemoryStateString@DumpMemoryGui@@CAPB_WK@Z 0040e2d0 f   DumpMemoryGui.obj
 0001:0000d300       ?getMemoryProtectionString@DumpMemoryGui@@CAPA_WK@Z 0040e300 f   DumpMemoryGui.obj
 0001:0000d4d0       ?OnListMemoryColumnClicked@DumpMemoryGui@@IAEJPAUtagNMHDR@@@Z 0040e4d0 f   DumpMemoryGui.obj
 0001:0000d530       ?OnListMemoryClick@DumpMemoryGui@@IAEJPAUtagNMHDR@@@Z 0040e530 f   DumpMemoryGui.obj
 0001:0000d5b0       ?OnOK@DumpMemoryGui@@IAEXIHVCWindow@ATL@@@Z 0040e5b0 f   DumpMemoryGui.obj
 0001:0000d6a0       ?updateAddressAndSize@DumpMemoryGui@@AAEXPAVMemory@@@Z 0040e6a0 f   DumpMemoryGui.obj
 0001:0000d720       ?listviewCompareFunc@DumpMemoryGui@@KGHJJJ@Z 0040e720 f   DumpMemoryGui.obj
 0001:0000d830       ?getMemoryList@DumpMemoryGui@@AAEXXZ 0040e830 f   DumpMemoryGui.obj
 0001:0000da50       ?setSectionName@DumpMemoryGui@@AAEXKKPB_W@Z 0040ea50 f   DumpMemoryGui.obj
 0001:0000dd30       ?setModuleName@DumpMemoryGui@@AAEXKPB_W@Z 0040ed30 f   DumpMemoryGui.obj
 0001:0000de60       ?setAllSectionNames@DumpMemoryGui@@AAEXKPA_W@Z 0040ee60 f   DumpMemoryGui.obj
 0001:0000dfa0       ?dumpMemory@DumpMemoryGui@@AAE_NXZ 0040efa0 f   DumpMemoryGui.obj
 0001:0000e090       ?getMappedFilename@DumpMemoryGui@@AAE_NPAVMemory@@@Z 0040f090 f   DumpMemoryGui.obj
 0001:0000e140       ?DlgResize_Init@?$CDialogResize@VDumpMemoryGui@@@WTL@@QAEX_N0K@Z 0040f140 f i DumpMemoryGui.obj
 0001:0000e4a0       ?GetItemData@?$CListViewCtrlT@VCWindow@ATL@@@WTL@@QBEKH@Z 0040f4a0 f i DumpMemoryGui.obj
 0001:0000e4f0       ?reserve@?$vector@VMemory@@V?$allocator@VMemory@@@std@@@std@@QAEXI@Z 0040f4f0 f i DumpMemoryGui.obj
 0001:0000e600       ?push_back@?$vector@VMemory@@V?$allocator@VMemory@@@std@@@std@@QAEXABVMemory@@@Z 0040f600 f i DumpMemoryGui.obj
 0001:0000e6a0       ?clear@?$vector@VMemory@@V?$allocator@VMemory@@@std@@@std@@QAEXXZ 0040f6a0 f i DumpMemoryGui.obj
 0001:0000e6f0       ??A?$vector@VPeFileSection@@V?$allocator@VPeFileSection@@@std@@@std@@QAEAAVPeFileSection@@I@Z 0040f6f0 f i DumpMemoryGui.obj
 0001:0000e720       ?DDX_Check@?$CWinDataExchange@VDumpMemoryGui@@@WTL@@QAEXIAAHH@Z 0040f720 f i DumpMemoryGui.obj
 0001:0000e780       ?insert@?$vector@VMemory@@V?$allocator@VMemory@@@std@@@std@@QAE?AV?$_Vector_iterator@VMemory@@V?$allocator@VMemory@@@std@@@2@V?$_Vector_const_iterator@VMemory@@V?$allocator@VMemory@@@std@@@2@ABVMemory@@@Z 0040f780 f i DumpMemoryGui.obj
 0001:0000e850       ?erase@?$vector@VMemory@@V?$allocator@VMemory@@@std@@@std@@QAE?AV?$_Vector_iterator@VMemory@@V?$allocator@VMemory@@@std@@@2@V?$_Vector_const_iterator@VMemory@@V?$allocator@VMemory@@@std@@@2@0@Z 0040f850 f i DumpMemoryGui.obj
 0001:0000e8e0       ?_Ufill@?$vector@VMemory@@V?$allocator@VMemory@@@std@@@std@@IAEPAVMemory@@PAV3@IABV3@@Z 0040f8e0 f i DumpMemoryGui.obj
 0001:0000e910       ?allocate@?$allocator@VMemory@@@std@@QAEPAVMemory@@I@Z 0040f910 f i DumpMemoryGui.obj
 0001:0000e970       ?_Insert_n@?$vector@VMemory@@V?$allocator@VMemory@@@std@@@std@@IAEXV?$_Vector_const_iterator@VMemory@@V?$allocator@VMemory@@@std@@@2@IABVMemory@@@Z 0040f970 f i DumpMemoryGui.obj
 0001:0000ec30       ??$swprintf_s@$0BE@@@YAHAAY0BE@_WPB_WZZ 0040fc30 f i DumpMemoryGui.obj
 0001:0000ec50       ??$swprintf_s@$0CH@@@YAHAAY0CH@_WPB_WZZ 0040fc50 f i DumpMemoryGui.obj
 0001:0000ec70       ??$_Umove@PAVMemory@@@?$vector@VMemory@@V?$allocator@VMemory@@@std@@@std@@IAEPAVMemory@@PAV2@00@Z 0040fc70 f i DumpMemoryGui.obj
 0001:0000eca0       ??$fill@PAVMemory@@V1@@std@@YAXPAVMemory@@0ABV1@@Z 0040fca0 f i DumpMemoryGui.obj
 0001:0000ecd0       ??$_Copy_opt@PAVMemory@@PAV1@@std@@YAPAVMemory@@PAV1@00Urandom_access_iterator_tag@0@U_Nonscalar_ptr_iterator_tag@0@U_Range_checked_iterator_tag@0@@Z 0040fcd0 f i DumpMemoryGui.obj
 0001:0000ed30       ??$_Uninit_fill_n@PAVMemory@@IV1@V?$allocator@VMemory@@@std@@@std@@YAXPAVMemory@@IABV1@AAV?$allocator@VMemory@@@0@U_Nonscalar_ptr_iterator_tag@0@U_Range_checked_iterator_tag@0@@Z 0040fd30 f i DumpMemoryGui.obj
 0001:0000ed60       ??$_Copy_backward_opt@PAVMemory@@PAV1@@std@@YAPAVMemory@@PAV1@00Urandom_access_iterator_tag@0@U_Nonscalar_ptr_iterator_tag@0@U_Range_checked_iterator_tag@0@@Z 0040fd60 f i DumpMemoryGui.obj
 0001:0000edc0       ??$_Uninit_copy@PAVMemory@@PAV1@V?$allocator@VMemory@@@std@@@std@@YAPAVMemory@@PAV1@00AAV?$allocator@VMemory@@@0@U_Nonscalar_ptr_iterator_tag@0@U_Range_checked_iterator_tag@0@@Z 0040fdc0 f i DumpMemoryGui.obj
 0001:0000edf0       ?DoDataExchange@DumpSectionGui@@QAEHHI@Z 0040fdf0 f i DumpSectionGui.obj
 0001:0000ee70       ?ProcessWindowMessage@DumpSectionGui@@UAEHPAUHWND__@@IIJAAJK@Z 0040fe70 f i DumpSectionGui.obj
 0001:0000f0f0       ??0DumpSectionGui@@QAE@XZ  004100f0 f   DumpSectionGui.obj
 0001:0000f1b0       ??_EDumpSectionGui@@UAEPAXI@Z 004101b0 f i  CIL library: CIL module
 0001:0000f1b0       ??_GDumpSectionGui@@UAEPAXI@Z 004101b0 f i DumpSectionGui.obj
 0001:0000f1e0       ??1DumpSectionGui@@UAE@XZ  004101e0 f   DumpSectionGui.obj
 0001:0000f2a0       ?OnInitDialog@DumpSectionGui@@AAEHVCWindow@ATL@@J@Z 004102a0 f   DumpSectionGui.obj
 0001:0000f300       ?OnListSectionColumnClicked@DumpSectionGui@@AAEJPAUtagNMHDR@@@Z 00410300 f   DumpSectionGui.obj
 0001:0000f360       ?OnListDoubleClick@DumpSectionGui@@AAEJPAUtagNMHDR@@@Z 00410360 f   DumpSectionGui.obj
 0001:0000f4f0       ?listviewCompareFunc@DumpSectionGui@@CGHJJJ@Z 004104f0 f   DumpSectionGui.obj
 0001:0000f5a0       ?addColumnsToSectionList@DumpSectionGui@@AAEXAAV?$CListViewCtrlT@VCWindow@ATL@@@WTL@@@Z 004105a0 f   DumpSectionGui.obj
 0001:0000f750       ?displaySectionList@DumpSectionGui@@AAEXAAV?$CListViewCtrlT@VCWindow@ATL@@@WTL@@@Z 00410750 f   DumpSectionGui.obj
 0001:0000fc70       ?OnNMCustomdraw@DumpSectionGui@@AAEJPAUtagNMHDR@@@Z 00410c70 f   DumpSectionGui.obj
 0001:0000fd00       ?getAllSectionsFromFile@DumpSectionGui@@AAEXXZ 00410d00 f   DumpSectionGui.obj
 0001:0000ffa0       ?updateEditedItem@DumpSectionGui@@AAEXXZ 00410fa0 f   DumpSectionGui.obj
 0001:00010030       ?updateCheckState@DumpSectionGui@@AAEXXZ 00411030 f   DumpSectionGui.obj
 0001:000100f0       ?selectOrDeselectAll@DumpSectionGui@@AAEXXZ 004110f0 f   DumpSectionGui.obj
 0001:000101b0       ?DlgResize_Init@?$CDialogResize@VDumpSectionGui@@@WTL@@QAEX_N0K@Z 004111b0 f i DumpSectionGui.obj
 0001:00010510       ??0?$vector@VMemory@@V?$allocator@VMemory@@@std@@@std@@QAE@XZ 00411510 f i DumpMemoryGui.obj
 0001:00010510       ??0?$vector@U_List_position@?$_Hash@V?$_Hmap_traits@KPAVApiInfo@@V?$hash_compare@KU?$less@K@std@@@stdext@@V?$allocator@U?$pair@$$CBKPAVApiInfo@@@std@@@std@@$00@stdext@@@stdext@@V?$allocator@U_List_position@?$_Hash@V?$_Hmap_traits@KPAVApiInfo@@V?$hash_compare@KU?$less@K@std@@@stdext@@V?$allocator@U?$pair@$$CBKPAVApiInfo@@@std@@@std@@$00@stdext@@@stdext@@@std@@@std@@QAE@ABV?$allocator@U_List_position@?$_Hash@V?$_Hmap_traits@KPAVApiInfo@@V?$hash_compare@KU?$less@K@std@@@stdext@@V?$allocator@U?$pair@$$CBKPAVApiInfo@@@std@@@std@@$00@stdext@@@stdext@@@1@@Z 00411510 f i ApiReader.obj
 0001:00010510       ??0?$vector@VPeSection@@V?$allocator@VPeSection@@@std@@@std@@QAE@XZ 00411510 f i DumpSectionGui.obj
 0001:00010510       ??0?$vector@PAVApiInfo@@V?$allocator@PAVApiInfo@@@std@@@std@@QAE@XZ 00411510 f i PickApiGui.obj
 0001:00010510       ??0?$vector@KV?$allocator@K@std@@@std@@QAE@XZ 00411510 f i DisassemblerGui.obj
 0001:00010510       ??0?$vector@VPeFileSection@@V?$allocator@VPeFileSection@@@std@@@std@@QAE@XZ 00411510 f i PeParser.obj
 0001:00010510       ??0?$vector@VPlugin@@V?$allocator@VPlugin@@@std@@@std@@QAE@XZ 00411510 f i Scylla.obj
 0001:00010510       ??0?$vector@VDisassemblerAddressComment@@V?$allocator@VDisassemblerAddressComment@@@std@@@std@@QAE@XZ 00411510 f i DisassemblerGui.obj
 0001:00010510       ??0?$vector@VHardDisk@@V?$allocator@VHardDisk@@@std@@@std@@QAE@XZ 00411510 f i DeviceNameResolver.obj
 0001:00010510       ??0?$vector@U_List_position@?$_Hash@V?$_Hmap_traits@PAU_TREEITEM@@UTreeItemData@ImportsHandling@@V?$hash_compare@PAU_TREEITEM@@U?$less@PAU_TREEITEM@@@std@@@stdext@@V?$allocator@U?$pair@QAU_TREEITEM@@UTreeItemData@ImportsHandling@@@std@@@std@@$0A@@stdext@@@stdext@@V?$allocator@U_List_position@?$_Hash@V?$_Hmap_traits@PAU_TREEITEM@@UTreeItemData@ImportsHandling@@V?$hash_compare@PAU_TREEITEM@@U?$less@PAU_TREEITEM@@@std@@@stdext@@V?$allocator@U?$pair@QAU_TREEITEM@@UTreeItemData@ImportsHandling@@@std@@@std@@$0A@@stdext@@@stdext@@@std@@@std@@QAE@ABV?$allocator@U_List_position@?$_Hash@V?$_Hmap_traits@PAU_TREEITEM@@UTreeItemData@ImportsHandling@@V?$hash_compare@PAU_TREEITEM@@U?$less@PAU_TREEITEM@@@std@@@stdext@@V?$allocator@U?$pair@QAU_TREEITEM@@UTreeItemData@ImportsHandling@@@std@@@std@@$0A@@stdext@@@stdext@@@1@@Z 00411510 f i ImportsHandling.obj
 0001:00010510       ??0?$vector@VIATReference@@V?$allocator@VIATReference@@@std@@@std@@QAE@XZ 00411510 f i MainGui.obj
 0001:00010570       ?reserve@?$vector@VPeSection@@V?$allocator@VPeSection@@@std@@@std@@QAEXI@Z 00411570 f i DumpSectionGui.obj
 0001:00010670       ?push_back@?$vector@VPeSection@@V?$allocator@VPeSection@@@std@@@std@@QAEXABVPeSection@@@Z 00411670 f i DumpSectionGui.obj
 0001:00010710       ?clear@?$vector@VPeSection@@V?$allocator@VPeSection@@@std@@@std@@QAEXXZ 00411710 f i DumpSectionGui.obj
 0001:00010760       ?insert@?$vector@VPeSection@@V?$allocator@VPeSection@@@std@@@std@@QAE?AV?$_Vector_iterator@VPeSection@@V?$allocator@VPeSection@@@std@@@2@V?$_Vector_const_iterator@VPeSection@@V?$allocator@VPeSection@@@std@@@2@ABVPeSection@@@Z 00411760 f i DumpSectionGui.obj
 0001:00010830       ?erase@?$vector@VPeSection@@V?$allocator@VPeSection@@@std@@@std@@QAE?AV?$_Vector_iterator@VPeSection@@V?$allocator@VPeSection@@@std@@@2@V?$_Vector_const_iterator@VPeSection@@V?$allocator@VPeSection@@@std@@@2@0@Z 00411830 f i DumpSectionGui.obj
 0001:000108c0       ?_Ufill@?$vector@VPeSection@@V?$allocator@VPeSection@@@std@@@std@@IAEPAVPeSection@@PAV3@IABV3@@Z 004118c0 f i DumpSectionGui.obj
 0001:000108f0       ?allocate@?$allocator@VPeSection@@@std@@QAEPAVPeSection@@I@Z 004118f0 f i DumpSectionGui.obj
 0001:00010950       ?_Insert_n@?$vector@VPeSection@@V?$allocator@VPeSection@@@std@@@std@@IAEXV?$_Vector_const_iterator@VPeSection@@V?$allocator@VPeSection@@@std@@@2@IABVPeSection@@@Z 00411950 f i DumpSectionGui.obj
 0001:00010bd0       ??$_Umove@PAVPeSection@@@?$vector@VPeSection@@V?$allocator@VPeSection@@@std@@@std@@IAEPAVPeSection@@PAV2@00@Z 00411bd0 f i DumpSectionGui.obj
 0001:00010c00       ??$_Copy_opt@PAVPeSection@@PAV1@@std@@YAPAVPeSection@@PAV1@00Urandom_access_iterator_tag@0@U_Nonscalar_ptr_iterator_tag@0@U_Range_checked_iterator_tag@0@@Z 00411c00 f i DumpSectionGui.obj
 0001:00010c50       ??$_Uninit_fill_n@PAVPeSection@@IV1@V?$allocator@VPeSection@@@std@@@std@@YAXPAVPeSection@@IABV1@AAV?$allocator@VPeSection@@@0@U_Nonscalar_ptr_iterator_tag@0@U_Range_checked_iterator_tag@0@@Z 00411c50 f i DumpSectionGui.obj
 0001:00010c70       ??$_Copy_backward_opt@PAVPeSection@@PAV1@@std@@YAPAVPeSection@@PAV1@00Urandom_access_iterator_tag@0@U_Nonscalar_ptr_iterator_tag@0@U_Range_checked_iterator_tag@0@@Z 00411c70 f i DumpSectionGui.obj
 0001:00010cd0       ??$_Uninit_copy@PAVPeSection@@PAV1@V?$allocator@VPeSection@@@std@@@std@@YAPAVPeSection@@PAV1@00AAV?$allocator@VPeSection@@@0@U_Nonscalar_ptr_iterator_tag@0@U_Range_checked_iterator_tag@0@@Z 00411cd0 f i DumpSectionGui.obj
 0001:00010d00       ??0ProcessLister@@QAE@XZ   00411d00 f i FunctionExport.obj
 0001:00010d90       ??1ProcessLister@@QAE@XZ   00411d90 f i FunctionExport.obj
 0001:00010e10       ??0ImportRebuilder@@QAE@PB_W@Z 00411e10 f i FunctionExport.obj
 0001:00010e50       ??1?$map@KVImportModuleThunk@@U?$less@K@std@@V?$allocator@U?$pair@$$CBKVImportModuleThunk@@@std@@@3@@std@@QAE@XZ 00411e50 f i FunctionExport.obj
 0001:00010ea0       ??1ImportRebuilder@@QAE@XZ 00411ea0 f i FunctionExport.obj
 0001:00010eb0       ??0?$vector@VProcess@@V?$allocator@VProcess@@@std@@@std@@QAE@XZ 00411eb0 f i FunctionExport.obj
 0001:00010f20       ??1?$vector@VProcess@@V?$allocator@VProcess@@@std@@@std@@QAE@XZ 00411f20 f i FunctionExport.obj
 0001:00010f60       ?clear@?$vector@VProcess@@V?$allocator@VProcess@@@std@@@std@@QAEXXZ 00411f60 f i FunctionExport.obj
 0001:00010fc0       ??1?$_Vector_val@VProcess@@V?$allocator@VProcess@@@std@@@std@@QAE@XZ 00411fc0 f i FunctionExport.obj
 0001:00010fd0       ?erase@?$vector@VProcess@@V?$allocator@VProcess@@@std@@@std@@QAE?AV?$_Vector_iterator@VProcess@@V?$allocator@VProcess@@@std@@@2@V?$_Vector_const_iterator@VProcess@@V?$allocator@VProcess@@@std@@@2@0@Z 00411fd0 f i FunctionExport.obj
 0001:00011070       ??0?$_Tree@V?$_Tmap_traits@KVImportModuleThunk@@U?$less@K@std@@V?$allocator@U?$pair@$$CBKVImportModuleThunk@@@std@@@3@$0A@@std@@@std@@QAE@ABU?$less@K@1@ABV?$allocator@U?$pair@$$CBKVImportModuleThunk@@@std@@@1@@Z 00412070 f i FunctionExport.obj
 0001:000110f0       ?_Tidy@?$_Tree@V?$_Tmap_traits@KVImportModuleThunk@@U?$less@K@std@@V?$allocator@U?$pair@$$CBKVImportModuleThunk@@@std@@@3@$0A@@std@@@std@@IAEXXZ 004120f0 f i FunctionExport.obj
 0001:00011130       ?_Xlen@?$vector@U_List_position@?$_Hash@V?$_Hmap_traits@KPAVApiInfo@@V?$hash_compare@KU?$less@K@std@@@stdext@@V?$allocator@U?$pair@$$CBKPAVApiInfo@@@std@@@std@@$00@stdext@@@stdext@@V?$allocator@U_List_position@?$_Hash@V?$_Hmap_traits@KPAVApiInfo@@V?$hash_compare@KU?$less@K@std@@@stdext@@V?$allocator@U?$pair@$$CBKPAVApiInfo@@@std@@@std@@$00@stdext@@@stdext@@@std@@@std@@KAXXZ 00412130 f i ApiReader.obj
 0001:00011130       ?_Xlen@?$vector@VPlugin@@V?$allocator@VPlugin@@@std@@@std@@KAXXZ 00412130 f i PluginLoader.obj
 0001:00011130       ?_Xlen@?$vector@VProcess@@V?$allocator@VProcess@@@std@@@std@@KAXXZ 00412130 f i FunctionExport.obj
 0001:00011130       ?_Xlen@?$vector@VModuleInfo@@V?$allocator@VModuleInfo@@@std@@@std@@KAXXZ 00412130 f i ProcessAccessHelp.obj
 0001:00011130       ?_Xlen@?$vector@VHardDisk@@V?$allocator@VHardDisk@@@std@@@std@@KAXXZ 00412130 f i DeviceNameResolver.obj
 0001:000111b0       ?allocate@?$allocator@VProcess@@@std@@QAEPAVProcess@@I@Z 004121b0 f i FunctionExport.obj
 0001:00011210       ?erase@?$_Tree@V?$_Tmap_traits@KVImportModuleThunk@@U?$less@K@std@@V?$allocator@U?$pair@$$CBKVImportModuleThunk@@@std@@@3@$0A@@std@@@std@@QAE?AViterator@12@Vconst_iterator@12@0@Z 00412210 f i FunctionExport.obj
 0001:000112e0       ?erase@?$_Tree@V?$_Tmap_traits@KVImportModuleThunk@@U?$less@K@std@@V?$allocator@U?$pair@$$CBKVImportModuleThunk@@@std@@@3@$0A@@std@@@std@@QAE?AViterator@12@Vconst_iterator@12@@Z 004122e0 f i FunctionExport.obj
 0001:00011660       ?_Buynode@?$_Tree@V?$_Tmap_traits@KVImportModuleThunk@@U?$less@K@std@@V?$allocator@U?$pair@$$CBKVImportModuleThunk@@@std@@@3@$0A@@std@@@std@@IAEPAU_Node@?$_Tree_nod@V?$_Tmap_traits@KVImportModuleThunk@@U?$less@K@std@@V?$allocator@U?$pair@$$CBKVImportModuleThunk@@@std@@@3@$0A@@std@@@2@XZ 00412660 f i FunctionExport.obj
 0001:000116a0       ??$_Copy_opt@PAVProcess@@PAV1@@std@@YAPAVProcess@@PAV1@00Urandom_access_iterator_tag@0@U_Nonscalar_ptr_iterator_tag@0@U_Range_checked_iterator_tag@0@@Z 004126a0 f i FunctionExport.obj
 0001:00011700       ?numberOfFoundUniqueDirectImports@IATReferenceScan@@QAEHXZ 00412700 f   IATReferenceScan.obj
 0001:00011800       ??1?$set@KU?$less@K@std@@V?$allocator@K@2@@std@@QAE@XZ 00412800 f i IATReferenceScan.obj
 0001:00011850       ?numberOfDirectImportApisNotInIat@IATReferenceScan@@QAEHXZ 00412850 f   IATReferenceScan.obj
 0001:00011950       ?startScan@IATReferenceScan@@QAEXKKKK@Z 00412950 f   IATReferenceScan.obj
 0001:00011a80       ?patchDirectImportsMemory@IATReferenceScan@@QAEX_N@Z 00412a80 f   IATReferenceScan.obj
 0001:00011b10       ?scanMemoryPage@IATReferenceScan@@AAEXPAXK@Z 00412b10 f   IATReferenceScan.obj
 0001:00011cf0       ?analyzeInstruction@IATReferenceScan@@AAEXPAU_DInst@@@Z 00412cf0 f   IATReferenceScan.obj
 0001:00011db0       ?findNormalIatReference@IATReferenceScan@@AAEXPAU_DInst@@@Z 00412db0 f   IATReferenceScan.obj
 0001:00011e50       ?patchDirectImportInMemory@IATReferenceScan@@AAEXPAVIATReference@@@Z 00412e50 f   IATReferenceScan.obj
 0001:00011ee0       ?lookUpIatForPointer@IATReferenceScan@@AAEKK@Z 00412ee0 f   IATReferenceScan.obj
 0001:00011f80       ?patchNewIat@IATReferenceScan@@QAEXKKPAVPeParser@@@Z 00412f80 f   IATReferenceScan.obj
 0001:000120f0       ?printDirectImportLog@IATReferenceScan@@QAEXXZ 004130f0 f   IATReferenceScan.obj
 0001:00012280       ?findDirectIatReferenceCallJmp@IATReferenceScan@@AAEXPAU_DInst@@@Z 00413280 f   IATReferenceScan.obj
 0001:000122e0       ?checkMemoryRangeAndAddToList@IATReferenceScan@@AAEXPAVIATReference@@PAU_DInst@@@Z 004132e0 f   IATReferenceScan.obj
 0001:00012340       ?patchDirectJumpTableEntry@IATReferenceScan@@AAEXKKKPAVPeParser@@PAEK@Z 00413340 f   IATReferenceScan.obj
 0001:000125a0       ?patchDirectJumpTable@IATReferenceScan@@QAEXKKPAVPeParser@@PAEK@Z 004135a0 f   IATReferenceScan.obj
 0001:00012800       ?patchDirectImportInDump32@IATReferenceScan@@AAEXHHKPAEK_NKK@Z 00413800 f   IATReferenceScan.obj
 0001:00012850       ?addAdditionalApisToList@IATReferenceScan@@QAEKXZ 00413850 f   IATReferenceScan.obj
 0001:00012b30       ?reserve@?$vector@VIATReference@@V?$allocator@VIATReference@@@std@@@std@@QAEXI@Z 00413b30 f i IATReferenceScan.obj
 0001:00012c50       ?push_back@?$vector@VIATReference@@V?$allocator@VIATReference@@@std@@@std@@QAEXABVIATReference@@@Z 00413c50 f i IATReferenceScan.obj
 0001:00012cf0       ?insert@?$_Tree@V?$_Tset_traits@KU?$less@K@std@@V?$allocator@K@2@$0A@@std@@@std@@QAE?AU?$pair@Viterator@?$_Tree@V?$_Tset_traits@KU?$less@K@std@@V?$allocator@K@2@$0A@@std@@@std@@_N@2@ABK@Z 00413cf0 f i IATReferenceScan.obj
 0001:00012de0       ?insert@?$vector@VIATReference@@V?$allocator@VIATReference@@@std@@@std@@QAE?AV?$_Vector_iterator@VIATReference@@V?$allocator@VIATReference@@@std@@@2@V?$_Vector_const_iterator@VIATReference@@V?$allocator@VIATReference@@@std@@@2@ABVIATReference@@@Z 00413de0 f i IATReferenceScan.obj
 0001:00012eb0       ?erase@?$vector@VIATReference@@V?$allocator@VIATReference@@@std@@@std@@QAE?AV?$_Vector_iterator@VIATReference@@V?$allocator@VIATReference@@@std@@@2@V?$_Vector_const_iterator@VIATReference@@V?$allocator@VIATReference@@@std@@@2@0@Z 00413eb0 f i IATReferenceScan.obj
 0001:00012f40       ?_Ufill@?$vector@VIATReference@@V?$allocator@VIATReference@@@std@@@std@@IAEPAVIATReference@@PAV3@IABV3@@Z 00413f40 f i IATReferenceScan.obj
 0001:00012f70       ?allocate@?$allocator@VIATReference@@@std@@QAEPAVIATReference@@I@Z 00413f70 f i IATReferenceScan.obj
 0001:00012fd0       ??0?$_Tree@V?$_Tset_traits@KU?$less@K@std@@V?$allocator@K@2@$0A@@std@@@std@@QAE@ABU?$less@K@1@ABV?$allocator@K@1@@Z 00413fd0 f i IATReferenceScan.obj
 0001:00013050       ?_Insert@?$_Tree@V?$_Tset_traits@KU?$less@K@std@@V?$allocator@K@2@$0A@@std@@@std@@IAE?AViterator@12@_NPAU_Node@?$_Tree_nod@V?$_Tset_traits@KU?$less@K@std@@V?$allocator@K@2@$0A@@std@@@2@ABK@Z 00414050 f i IATReferenceScan.obj
 0001:00013280       ?_Tidy@?$_Tree@V?$_Tset_traits@KU?$less@K@std@@V?$allocator@K@2@$0A@@std@@@std@@IAEXXZ 00414280 f i IATReferenceScan.obj
 0001:000132c0       ?_Insert_n@?$vector@VIATReference@@V?$allocator@VIATReference@@@std@@@std@@IAEXV?$_Vector_const_iterator@VIATReference@@V?$allocator@VIATReference@@@std@@@2@IABVIATReference@@@Z 004142c0 f i IATReferenceScan.obj
 0001:00013510       ?erase@?$_Tree@V?$_Tset_traits@KU?$less@K@std@@V?$allocator@K@2@$0A@@std@@@std@@QAE?AViterator@12@Vconst_iterator@12@0@Z 00414510 f i IATReferenceScan.obj
 0001:000135e0       ?_Lrotate@?$_Tree@V?$_Tset_traits@KU?$less@K@std@@V?$allocator@K@2@$0A@@std@@@std@@IAEXPAU_Node@?$_Tree_nod@V?$_Tset_traits@KU?$less@K@std@@V?$allocator@K@2@$0A@@std@@@2@@Z 004145e0 f i IATReferenceScan.obj
 0001:00013640       ?_Rrotate@?$_Tree@V?$_Tset_traits@KU?$less@K@std@@V?$allocator@K@2@$0A@@std@@@std@@IAEXPAU_Node@?$_Tree_nod@V?$_Tset_traits@KU?$less@K@std@@V?$allocator@K@2@$0A@@std@@@2@@Z 00414640 f i IATReferenceScan.obj
 0001:000136a0       ?_Buynode@?$_Tree@V?$_Tset_traits@KU?$less@K@std@@V?$allocator@K@2@$0A@@std@@@std@@IAEPAU_Node@?$_Tree_nod@V?$_Tset_traits@KU?$less@K@std@@V?$allocator@K@2@$0A@@std@@@2@PAU342@00ABKD@Z 004146a0 f i IATReferenceScan.obj
 0001:000136e0       ?erase@?$_Tree@V?$_Tset_traits@KU?$less@K@std@@V?$allocator@K@2@$0A@@std@@@std@@QAE?AViterator@12@Vconst_iterator@12@@Z 004146e0 f i IATReferenceScan.obj
 0001:000139c0       ?_Buynode@?$_Tree@V?$_Tset_traits@KU?$less@K@std@@V?$allocator@K@2@$0A@@std@@@std@@IAEPAU_Node@?$_Tree_nod@V?$_Tset_traits@KU?$less@K@std@@V?$allocator@K@2@$0A@@std@@@2@XZ 004149c0 f i IATReferenceScan.obj
 0001:00013a00       ?_Dec@const_iterator@?$_Tree@V?$_Tset_traits@KU?$less@K@std@@V?$allocator@K@2@$0A@@std@@@std@@QAEXXZ 00414a00 f i IATReferenceScan.obj
 0001:00013a80       ?_Inc@const_iterator@?$_Tree@V?$_Tset_traits@KU?$less@K@std@@V?$allocator@K@2@$0A@@std@@@std@@QAEXXZ 00414a80 f i IATReferenceScan.obj
 0001:00013af0       ?_Erase@?$_Tree@V?$_Tset_traits@KU?$less@K@std@@V?$allocator@K@2@$0A@@std@@@std@@IAEXPAU_Node@?$_Tree_nod@V?$_Tset_traits@KU?$less@K@std@@V?$allocator@K@2@$0A@@std@@@2@@Z 00414af0 f i IATReferenceScan.obj
 0001:00013b30       ?_Max@?$_Tree@V?$_Tset_traits@KU?$less@K@std@@V?$allocator@K@2@$0A@@std@@@std@@KAPAU_Node@?$_Tree_nod@V?$_Tset_traits@KU?$less@K@std@@V?$allocator@K@2@$0A@@std@@@2@PAU342@@Z 00414b30 f i IATReferenceScan.obj
 0001:00013b50       ??$_Umove@PAVIATReference@@@?$vector@VIATReference@@V?$allocator@VIATReference@@@std@@@std@@IAEPAVIATReference@@PAV2@00@Z 00414b50 f i IATReferenceScan.obj
 0001:00013b80       ??$fill@PAVIATReference@@V1@@std@@YAXPAVIATReference@@0ABV1@@Z 00414b80 f i IATReferenceScan.obj
 0001:00013bb0       ??$_Copy_opt@PAVIATReference@@PAV1@@std@@YAPAVIATReference@@PAV1@00Urandom_access_iterator_tag@0@U_Nonscalar_ptr_iterator_tag@0@U_Range_checked_iterator_tag@0@@Z 00414bb0 f i IATReferenceScan.obj
 0001:00013c00       ??$_Uninit_fill_n@PAVIATReference@@IV1@V?$allocator@VIATReference@@@std@@@std@@YAXPAVIATReference@@IABV1@AAV?$allocator@VIATReference@@@0@U_Nonscalar_ptr_iterator_tag@0@U_Range_checked_iterator_tag@0@@Z 00414c00 f i IATReferenceScan.obj
 0001:00013c30       ??$_Copy_backward_opt@PAVIATReference@@PAV1@@std@@YAPAVIATReference@@PAV1@00Urandom_access_iterator_tag@0@U_Nonscalar_ptr_iterator_tag@0@U_Range_checked_iterator_tag@0@@Z 00414c30 f i IATReferenceScan.obj
 0001:00013c90       ??$_Uninit_copy@PAVIATReference@@PAV1@V?$allocator@VIATReference@@@std@@@std@@YAPAVIATReference@@PAV1@00AAV?$allocator@VIATReference@@@0@U_Nonscalar_ptr_iterator_tag@0@U_Range_checked_iterator_tag@0@@Z 00414c90 f i IATReferenceScan.obj
 0001:00013cd0       ?findIATAdvanced@IATSearch@@AAE_NKPAK0@Z 00414cd0 f   IATSearch.obj
 0001:00013f20       ?findAPIAddressInIAT@IATSearch@@AAEKK@Z 00414f20 f   IATSearch.obj
 0001:00014110       ?findNextFunctionAddress@IATSearch@@AAEKXZ 00415110 f   IATSearch.obj
 0001:00014170       ?findIATPointer@IATSearch@@AAEKXZ 00415170 f   IATSearch.obj
 0001:000141c0       ?findIATStartAndSize@IATSearch@@AAE_NKPAK0@Z 004151c0 f   IATSearch.obj
 0001:00014260       ?findIATStartAddress@IATSearch@@AAEKKKPAE@Z 00415260 f   IATSearch.obj
 0001:00014320       ?findIATSize@IATSearch@@AAEKKKPAEK@Z 00415320 f   IATSearch.obj
 0001:000143d0       ?findIATPointers@IATSearch@@AAEXAAV?$set@KU?$less@K@std@@V?$allocator@K@2@@std@@@Z 004153d0 f   IATSearch.obj
 0001:00014440       ?findExecutableMemoryPagesByStartAddress@IATSearch@@AAEXKPAK0@Z 00415440 f   IATSearch.obj
 0001:000144f0       ?filterIATPointersList@IATSearch@@AAEXAAV?$set@KU?$less@K@std@@V?$allocator@K@2@@std@@@Z 004154f0 f   IATSearch.obj
 0001:00014970       ?getMemoryBaseAndSizeForIat@IATSearch@@AAEXKPAK0@Z 00415970 f   IATSearch.obj
 0001:00014a70       ?rebuildImportTable@ImportRebuilder@@QAE_NPB_WAAV?$map@KVImportModuleThunk@@U?$less@K@std@@V?$allocator@U?$pair@$$CBKVImportModuleThunk@@@std@@@3@@std@@@Z 00415a70 f   ImportRebuilder.obj
 0001:00014b70       ?buildNewImportTable@ImportRebuilder@@AAE_NAAV?$map@KVImportModuleThunk@@U?$less@K@std@@V?$allocator@U?$pair@$$CBKVImportModuleThunk@@@std@@@3@@std@@@Z 00415b70 f   ImportRebuilder.obj
 0001:00014d70       ?createNewImportSection@ImportRebuilder@@AAE_NAAV?$map@KVImportModuleThunk@@U?$less@K@std@@V?$allocator@U?$pair@$$CBKVImportModuleThunk@@@std@@@3@@std@@@Z 00415d70 f   ImportRebuilder.obj
 0001:00014e40       ?setFlagToIATSection@ImportRebuilder@@AAEXK@Z 00415e40 f   ImportRebuilder.obj
 0001:00014f60       ?fillImportSection@ImportRebuilder@@AAEKAAV?$map@KVImportModuleThunk@@U?$less@K@std@@V?$allocator@U?$pair@$$CBKVImportModuleThunk@@@std@@@3@@std@@@Z 00415f60 f   ImportRebuilder.obj
 0001:00015240       ?addImportDescriptor@ImportRebuilder@@AAEIPAVImportModuleThunk@@KK@Z 00416240 f   ImportRebuilder.obj
 0001:00015380       ?calculateImportSizes@ImportRebuilder@@AAEXAAV?$map@KVImportModuleThunk@@U?$less@K@std@@V?$allocator@U?$pair@$$CBKVImportModuleThunk@@@std@@@3@@std@@@Z 00416380 f   ImportRebuilder.obj
 0001:000155d0       ?addImportToImportTable@ImportRebuilder@@AAEIPAVImportThunk@@PAU_IMAGE_THUNK_DATA32@@PAU_IMAGE_IMPORT_BY_NAME@@K@Z 004165d0 f   ImportRebuilder.obj
 0001:00015680       ?getMemoryPointerFromRVA@ImportRebuilder@@AAEPAEK@Z 00416680 f   ImportRebuilder.obj
 0001:00015930       ?patchFileForNewIatLocation@ImportRebuilder@@AAEXXZ 00416930 f   ImportRebuilder.obj
 0001:00015990       ?changeIatBaseAddress@ImportRebuilder@@AAEXAAV?$map@KVImportModuleThunk@@U?$less@K@std@@V?$allocator@U?$pair@$$CBKVImportModuleThunk@@@std@@@3@@std@@@Z 00416990 f   ImportRebuilder.obj
 0001:00015b30       ?patchFileForDirectImportJumpTable@ImportRebuilder@@AAEXXZ 00416b30 f   ImportRebuilder.obj
 0001:00015be0       ??$insert@Viterator@?$_Tree@V?$_Tmap_traits@KVImportModuleThunk@@U?$less@K@std@@V?$allocator@U?$pair@$$CBKVImportModuleThunk@@@std@@@3@$0A@@std@@@std@@@?$_Tree@V?$_Tmap_traits@KVImportModuleThunk@@U?$less@K@std@@V?$allocator@U?$pair@$$CBKVImportModuleThunk@@@std@@@3@$0A@@std@@@std@@QAEXViterator@01@0@Z 00416be0 f i ImportRebuilder.obj
 0001:00015c50       ?isValid@ImportModuleThunk@@QBE_NXZ 00416c50 f   ImportsHandling.obj
 0001:00015ce0       ??0ImportsHandling@@QAE@AAVCMultiSelectTreeViewCtrl@@@Z 00416ce0 f   ImportsHandling.obj
 0001:00015e30       ??1ImportsHandling@@QAE@XZ 00416e30 f   ImportsHandling.obj
 0001:00015f40       ?isModule@ImportsHandling@@QAE_NV?$CTreeItemT@VCWindow@ATL@@@WTL@@@Z 00416f40 f   ImportsHandling.obj
 0001:00015f70       ?isImport@ImportsHandling@@QAE_NV?$CTreeItemT@VCWindow@ATL@@@WTL@@@Z 00416f70 f   ImportsHandling.obj
 0001:00015fc0       ?getModuleThunk@ImportsHandling@@QAEPAVImportModuleThunk@@V?$CTreeItemT@VCWindow@ATL@@@WTL@@@Z 00416fc0 f   ImportsHandling.obj
 0001:00016040       ?getItemData@ImportsHandling@@AAEPAUTreeItemData@1@V?$CTreeItemT@VCWindow@ATL@@@WTL@@@Z 00417040 f   ImportsHandling.obj
 0001:000160b0       ?updateCounts@ImportsHandling@@AAEXXZ 004170b0 f   ImportsHandling.obj
 0001:000161c0       ?displayAllImports@ImportsHandling@@QAEXXZ 004171c0 f   ImportsHandling.obj
 0001:00016660       ?clearAllImports@ImportsHandling@@QAEXXZ 00417660 f   ImportsHandling.obj
 0001:000166c0       ?selectImports@ImportsHandling@@QAEX_N0@Z 004176c0 f   ImportsHandling.obj
 0001:00016850       ?invalidateImport@ImportsHandling@@QAE_NV?$CTreeItemT@VCWindow@ATL@@@WTL@@@Z 00417850 f   ImportsHandling.obj
 0001:00016940       ?invalidateModule@ImportsHandling@@QAE_NV?$CTreeItemT@VCWindow@ATL@@@WTL@@@Z 00417940 f   ImportsHandling.obj
 0001:00016a60       ?setImport@ImportsHandling@@QAE_NV?$CTreeItemT@VCWindow@ATL@@@WTL@@PB_WPBDGG_N3@Z 00417a60 f   ImportsHandling.obj
 0001:00016b80       ?updateImportInTreeView@ImportsHandling@@AAEXPBVImportThunk@@V?$CTreeItemT@VCWindow@ATL@@@WTL@@@Z 00417b80 f   ImportsHandling.obj
 0001:00016c80       ?updateModuleInTreeView@ImportsHandling@@AAEXPBVImportModuleThunk@@V?$CTreeItemT@VCWindow@ATL@@@WTL@@@Z 00417c80 f   ImportsHandling.obj
 0001:00016ce0       ?cutImport@ImportsHandling@@QAE_NV?$CTreeItemT@VCWindow@ATL@@@WTL@@@Z 00417ce0 f   ImportsHandling.obj
 0001:00016e90       ?cutModule@ImportsHandling@@QAE_NV?$CTreeItemT@VCWindow@ATL@@@WTL@@@Z 00417e90 f   ImportsHandling.obj
 0001:00016fb0       ?scanAndFixModuleList@ImportsHandling@@QAEXXZ 00417fb0 f   ImportsHandling.obj
 0001:00017210       ?addModuleToModuleList@ImportsHandling@@AAE_NPB_WK@Z 00418210 f   ImportsHandling.obj
 0001:000172d0       ??4ImportModuleThunk@@QAEAAV0@ABV0@@Z 004182d0 f i ImportsHandling.obj
 0001:00017370       ?addUnknownModuleToModuleList@ImportsHandling@@AAEXK@Z 00418370 f   ImportsHandling.obj
 0001:00017430       ?addNotFoundApiToModuleList@ImportsHandling@@AAE_NPBVImportThunk@@@Z 00418430 f   ImportsHandling.obj
 0001:00017710       ??4ImportThunk@@QAEAAV0@ABV0@@Z 00418710 f i ImportsHandling.obj
 0001:000177d0       ?addFunctionToModuleList@ImportsHandling@@AAE_NPBVImportThunk@@@Z 004187d0 f   ImportsHandling.obj
 0001:00017a00       ?changeExpandStateOfTreeNodes@ImportsHandling@@AAEXI@Z 00418a00 f   ImportsHandling.obj
 0001:00017a80       ??A?$map@KVImportModuleThunk@@U?$less@K@std@@V?$allocator@U?$pair@$$CBKVImportModuleThunk@@@std@@@3@@std@@QAEAAVImportModuleThunk@@ABK@Z 00418a80 f i ImportsHandling.obj
 0001:00017ba0       ?erase@?$_Tree@V?$_Tmap_traits@KVImportModuleThunk@@U?$less@K@std@@V?$allocator@U?$pair@$$CBKVImportModuleThunk@@@std@@@3@$0A@@std@@@std@@QAEIABK@Z 00418ba0 f i ImportsHandling.obj
 0001:00017c00       ??A?$hash_map@PAU_TREEITEM@@UTreeItemData@ImportsHandling@@V?$hash_compare@PAU_TREEITEM@@U?$less@PAU_TREEITEM@@@std@@@stdext@@V?$allocator@U?$pair@QAU_TREEITEM@@UTreeItemData@ImportsHandling@@@std@@@std@@@stdext@@QAEAAUTreeItemData@ImportsHandling@@ABQAU_TREEITEM@@@Z 00418c00 f i ImportsHandling.obj
 0001:00017c90       ?erase@?$_Hash@V?$_Hmap_traits@PAU_TREEITEM@@UTreeItemData@ImportsHandling@@V?$hash_compare@PAU_TREEITEM@@U?$less@PAU_TREEITEM@@@std@@@stdext@@V?$allocator@U?$pair@QAU_TREEITEM@@UTreeItemData@ImportsHandling@@@std@@@std@@$0A@@stdext@@@stdext@@QAEIABQAU_TREEITEM@@@Z 00418c90 f i ImportsHandling.obj
 0001:00017cf0       ?clear@?$_Hash@V?$_Hmap_traits@PAU_TREEITEM@@UTreeItemData@ImportsHandling@@V?$hash_compare@PAU_TREEITEM@@U?$less@PAU_TREEITEM@@@std@@@stdext@@V?$allocator@U?$pair@QAU_TREEITEM@@UTreeItemData@ImportsHandling@@@std@@@std@@$0A@@stdext@@@stdext@@QAEXXZ 00418cf0 f i ImportsHandling.obj
 0001:00017d60       ??A?$map@KVImportThunk@@U?$less@K@std@@V?$allocator@U?$pair@$$CBKVImportThunk@@@std@@@3@@std@@QAEAAVImportThunk@@ABK@Z 00418d60 f i ImportsHandling.obj
 0001:00017e20       ?erase@?$_Tree@V?$_Tmap_traits@KVImportThunk@@U?$less@K@std@@V?$allocator@U?$pair@$$CBKVImportThunk@@@std@@@3@$0A@@std@@@std@@QAEIABK@Z 00418e20 f i ImportsHandling.obj
 0001:00017e80       ?insert@?$_Tree@V?$_Tmap_traits@KVImportModuleThunk@@U?$less@K@std@@V?$allocator@U?$pair@$$CBKVImportModuleThunk@@@std@@@3@$0A@@std@@@std@@QAE?AViterator@12@Vconst_iterator@12@ABU?$pair@$$CBKVImportModuleThunk@@@2@@Z 00418e80 f i ImportsHandling.obj
 0001:00018020       ?_Copy@?$_Tree@V?$_Tmap_traits@KVImportModuleThunk@@U?$less@K@std@@V?$allocator@U?$pair@$$CBKVImportModuleThunk@@@std@@@3@$0A@@std@@@std@@IAEXABV12@@Z 00419020 f i ImportsHandling.obj
 0001:000180b0       ??0?$_Hash@V?$_Hmap_traits@PAU_TREEITEM@@UTreeItemData@ImportsHandling@@V?$hash_compare@PAU_TREEITEM@@U?$less@PAU_TREEITEM@@@std@@@stdext@@V?$allocator@U?$pair@QAU_TREEITEM@@UTreeItemData@ImportsHandling@@@std@@@std@@$0A@@stdext@@@stdext@@QAE@ABV?$hash_compare@PAU_TREEITEM@@U?$less@PAU_TREEITEM@@@std@@@1@ABV?$allocator@U?$pair@QAU_TREEITEM@@UTreeItemData@ImportsHandling@@@std@@@std@@@Z 004190b0 f i ImportsHandling.obj
 0001:00018150       ?erase@?$_Hash@V?$_Hmap_traits@PAU_TREEITEM@@UTreeItemData@ImportsHandling@@V?$hash_compare@PAU_TREEITEM@@U?$less@PAU_TREEITEM@@@std@@@stdext@@V?$allocator@U?$pair@QAU_TREEITEM@@UTreeItemData@ImportsHandling@@@std@@@std@@$0A@@stdext@@@stdext@@QAE?AV?$_Iterator@$00@?$list@U?$pair@QAU_TREEITEM@@UTreeItemData@ImportsHandling@@@std@@V?$allocator@U?$pair@QAU_TREEITEM@@UTreeItemData@ImportsHandling@@@std@@@2@@std@@V?$_Const_iterator@$00@45@0@Z 00419150 f i ImportsHandling.obj
 0001:00018240       ?lower_bound@?$_Hash@V?$_Hmap_traits@PAU_TREEITEM@@UTreeItemData@ImportsHandling@@V?$hash_compare@PAU_TREEITEM@@U?$less@PAU_TREEITEM@@@std@@@stdext@@V?$allocator@U?$pair@QAU_TREEITEM@@UTreeItemData@ImportsHandling@@@std@@@std@@$0A@@stdext@@@stdext@@QAE?AV?$_Iterator@$00@?$list@U?$pair@QAU_TREEITEM@@UTreeItemData@ImportsHandling@@@std@@V?$allocator@U?$pair@QAU_TREEITEM@@UTreeItemData@ImportsHandling@@@std@@@2@@std@@ABQAU_TREEITEM@@@Z 00419240 f i ImportsHandling.obj
 0001:000183c0       ?equal_range@?$_Hash@V?$_Hmap_traits@PAU_TREEITEM@@UTreeItemData@ImportsHandling@@V?$hash_compare@PAU_TREEITEM@@U?$less@PAU_TREEITEM@@@std@@@stdext@@V?$allocator@U?$pair@QAU_TREEITEM@@UTreeItemData@ImportsHandling@@@std@@@std@@$0A@@stdext@@@stdext@@QAE?AU?$pair@V?$_Iterator@$00@?$list@U?$pair@QAU_TREEITEM@@UTreeItemData@ImportsHandling@@@std@@V?$allocator@U?$pair@QAU_TREEITEM@@UTreeItemData@ImportsHandling@@@std@@@2@@std@@V123@@std@@ABQAU_TREEITEM@@@Z 004193c0 f i ImportsHandling.obj
 0001:00018560       ?insert@?$_Tree@V?$_Tmap_traits@KVImportThunk@@U?$less@K@std@@V?$allocator@U?$pair@$$CBKVImportThunk@@@std@@@3@$0A@@std@@@std@@QAE?AViterator@12@Vconst_iterator@12@ABU?$pair@$$CBKVImportThunk@@@2@@Z 00419560 f i ImportsHandling.obj
 0001:00018720       ?_SelectItem@?$CMultiSelectTreeViewImpl@VCMultiSelectTreeViewCtrl@@V?$CTreeViewCtrlExT@VCWindow@ATL@@@WTL@@V?$CWinTraitsOR@$0CA@$0A@V?$CWinTraits@$0FGAAAAAA@$0A@@ATL@@@ATL@@@@QAEXH_NH@Z 00419720 f i ImportsHandling.obj
 0001:00018870       ?_SelectItem@?$CMultiSelectTreeViewImpl@VCMultiSelectTreeViewCtrl@@V?$CTreeViewCtrlExT@VCWindow@ATL@@@WTL@@V?$CWinTraitsOR@$0CA@$0A@V?$CWinTraits@$0FGAAAAAA@$0A@@ATL@@@ATL@@@@QAEXPAU_TREEITEM@@_NH@Z 00419870 f i ImportsHandling.obj
 0001:000188b0       ?_Copy@?$_Tree@V?$_Tmap_traits@KVImportModuleThunk@@U?$less@K@std@@V?$allocator@U?$pair@$$CBKVImportModuleThunk@@@std@@@3@$0A@@std@@@std@@IAEPAU_Node@?$_Tree_nod@V?$_Tmap_traits@KVImportModuleThunk@@U?$less@K@std@@V?$allocator@U?$pair@$$CBKVImportModuleThunk@@@std@@@3@$0A@@std@@@2@PAU342@0@Z 004198b0 f i ImportsHandling.obj
 0001:00018970       ?_Eqrange@?$_Tree@V?$_Tmap_traits@KVImportModuleThunk@@U?$less@K@std@@V?$allocator@U?$pair@$$CBKVImportModuleThunk@@@std@@@3@$0A@@std@@@std@@IAE?AU?$pair@Viterator@?$_Tree@V?$_Tmap_traits@KVImportModuleThunk@@U?$less@K@std@@V?$allocator@U?$pair@$$CBKVImportModuleThunk@@@std@@@3@$0A@@std@@@std@@V123@@2@ABK@Z 00419970 f i ImportsHandling.obj
 0001:00018a10       ?erase@?$_Hash@V?$_Hmap_traits@PAU_TREEITEM@@UTreeItemData@ImportsHandling@@V?$hash_compare@PAU_TREEITEM@@U?$less@PAU_TREEITEM@@@std@@@stdext@@V?$allocator@U?$pair@QAU_TREEITEM@@UTreeItemData@ImportsHandling@@@std@@@std@@$0A@@stdext@@@stdext@@QAE?AV?$_Iterator@$00@?$list@U?$pair@QAU_TREEITEM@@UTreeItemData@ImportsHandling@@@std@@V?$allocator@U?$pair@QAU_TREEITEM@@UTreeItemData@ImportsHandling@@@std@@@2@@std@@V?$_Const_iterator@$00@45@@Z 00419a10 f i ImportsHandling.obj
 0001:00018b90       ?_Insert@?$_Hash@V?$_Hmap_traits@PAU_TREEITEM@@UTreeItemData@ImportsHandling@@V?$hash_compare@PAU_TREEITEM@@U?$less@PAU_TREEITEM@@@std@@@stdext@@V?$allocator@U?$pair@QAU_TREEITEM@@UTreeItemData@ImportsHandling@@@std@@@std@@$0A@@stdext@@@stdext@@IAE?AU?$pair@V?$_Iterator@$00@?$list@U?$pair@QAU_TREEITEM@@UTreeItemData@ImportsHandling@@@std@@V?$allocator@U?$pair@QAU_TREEITEM@@UTreeItemData@ImportsHandling@@@std@@@2@@std@@_N@std@@ABU?$pair@QAU_TREEITEM@@UTreeItemData@ImportsHandling@@@4@V?$_Iterator@$00@?$list@U?$pair@QAU_TREEITEM@@UTreeItemData@ImportsHandling@@@std@@V?$allocator@U?$pair@QAU_TREEITEM@@UTreeItemData@ImportsHandling@@@std@@@2@@4@@Z 00419b90 f i ImportsHandling.obj
 0001:00018e80       ??0?$list@U?$pair@QAU_TREEITEM@@UTreeItemData@ImportsHandling@@@std@@V?$allocator@U?$pair@QAU_TREEITEM@@UTreeItemData@ImportsHandling@@@std@@@2@@std@@QAE@ABV?$allocator@U?$pair@QAU_TREEITEM@@UTreeItemData@ImportsHandling@@@std@@@1@@Z 00419e80 f i ImportsHandling.obj
 0001:00018ef0       ?_Eqrange@?$_Tree@V?$_Tmap_traits@KVImportThunk@@U?$less@K@std@@V?$allocator@U?$pair@$$CBKVImportThunk@@@std@@@3@$0A@@std@@@std@@IAE?AU?$pair@Viterator@?$_Tree@V?$_Tmap_traits@KVImportThunk@@U?$less@K@std@@V?$allocator@U?$pair@$$CBKVImportThunk@@@std@@@3@$0A@@std@@@std@@V123@@2@ABK@Z 00419ef0 f i ImportsHandling.obj
 0001:00018f90       ?GetValueAt@?$CSimpleMap@PAU_TREEITEM@@_NV?$CSimpleMapEqualHelper@PAU_TREEITEM@@_N@ATL@@@ATL@@QBEAA_NH@Z 00419f90 f i ImportsHandling.obj
 0001:00018fc0       ?FindKey@?$CSimpleMap@PAU_TREEITEM@@_NV?$CSimpleMapEqualHelper@PAU_TREEITEM@@_N@ATL@@@ATL@@QBEHABQAU_TREEITEM@@@Z 00419fc0 f i ImportsHandling.obj
 0001:00018ff0       ?SetAtIndex@?$CSimpleMap@PAU_TREEITEM@@_NV?$CSimpleMapEqualHelper@PAU_TREEITEM@@_N@ATL@@@ATL@@QAEHHABQAU_TREEITEM@@AB_N@Z 00419ff0 f i ImportsHandling.obj
 0001:00019030       ?GetItemData@?$CTreeViewCtrlT@VCWindow@ATL@@@WTL@@QBEKPAU_TREEITEM@@@Z 0041a030 f i ImportsHandling.obj
 0001:00019090       ?_Grow@?$_Hash@V?$_Hmap_traits@PAU_TREEITEM@@UTreeItemData@ImportsHandling@@V?$hash_compare@PAU_TREEITEM@@U?$less@PAU_TREEITEM@@@std@@@stdext@@V?$allocator@U?$pair@QAU_TREEITEM@@UTreeItemData@ImportsHandling@@@std@@@std@@$0A@@stdext@@@stdext@@IAEXXZ 0041a090 f i ImportsHandling.obj
 0001:00019470       ?insert@?$list@U?$pair@QAU_TREEITEM@@UTreeItemData@ImportsHandling@@@std@@V?$allocator@U?$pair@QAU_TREEITEM@@UTreeItemData@ImportsHandling@@@std@@@2@@std@@QAE?AV?$_Iterator@$00@12@V?$_Const_iterator@$00@12@ABU?$pair@QAU_TREEITEM@@UTreeItemData@ImportsHandling@@@2@@Z 0041a470 f i ImportsHandling.obj
 0001:000194f0       ?erase@?$list@U?$pair@QAU_TREEITEM@@UTreeItemData@ImportsHandling@@@std@@V?$allocator@U?$pair@QAU_TREEITEM@@UTreeItemData@ImportsHandling@@@std@@@2@@std@@QAE?AV?$_Iterator@$00@12@V?$_Const_iterator@$00@12@@Z 0041a4f0 f i ImportsHandling.obj
 0001:00019560       ?splice@?$list@U?$pair@QAU_TREEITEM@@UTreeItemData@ImportsHandling@@@std@@V?$allocator@U?$pair@QAU_TREEITEM@@UTreeItemData@ImportsHandling@@@std@@@2@@std@@QAEXV?$_Const_iterator@$00@12@AAV12@0@Z 0041a560 f i ImportsHandling.obj
 0001:00019610       ?_Buynode@?$list@U?$pair@QAU_TREEITEM@@UTreeItemData@ImportsHandling@@@std@@V?$allocator@U?$pair@QAU_TREEITEM@@UTreeItemData@ImportsHandling@@@std@@@2@@std@@IAEPAU_Node@?$_List_nod@U?$pair@QAU_TREEITEM@@UTreeItemData@ImportsHandling@@@std@@V?$allocator@U?$pair@QAU_TREEITEM@@UTreeItemData@ImportsHandling@@@std@@@2@@2@XZ 0041a610 f i ImportsHandling.obj
 0001:00019630       ?_Assign_n@?$vector@U_List_position@?$_Hash@V?$_Hmap_traits@PAU_TREEITEM@@UTreeItemData@ImportsHandling@@V?$hash_compare@PAU_TREEITEM@@U?$less@PAU_TREEITEM@@@std@@@stdext@@V?$allocator@U?$pair@QAU_TREEITEM@@UTreeItemData@ImportsHandling@@@std@@@std@@$0A@@stdext@@@stdext@@V?$allocator@U_List_position@?$_Hash@V?$_Hmap_traits@PAU_TREEITEM@@UTreeItemData@ImportsHandling@@V?$hash_compare@PAU_TREEITEM@@U?$less@PAU_TREEITEM@@@std@@@stdext@@V?$allocator@U?$pair@QAU_TREEITEM@@UTreeItemData@ImportsHandling@@@std@@@std@@$0A@@stdext@@@stdext@@@std@@@std@@IAEXIABU_List_position@?$_Hash@V?$_Hmap_traits@PAU_TREEITEM@@UTreeItemData@ImportsHandling@@V?$hash_compare@PAU_TREEITEM@@U?$less@PAU_TREEITEM@@@std@@@stdext@@V?$allocator@U?$pair@QAU_TREEITEM@@UTreeItemData@ImportsHandling@@@std@@@std@@$0A@@stdext@@@stdext@@@Z 0041a630 f i ImportsHandling.obj
 0001:000196a0       ?_Splice@?$list@U?$pair@QAU_TREEITEM@@UTreeItemData@ImportsHandling@@@std@@V?$allocator@U?$pair@QAU_TREEITEM@@UTreeItemData@ImportsHandling@@@std@@@2@@std@@QAEXV?$_Const_iterator@$00@12@AAV12@00I_N@Z 0041a6a0 f i ImportsHandling.obj
 0001:00019700       ?resize@?$vector@U_List_position@?$_Hash@V?$_Hmap_traits@PAU_TREEITEM@@UTreeItemData@ImportsHandling@@V?$hash_compare@PAU_TREEITEM@@U?$less@PAU_TREEITEM@@@std@@@stdext@@V?$allocator@U?$pair@QAU_TREEITEM@@UTreeItemData@ImportsHandling@@@std@@@std@@$0A@@stdext@@@stdext@@V?$allocator@U_List_position@?$_Hash@V?$_Hmap_traits@PAU_TREEITEM@@UTreeItemData@ImportsHandling@@V?$hash_compare@PAU_TREEITEM@@U?$less@PAU_TREEITEM@@@std@@@stdext@@V?$allocator@U?$pair@QAU_TREEITEM@@UTreeItemData@ImportsHandling@@@std@@@std@@$0A@@stdext@@@stdext@@@std@@@std@@QAEXIU_List_position@?$_Hash@V?$_Hmap_traits@PAU_TREEITEM@@UTreeItemData@ImportsHandling@@V?$hash_compare@PAU_TREEITEM@@U?$less@PAU_TREEITEM@@@std@@@stdext@@V?$allocator@U?$pair@QAU_TREEITEM@@UTreeItemData@ImportsHandling@@@std@@@std@@$0A@@stdext@@@stdext@@@Z 0041a700 f i ImportsHandling.obj
 0001:000197a0       ?erase@?$vector@U_List_position@?$_Hash@V?$_Hmap_traits@KPAVApiInfo@@V?$hash_compare@KU?$less@K@std@@@stdext@@V?$allocator@U?$pair@$$CBKPAVApiInfo@@@std@@@std@@$00@stdext@@@stdext@@V?$allocator@U_List_position@?$_Hash@V?$_Hmap_traits@KPAVApiInfo@@V?$hash_compare@KU?$less@K@std@@@stdext@@V?$allocator@U?$pair@$$CBKPAVApiInfo@@@std@@@std@@$00@stdext@@@stdext@@@std@@@std@@QAE?AV?$_Vector_iterator@U_List_position@?$_Hash@V?$_Hmap_traits@KPAVApiInfo@@V?$hash_compare@KU?$less@K@std@@@stdext@@V?$allocator@U?$pair@$$CBKPAVApiInfo@@@std@@@std@@$00@stdext@@@stdext@@V?$allocator@U_List_position@?$_Hash@V?$_Hmap_traits@KPAVApiInfo@@V?$hash_compare@KU?$less@K@std@@@stdext@@V?$allocator@U?$pair@$$CBKPAVApiInfo@@@std@@@std@@$00@stdext@@@stdext@@@std@@@2@V?$_Vector_const_iterator@U_List_position@?$_Hash@V?$_Hmap_traits@KPAVApiInfo@@V?$hash_compare@KU?$less@K@std@@@stdext@@V?$allocator@U?$pair@$$CBKPAVApiInfo@@@std@@@std@@$00@stdext@@@stdext@@V?$allocator@U_List_position@?$_Hash@V?$_Hmap_traits@KPAVApiInfo@@V?$hash_compare@KU?$less@K@std@@@stdext@@V?$allocator@U?$pair@$$CBKPAVApiInfo@@@std@@@std@@$00@stdext@@@stdext@@@std@@@2@0@Z 0041a7a0 f i ApiReader.obj
 0001:000197a0       ?erase@?$vector@U_List_position@?$_Hash@V?$_Hmap_traits@PAU_TREEITEM@@UTreeItemData@ImportsHandling@@V?$hash_compare@PAU_TREEITEM@@U?$less@PAU_TREEITEM@@@std@@@stdext@@V?$allocator@U?$pair@QAU_TREEITEM@@UTreeItemData@ImportsHandling@@@std@@@std@@$0A@@stdext@@@stdext@@V?$allocator@U_List_position@?$_Hash@V?$_Hmap_traits@PAU_TREEITEM@@UTreeItemData@ImportsHandling@@V?$hash_compare@PAU_TREEITEM@@U?$less@PAU_TREEITEM@@@std@@@stdext@@V?$allocator@U?$pair@QAU_TREEITEM@@UTreeItemData@ImportsHandling@@@std@@@std@@$0A@@stdext@@@stdext@@@std@@@std@@QAE?AV?$_Vector_iterator@U_List_position@?$_Hash@V?$_Hmap_traits@PAU_TREEITEM@@UTreeItemData@ImportsHandling@@V?$hash_compare@PAU_TREEITEM@@U?$less@PAU_TREEITEM@@@std@@@stdext@@V?$allocator@U?$pair@QAU_TREEITEM@@UTreeItemData@ImportsHandling@@@std@@@std@@$0A@@stdext@@@stdext@@V?$allocator@U_List_position@?$_Hash@V?$_Hmap_traits@PAU_TREEITEM@@UTreeItemData@ImportsHandling@@V?$hash_compare@PAU_TREEITEM@@U?$less@PAU_TREEITEM@@@std@@@stdext@@V?$allocator@U?$pair@QAU_TREEITEM@@UTreeItemData@ImportsHandling@@@std@@@std@@$0A@@stdext@@@stdext@@@std@@@2@V?$_Vector_const_iterator@U_List_position@?$_Hash@V?$_Hmap_traits@PAU_TREEITEM@@UTreeItemData@ImportsHandling@@V?$hash_compare@PAU_TREEITEM@@U?$less@PAU_TREEITEM@@@std@@@stdext@@V?$allocator@U?$pair@QAU_TREEITEM@@UTreeItemData@ImportsHandling@@@std@@@std@@$0A@@stdext@@@stdext@@V?$allocator@U_List_position@?$_Hash@V?$_Hmap_traits@PAU_TREEITEM@@UTreeItemData@ImportsHandling@@V?$hash_compare@PAU_TREEITEM@@U?$less@PAU_TREEITEM@@@std@@@stdext@@V?$allocator@U?$pair@QAU_TREEITEM@@UTreeItemData@ImportsHandling@@@std@@@std@@$0A@@stdext@@@stdext@@@std@@@2@0@Z 0041a7a0 f i ImportsHandling.obj
 0001:00019840       ?allocate@?$allocator@U_List_position@?$_Hash@V?$_Hmap_traits@PAU_TREEITEM@@UTreeItemData@ImportsHandling@@V?$hash_compare@PAU_TREEITEM@@U?$less@PAU_TREEITEM@@@std@@@stdext@@V?$allocator@U?$pair@QAU_TREEITEM@@UTreeItemData@ImportsHandling@@@std@@@std@@$0A@@stdext@@@stdext@@@std@@QAEPAU_List_position@?$_Hash@V?$_Hmap_traits@PAU_TREEITEM@@UTreeItemData@ImportsHandling@@V?$hash_compare@PAU_TREEITEM@@U?$less@PAU_TREEITEM@@@std@@@stdext@@V?$allocator@U?$pair@QAU_TREEITEM@@UTreeItemData@ImportsHandling@@@std@@@std@@$0A@@stdext@@@stdext@@I@Z 0041a840 f i ImportsHandling.obj
 0001:00019840       ?allocate@?$allocator@U_List_position@?$_Hash@V?$_Hmap_traits@KPAVApiInfo@@V?$hash_compare@KU?$less@K@std@@@stdext@@V?$allocator@U?$pair@$$CBKPAVApiInfo@@@std@@@std@@$00@stdext@@@stdext@@@std@@QAEPAU_List_position@?$_Hash@V?$_Hmap_traits@KPAVApiInfo@@V?$hash_compare@KU?$less@K@std@@@stdext@@V?$allocator@U?$pair@$$CBKPAVApiInfo@@@std@@@std@@$00@stdext@@@stdext@@I@Z 0041a840 f i ApiReader.obj
 0001:000198a0       ?_Buynode@?$list@U?$pair@QAU_TREEITEM@@UTreeItemData@ImportsHandling@@@std@@V?$allocator@U?$pair@QAU_TREEITEM@@UTreeItemData@ImportsHandling@@@std@@@2@@std@@IAEPAU_Node@?$_List_nod@U?$pair@QAU_TREEITEM@@UTreeItemData@ImportsHandling@@@std@@V?$allocator@U?$pair@QAU_TREEITEM@@UTreeItemData@ImportsHandling@@@std@@@2@@2@PAU342@0ABU?$pair@QAU_TREEITEM@@UTreeItemData@ImportsHandling@@@2@@Z 0041a8a0 f i ImportsHandling.obj
 0001:000198e0       ?_Incsize@?$list@U?$pair@QAU_TREEITEM@@UTreeItemData@ImportsHandling@@@std@@V?$allocator@U?$pair@QAU_TREEITEM@@UTreeItemData@ImportsHandling@@@std@@@2@@std@@IAEXI@Z 0041a8e0 f i ImportsHandling.obj
 0001:00019980       ?_Insert_n@?$vector@U_List_position@?$_Hash@V?$_Hmap_traits@PAU_TREEITEM@@UTreeItemData@ImportsHandling@@V?$hash_compare@PAU_TREEITEM@@U?$less@PAU_TREEITEM@@@std@@@stdext@@V?$allocator@U?$pair@QAU_TREEITEM@@UTreeItemData@ImportsHandling@@@std@@@std@@$0A@@stdext@@@stdext@@V?$allocator@U_List_position@?$_Hash@V?$_Hmap_traits@PAU_TREEITEM@@UTreeItemData@ImportsHandling@@V?$hash_compare@PAU_TREEITEM@@U?$less@PAU_TREEITEM@@@std@@@stdext@@V?$allocator@U?$pair@QAU_TREEITEM@@UTreeItemData@ImportsHandling@@@std@@@std@@$0A@@stdext@@@stdext@@@std@@@std@@IAEXV?$_Vector_const_iterator@U_List_position@?$_Hash@V?$_Hmap_traits@PAU_TREEITEM@@UTreeItemData@ImportsHandling@@V?$hash_compare@PAU_TREEITEM@@U?$less@PAU_TREEITEM@@@std@@@stdext@@V?$allocator@U?$pair@QAU_TREEITEM@@UTreeItemData@ImportsHandling@@@std@@@std@@$0A@@stdext@@@stdext@@V?$allocator@U_List_position@?$_Hash@V?$_Hmap_traits@PAU_TREEITEM@@UTreeItemData@ImportsHandling@@V?$hash_compare@PAU_TREEITEM@@U?$less@PAU_TREEITEM@@@std@@@stdext@@V?$allocator@U?$pair@QAU_TREEITEM@@UTreeItemData@ImportsHandling@@@std@@@std@@$0A@@stdext@@@stdext@@@std@@@2@IABU_List_position@?$_Hash@V?$_Hmap_traits@PAU_TREEITEM@@UTreeItemData@ImportsHandling@@V?$hash_compare@PAU_TREEITEM@@U?$less@PAU_TREEITEM@@@std@@@stdext@@V?$allocator@U?$pair@QAU_TREEITEM@@UTreeItemData@ImportsHandling@@@std@@@std@@$0A@@stdext@@@stdext@@@Z 0041a980 f i ImportsHandling.obj
 0001:00019be0       ??H?$_Vector_iterator@U_List_position@?$_Hash@V?$_Hmap_traits@KPAVApiInfo@@V?$hash_compare@KU?$less@K@std@@@stdext@@V?$allocator@U?$pair@$$CBKPAVApiInfo@@@std@@@std@@$00@stdext@@@stdext@@V?$allocator@U_List_position@?$_Hash@V?$_Hmap_traits@KPAVApiInfo@@V?$hash_compare@KU?$less@K@std@@@stdext@@V?$allocator@U?$pair@$$CBKPAVApiInfo@@@std@@@std@@$00@stdext@@@stdext@@@std@@@std@@QBE?AV01@H@Z 0041abe0 f i ApiReader.obj
 0001:00019be0       ??H?$_Vector_iterator@U_List_position@?$_Hash@V?$_Hmap_traits@PAU_TREEITEM@@UTreeItemData@ImportsHandling@@V?$hash_compare@PAU_TREEITEM@@U?$less@PAU_TREEITEM@@@std@@@stdext@@V?$allocator@U?$pair@QAU_TREEITEM@@UTreeItemData@ImportsHandling@@@std@@@std@@$0A@@stdext@@@stdext@@V?$allocator@U_List_position@?$_Hash@V?$_Hmap_traits@PAU_TREEITEM@@UTreeItemData@ImportsHandling@@V?$hash_compare@PAU_TREEITEM@@U?$less@PAU_TREEITEM@@@std@@@stdext@@V?$allocator@U?$pair@QAU_TREEITEM@@UTreeItemData@ImportsHandling@@@std@@@std@@$0A@@stdext@@@stdext@@@std@@@std@@QBE?AV01@H@Z 0041abe0 f i ImportsHandling.obj
 0001:00019c30       ?GetParent@?$CTreeItemT@VCWindow@ATL@@@WTL@@QBE?AV12@XZ 0041ac30 f i ImportsHandling.obj
 0001:00019c50       ??$swprintf_s@$0BCM@@@YAHAAY0BCM@_WPB_WZZ 0041ac50 f i ImportsHandling.obj
 0001:00019c70       ??$swprintf_s@$0CFI@@@YAHAAY0CFI@_WPB_WZZ 0041ac70 f i ImportsHandling.obj
 0001:00019c90       ??$_Distance@Viterator@?$_Tree@V?$_Tmap_traits@KVImportModuleThunk@@U?$less@K@std@@V?$allocator@U?$pair@$$CBKVImportModuleThunk@@@std@@@3@$0A@@std@@@std@@I@std@@YAXViterator@?$_Tree@V?$_Tmap_traits@KVImportModuleThunk@@U?$less@K@std@@V?$allocator@U?$pair@$$CBKVImportModuleThunk@@@std@@@3@$0A@@std@@@0@0AAI@Z 0041ac90 f i ImportsHandling.obj
 0001:00019ce0       ??$_Distance@Viterator@?$_Tree@V?$_Tmap_traits@KVImportThunk@@U?$less@K@std@@V?$allocator@U?$pair@$$CBKVImportThunk@@@std@@@3@$0A@@std@@@std@@I@std@@YAXViterator@?$_Tree@V?$_Tmap_traits@KVImportThunk@@U?$less@K@std@@V?$allocator@U?$pair@$$CBKVImportThunk@@@std@@@3@$0A@@std@@@0@0AAI@Z 0041ace0 f i ImportsHandling.obj
 0001:00019d30       ??$_Unchecked_move_backward@PAU_List_position@?$_Hash@V?$_Hmap_traits@KPAVApiInfo@@V?$hash_compare@KU?$less@K@std@@@stdext@@V?$allocator@U?$pair@$$CBKPAVApiInfo@@@std@@@std@@$00@stdext@@@stdext@@PAU123@@stdext@@YAPAU_List_position@?$_Hash@V?$_Hmap_traits@KPAVApiInfo@@V?$hash_compare@KU?$less@K@std@@@stdext@@V?$allocator@U?$pair@$$CBKPAVApiInfo@@@std@@@std@@$00@stdext@@@0@PAU120@00@Z 0041ad30 f i ApiReader.obj
 0001:00019d30       ??$_Unchecked_move_backward@PAU_List_position@?$_Hash@V?$_Hmap_traits@PAU_TREEITEM@@UTreeItemData@ImportsHandling@@V?$hash_compare@PAU_TREEITEM@@U?$less@PAU_TREEITEM@@@std@@@stdext@@V?$allocator@U?$pair@QAU_TREEITEM@@UTreeItemData@ImportsHandling@@@std@@@std@@$0A@@stdext@@@stdext@@PAU123@@stdext@@YAPAU_List_position@?$_Hash@V?$_Hmap_traits@PAU_TREEITEM@@UTreeItemData@ImportsHandling@@V?$hash_compare@PAU_TREEITEM@@U?$less@PAU_TREEITEM@@@std@@@stdext@@V?$allocator@U?$pair@QAU_TREEITEM@@UTreeItemData@ImportsHandling@@@std@@@std@@$0A@@stdext@@@0@PAU120@00@Z 0041ad30 f i ImportsHandling.obj
 0001:00019d70       ?SetItemText@?$CTreeViewCtrlT@VCWindow@ATL@@@WTL@@QAEHPAU_TREEITEM@@PB_W@Z 0041ad70 f i ImportsHandling.obj
 0001:00019dd0       ?SetItemImage@?$CTreeViewCtrlT@VCWindow@ATL@@@WTL@@QAEHPAU_TREEITEM@@HH@Z 0041add0 f i ImportsHandling.obj
 0001:00019e30       ??$_Distance2@V?$_Iterator@$00@?$list@U?$pair@QAU_TREEITEM@@UTreeItemData@ImportsHandling@@@std@@V?$allocator@U?$pair@QAU_TREEITEM@@UTreeItemData@ImportsHandling@@@std@@@2@@std@@I@std@@YAXV?$_Iterator@$00@?$list@U?$pair@QAU_TREEITEM@@UTreeItemData@ImportsHandling@@@std@@V?$allocator@U?$pair@QAU_TREEITEM@@UTreeItemData@ImportsHandling@@@std@@@2@@0@0AAIUbidirectional_iterator_tag@0@@Z 0041ae30 f i ImportsHandling.obj
 0001:00019e30       ??$_Distance2@V?$_Const_iterator@$00@?$list@U?$pair@$$CBKPAVApiInfo@@@std@@V?$allocator@U?$pair@$$CBKPAVApiInfo@@@std@@@2@@std@@I@std@@YAXV?$_Const_iterator@$00@?$list@U?$pair@$$CBKPAVApiInfo@@@std@@V?$allocator@U?$pair@$$CBKPAVApiInfo@@@std@@@2@@0@0AAIUbidirectional_iterator_tag@0@@Z 0041ae30 f i ApiReader.obj
 0001:00019e90       ?AtlThrowLastWin32@ATL@@YGXXZ 0041ae90 f i Logger.obj
 0001:00019eb0       ?log@Logger@@UAAXPB_WZZ    0041aeb0 f   Logger.obj
 0001:00019ef0       ?log@Logger@@UAAXPBDZZ     0041aef0 f   Logger.obj
 0001:00019f30       ?write@Logger@@MAEXPBD@Z   0041af30 f   Logger.obj
 0001:00019fc0       ?write@FileLog@@EAEXPBD@Z  0041afc0 f   Logger.obj
 0001:0001a020       ?write@FileLog@@EAEXPB_W@Z 0041b020 f   Logger.obj
 0001:0001a080       ?write@ListboxLog@@EAEXPB_W@Z 0041b080 f   Logger.obj
 0001:0001a0d0       ?Init@?$CA2WEX@$0IA@@ATL@@AAEXPBDI@Z 0041b0d0 f i Logger.obj
 0001:0001a190       ??$AtlConvAllocMemory@_W@ATL@@YAXPAPA_WHPA_WH@Z 0041b190 f i Logger.obj
 0001:0001a210       ?ocscpy_s@@YA_NPA_WIPB_W@Z 0041b210 f i main.obj
 0001:0001a240       ?AtlCrtErrorCheck@ATL@@YAHH@Z 0041b240 f i main.obj
 0001:0001a2e0       ?memcpy_s@Checked@ATL@@YAXPAXIPBXI@Z 0041b2e0 f i main.obj
 0001:0001a300       ??0CComCriticalSection@ATL@@QAE@XZ 0041b300 f i main.obj
 0001:0001a320       ?Init@CComCriticalSection@ATL@@QAEJXZ 0041b320 f i main.obj
 0001:0001a3a0       ?AtlHresultFromLastError@ATL@@YAJXZ 0041b3a0 f i main.obj
 0001:0001a3c0       ?AtlHresultFromWin32@ATL@@YAJK@Z 0041b3c0 f i main.obj
 0001:0001a3d0       ?AddCreateWndData@CAtlWinModule@ATL@@QAEXPAU_AtlCreateWndData@2@PAX@Z 0041b3d0 f i main.obj
 0001:0001a420       ??0CAtlModule@ATL@@QAE@XZ  0041b420 f i main.obj
 0001:0001a490       ?Lock@CAtlModule@ATL@@UAEJXZ 0041b490 f i main.obj
 0001:0001a4a0       ?Unlock@CAtlModule@ATL@@UAEJXZ 0041b4a0 f i main.obj
 0001:0001a4b0       ?GetLockCount@CAtlModule@ATL@@UAEJXZ 0041b4b0 f i main.obj
 0001:0001a4c0       ?GetGITPtr@CAtlModule@ATL@@UAEJPAPAUIGlobalInterfaceTable@@@Z 0041b4c0 f i main.obj
 0001:0001a520       ?EscapeSingleQuote@CAtlModule@ATL@@SAXPA_WIPB_W@Z 0041b520 f i main.obj
 0001:0001a570       ?UpdateRegistryFromResourceD@CComModule@ATL@@UAGJPB_WHPAU_ATL_REGMAP_ENTRY@2@@Z 0041b570 f i main.obj
 0001:0001a570       ?UpdateRegistryFromResourceD@CComModule@ATL@@UAGJIHPAU_ATL_REGMAP_ENTRY@2@@Z 0041b570 f i main.obj
 0001:0001a580       ?UpdateRegistryFromResourceS@CComModule@ATL@@UAGJPB_WHPAU_ATL_REGMAP_ENTRY@2@@Z 0041b580 f i main.obj
 0001:0001a5a0       ?UpdateRegistryFromResourceS@CComModule@ATL@@UAGJIHPAU_ATL_REGMAP_ENTRY@2@@Z 0041b5a0 f i main.obj
 0001:0001a5c0       ??1CRegKey@ATL@@QAE@XZ     0041b5c0 f i main.obj
 0001:0001a5e0       ?DeleteSubKey@CRegKey@ATL@@QAEJPB_W@Z 0041b5e0 f i main.obj
 0001:0001a640       ?Create@CRegKey@ATL@@QAEJPAUHKEY__@@PB_WPA_WKKPAU_SECURITY_ATTRIBUTES@@PAK@Z 0041b640 f i main.obj
 0001:0001a6a0       ?SetMultiStringValue@CRegKey@ATL@@QAEJPB_W0@Z 0041b6a0 f i main.obj
 0001:0001a6f0       ?RecurseDeleteKey@CRegKey@ATL@@QAEJPB_W@Z 0041b6f0 f i main.obj
 0001:0001a8a0       ?Add@CExpansionVector@ATL@@QAEHPB_W0@Z 0041b8a0 f i main.obj
 0001:0001aa30       ?ClearReplacements@CExpansionVector@ATL@@QAEJXZ 0041ba30 f i main.obj
 0001:0001aac0       ?EndOfVar@CRegParser@ATL@@IAEHXZ 0041bac0 f i main.obj
 0001:0001aaf0       ??1CParseBuffer@CRegParser@ATL@@QAE@XZ 0041baf0 f i main.obj
 0001:0001ab00       ?Append@CParseBuffer@CRegParser@ATL@@QAEHPB_WH@Z 0041bb00 f i main.obj
 0001:0001abb0       ?AddString@CParseBuffer@CRegParser@ATL@@QAEHPB_W@Z 0041bbb0 f i main.obj
 0001:0001ac20       ?QueryInterface@CRegObject@ATL@@UAGJABU_GUID@@PAPAX@Z 0041bc20 f i main.obj
 0001:0001ac30       ?AddRef@CRegObject@ATL@@UAGKXZ 0041bc30 f i main.obj
 0001:0001ac40       ?Release@CRegObject@ATL@@UAGKXZ 0041bc40 f i main.obj
 0001:0001ac50       ??1CRegObject@ATL@@UAE@XZ  0041bc50 f i main.obj
 0001:0001acc0       ??_ECRegObject@ATL@@UAEPAXI@Z 0041bcc0 f i  CIL library: CIL module
 0001:0001acc0       ??_GCRegObject@ATL@@UAEPAXI@Z 0041bcc0 f i main.obj
 0001:0001acf0       ?AddReplacement@CRegObject@ATL@@UAGJPB_W0@Z 0041bcf0 f i main.obj
 0001:0001ad90       ?RegisterFromResource@CRegObject@ATL@@IAEJPB_W00H@Z 0041bd90 f i main.obj
 0001:0001af60       ?ResourceRegister@CRegObject@ATL@@QAGJPB_WI0@Z 0041bf60 f i main.obj
 0001:0001afb0       ?ResourceRegisterSz@CRegObject@ATL@@QAGJPB_W00@Z 0041bfb0 f i main.obj
 0001:0001b020       ?ResourceUnregister@CRegObject@ATL@@QAGJPB_WI0@Z 0041c020 f i main.obj
 0001:0001b070       ?ResourceUnregisterSz@CRegObject@ATL@@QAGJPB_W00@Z 0041c070 f i main.obj
 0001:0001b0e0       ?ClearReplacements@CRegObject@ATL@@UAGJXZ 0041c0e0 f i main.obj
 0001:0001b110       ?StrFromMap@CRegObject@ATL@@QAEPB_WPA_W@Z 0041c110 f i main.obj
 0001:0001b180       ?VTFromRegType@CRegParser@ATL@@KAHPB_WAAG@Z 0041c180 f i main.obj
 0001:0001b230       ?ChToByte@CRegParser@ATL@@KAE_W@Z 0041c230 f i main.obj
 0001:0001b2a0       ?StrChrW@CRegParser@ATL@@KAPA_WPA_W_W@Z 0041c2a0 f i main.obj
 0001:0001b2e0       ?SkipWhiteSpace@CRegParser@ATL@@IAEXXZ 0041c2e0 f i main.obj
 0001:0001b330       ?NextToken@CRegParser@ATL@@IAEJPA_W@Z 0041c330 f i main.obj
 0001:0001b4b0       ?AddValue@CRegParser@ATL@@IAEJAAVCRegKey@2@PB_WPA_W@Z 0041c4b0 f i main.obj
 0001:0001b890       ?CanForceRemoveKey@CRegParser@ATL@@IAEHPB_W@Z 0041c890 f i main.obj
 0001:0001b8d0       ?HasSubKeys@CRegParser@ATL@@IAEHPAUHKEY__@@@Z 0041c8d0 f i main.obj
 0001:0001b920       ?SkipAssignment@CRegParser@ATL@@IAEJPA_W@Z 0041c920 f i main.obj
 0001:0001b980       ?PreProcessBuffer@CRegParser@ATL@@QAEJPA_WPAPA_W@Z 0041c980 f i main.obj
 0001:0001bc80       ?RegisterBuffer@CRegParser@ATL@@QAEJPA_WH@Z 0041cc80 f i main.obj
 0001:0001bdd0       ?RegisterSubkeys@CRegParser@ATL@@IAEJPA_WPAUHKEY__@@HH@Z 0041cdd0 f i main.obj
 0001:0001c580       ?UpdateRegistryFromResourceS@CAtlModule@ATL@@QAGJPB_WHPAU_ATL_REGMAP_ENTRY@2@@Z 0041d580 f i main.obj
 0001:0001c830       ?UpdateRegistryFromResourceS@CAtlModule@ATL@@QAGJIHPAU_ATL_REGMAP_ENTRY@2@@Z 0041d830 f i main.obj
 0001:0001cad0       ?Init@CComModule@ATL@@QAEJPAU_ATL_OBJMAP_ENTRY30@2@PAUHINSTANCE__@@PBU_GUID@@@Z 0041dad0 f i main.obj
 0001:0001cb10       ?Term@CComModule@ATL@@QAEXXZ 0041db10 f i main.obj
 0001:0001cbb0       ?AtlWinModuleExtractCreateWndData@ATL@@YGPAXPAU_ATL_WIN_MODULE70@1@@Z 0041dbb0 f i main.obj
 0001:0001cc30       ?AtlCallTermFunc@ATL@@YGXPAU_ATL_MODULE70@1@@Z 0041dc30 f i main.obj
 0001:0001cc80       ?Run@CMessageLoop@WTL@@QAEHXZ 0041dc80 f i main.obj
 0001:0001cd20       ?PreTranslateMessage@CMessageLoop@WTL@@UAEHPAUtagMSG@@@Z 0041dd20 f i main.obj
 0001:0001cd80       ?OnIdle@CMessageLoop@WTL@@UAEHH@Z 0041dd80 f i main.obj
 0001:0001cdd0       ?Init@CAppModule@WTL@@QAEJPAU_ATL_OBJMAP_ENTRY30@ATL@@PAUHINSTANCE__@@PBU_GUID@@@Z 0041ddd0 f i main.obj
 0001:0001ce90       ?Term@CAppModule@WTL@@QAEXXZ 0041de90 f i main.obj
 0001:0001cef0       ?TermSettingChangeNotify@CAppModule@WTL@@QAEXXZ 0041def0 f i main.obj
 0001:0001cf70       ??_ECComModule@ATL@@UAEPAXI@Z 0041df70 f i  CIL library: CIL module
 0001:0001cf70       ??_ECAppModule@WTL@@UAEPAXI@Z 0041df70 f i  CIL library: CIL module
 0001:0001cf70       ??_GCAppModule@WTL@@UAEPAXI@Z 0041df70 f i main.obj
 0001:0001cf70       ??_GCComModule@ATL@@UAEPAXI@Z 0041df70 f i main.obj
 0001:0001cfd0       ??1IATReferenceScan@@QAE@XZ 0041dfd0 f i main.obj
 0001:0001d0c0       _wWinMain@16               0041e0c0 f   main.obj
 0001:0001d0e0       ?InitializeGui@@YAHPAUHINSTANCE__@@J@Z 0041e0e0 f   main.obj
 0001:0001d280       ??1MainGui@@UAE@XZ         0041e280 f i main.obj
 0001:0001d430       ??1CMessageLoop@WTL@@QAE@XZ 0041e430 f i main.obj
 0001:0001d470       ??1CMultiSelectTreeViewCtrl@@UAE@XZ 0041e470 f i main.obj
 0001:0001d4c0       ?HandleUnknownException@@YGJPAU_EXCEPTION_POINTERS@@@Z 0041e4c0 f   main.obj
 0001:0001d690       ??1?$CAtlSafeAllocBufferManager@VCCRTAllocator@ATL@@@_ATL_SAFE_ALLOCA_IMPL@ATL@@QAE@XZ 0041e690 f i main.obj
 0001:0001d6b0       ?AddCommonRGSReplacements@?$CAtlModuleT@VCComModule@ATL@@@ATL@@UAEJPAUIRegistrarBase@@@Z 0041e6b0 f i main.obj
 0001:0001d6d0       ??1?$CAutoVectorPtr@_W@ATL@@QAE@XZ 0041e6d0 f i main.obj
 0001:0001d6f0       ??1?$CTempBuffer@_W$0EAA@VCCRTAllocator@ATL@@@ATL@@QAE@XZ 0041e6f0 f i main.obj
 0001:0001d6f0       ??1?$CTempBuffer@_W$0BAA@VCCRTAllocator@ATL@@@ATL@@QAE@XZ 0041e6f0 f i main.obj
 0001:0001d6f0       ??1?$CTempBuffer@E$0BAA@VCCRTAllocator@ATL@@@ATL@@QAE@XZ 0041e6f0 f i main.obj
 0001:0001d700       ?Allocate@?$CTempBuffer@_W$0EAA@VCCRTAllocator@ATL@@@ATL@@QAEPA_WI@Z 0041e700 f i main.obj
 0001:0001d740       ?Allocate@?$CTempBuffer@_W$0BAA@VCCRTAllocator@ATL@@@ATL@@QAEPA_WI@Z 0041e740 f i main.obj
 0001:0001d780       ?Add@?$CSimpleMap@PA_WPA_WVCExpansionVectorEqualHelper@ATL@@@ATL@@QAEHABQA_W0@Z 0041e780 f i main.obj
 0001:0001d780       ?Add@?$CSimpleMap@KPAVCMessageLoop@WTL@@V?$CSimpleMapEqualHelper@KPAVCMessageLoop@WTL@@@ATL@@@ATL@@QAEHABKABQAVCMessageLoop@WTL@@@Z 0041e780 f i main.obj
 0001:0001d7f0       ?Create@?$CDialogImpl@VMainGui@@VCWindow@ATL@@@ATL@@QAEPAUHWND__@@PAU3@J@Z 0041e7f0 f i main.obj
 0001:0001d870       ??1?$_Vector_val@VPlugin@@V?$allocator@VPlugin@@@std@@@std@@QAE@XZ 0041e870 f i Scylla.obj
 0001:0001d870       ??1?$_Tree_val@V?$_Tset_traits@KU?$less@K@std@@V?$allocator@K@2@$0A@@std@@@std@@QAE@XZ 0041e870 f i IATReferenceScan.obj
 0001:0001d870       ??1?$_Vector_val@VIATReference@@V?$allocator@VIATReference@@@std@@@std@@QAE@XZ 0041e870 f i main.obj
 0001:0001d870       ??1?$_Vector_val@VDisassemblerAddressComment@@V?$allocator@VDisassemblerAddressComment@@@std@@@std@@QAE@XZ 0041e870 f i DisassemblerGui.obj
 0001:0001d870       ??1?$_Vector_val@VHardDisk@@V?$allocator@VHardDisk@@@std@@@std@@QAE@XZ 0041e870 f i DeviceNameResolver.obj
 0001:0001d870       ??1?$_List_val@U?$pair@QAU_TREEITEM@@UTreeItemData@ImportsHandling@@@std@@V?$allocator@U?$pair@QAU_TREEITEM@@UTreeItemData@ImportsHandling@@@std@@@2@@std@@QAE@XZ 0041e870 f i ImportsHandling.obj
 0001:0001d870       ??1?$_Vector_val@U_List_position@?$_Hash@V?$_Hmap_traits@KPAVApiInfo@@V?$hash_compare@KU?$less@K@std@@@stdext@@V?$allocator@U?$pair@$$CBKPAVApiInfo@@@std@@@std@@$00@stdext@@@stdext@@V?$allocator@U_List_position@?$_Hash@V?$_Hmap_traits@KPAVApiInfo@@V?$hash_compare@KU?$less@K@std@@@stdext@@V?$allocator@U?$pair@$$CBKPAVApiInfo@@@std@@@std@@$00@stdext@@@stdext@@@std@@@std@@QAE@XZ 0041e870 f i ApiReader.obj
 0001:0001d870       ??1?$_List_val@U?$pair@$$CBKPAVApiInfo@@@std@@V?$allocator@U?$pair@$$CBKPAVApiInfo@@@std@@@2@@std@@QAE@XZ 0041e870 f i ApiReader.obj
 0001:0001d870       ??1?$_Vector_val@VPeFileSection@@V?$allocator@VPeFileSection@@@std@@@std@@QAE@XZ 0041e870 f i PeParser.obj
 0001:0001d870       ??1?$_Vector_val@VModuleInfo@@V?$allocator@VModuleInfo@@@std@@@std@@QAE@XZ 0041e870 f i ProcessAccessHelp.obj
 0001:0001d870       ??1?$_Vector_val@VMemory@@V?$allocator@VMemory@@@std@@@std@@QAE@XZ 0041e870 f i DumpMemoryGui.obj
 0001:0001d870       ??1?$_Tree_val@V?$_Tmap_traits@KVImportThunk@@U?$less@K@std@@V?$allocator@U?$pair@$$CBKVImportThunk@@@std@@@3@$0A@@std@@@std@@QAE@XZ 0041e870 f i ApiReader.obj
 0001:0001d870       ??1?$_Vector_val@U_List_position@?$_Hash@V?$_Hmap_traits@PAU_TREEITEM@@UTreeItemData@ImportsHandling@@V?$hash_compare@PAU_TREEITEM@@U?$less@PAU_TREEITEM@@@std@@@stdext@@V?$allocator@U?$pair@QAU_TREEITEM@@UTreeItemData@ImportsHandling@@@std@@@std@@$0A@@stdext@@@stdext@@V?$allocator@U_List_position@?$_Hash@V?$_Hmap_traits@PAU_TREEITEM@@UTreeItemData@ImportsHandling@@V?$hash_compare@PAU_TREEITEM@@U?$less@PAU_TREEITEM@@@std@@@stdext@@V?$allocator@U?$pair@QAU_TREEITEM@@UTreeItemData@ImportsHandling@@@std@@@std@@$0A@@stdext@@@stdext@@@std@@@std@@QAE@XZ 0041e870 f i ImportsHandling.obj
 0001:0001d870       ??1?$_Vector_val@VPeSection@@V?$allocator@VPeSection@@@std@@@std@@QAE@XZ 0041e870 f i DumpSectionGui.obj
 0001:0001d870       ??1?$_Tree_val@V?$_Tmap_traits@W4ConfigOption@@VConfiguration@@U?$less@W4ConfigOption@@@std@@V?$allocator@U?$pair@$$CBW4ConfigOption@@VConfiguration@@@std@@@4@$0A@@std@@@std@@QAE@XZ 0041e870 f i ConfigurationHolder.obj
 0001:0001d870       ??1?$_Vector_val@PAVApiInfo@@V?$allocator@PAVApiInfo@@@std@@@std@@QAE@XZ 0041e870 f i PickApiGui.obj
 0001:0001d870       ??1?$_Tree_val@V?$_Tmap_traits@KVImportModuleThunk@@U?$less@K@std@@V?$allocator@U?$pair@$$CBKVImportModuleThunk@@@std@@@3@$0A@@std@@@std@@QAE@XZ 0041e870 f i FunctionExport.obj
 0001:0001d870       ??1?$_Vector_val@KV?$allocator@K@std@@@std@@QAE@XZ 0041e870 f i DisassemblerGui.obj
 0001:0001d880       ?FindKey@?$CSimpleMap@PA_WPA_WVCExpansionVectorEqualHelper@ATL@@@ATL@@QBEHABQA_W@Z 0041e880 f i main.obj
 0001:0001d8c0       ?FreeHeap@?$CTempBuffer@_W$0EAA@VCCRTAllocator@ATL@@@ATL@@AAEXXZ 0041e8c0 f i main.obj
 0001:0001d8c0       ?FreeHeap@?$CTempBuffer@_W$0BAA@VCCRTAllocator@ATL@@@ATL@@AAEXXZ 0041e8c0 f i main.obj
 0001:0001d8c0       ?FreeHeap@?$CTempBuffer@E$0BAA@VCCRTAllocator@ATL@@@ATL@@AAEXXZ 0041e8c0 f i main.obj
 0001:0001d8d0       ?AllocateHeap@?$CTempBuffer@_W$0BAA@VCCRTAllocator@ATL@@@ATL@@AAEXI@Z 0041e8d0 f i main.obj
 0001:0001d8d0       ?AllocateHeap@?$CTempBuffer@_W$0EAA@VCCRTAllocator@ATL@@@ATL@@AAEXI@Z 0041e8d0 f i main.obj
 0001:0001d8d0       ?AllocateHeap@?$CTempBuffer@E$0BAA@VCCRTAllocator@ATL@@@ATL@@AAEXI@Z 0041e8d0 f i main.obj
 0001:0001d900       ?StartDialogProc@?$CDialogImplBaseT@VCWindow@ATL@@@ATL@@SGHPAUHWND__@@IIJ@Z 0041e900 f i main.obj
 0001:0001d960       ?ResizeClient@CWindow@ATL@@QAEHHHH@Z 0041e960 f i MainGui.obj
 0001:0001da10       ??0IATReferenceScan@@QAE@XZ 0041ea10 f i MainGui.obj
 0001:0001da80       ?DoDataExchange@MainGui@@QAEHHI@Z 0041ea80 f i MainGui.obj
 0001:0001dc20       ?ProcessWindowMessage@MainGui@@UAEHPAUHWND__@@IIJAAJK@Z 0041ec20 f i MainGui.obj
 0001:0001dc50       ?_ProcessWindowMessage@MainGui@@QAEHPAUHWND__@@IIJAAJK@Z 0041ec50 f i MainGui.obj
 0001:0001e2c0       ??1DllInjectionPlugin@@QAE@XZ 0041f2c0 f i MainGui.obj
 0001:0001e2f0       ?ProcessWindowMessage@AboutGui@@UAEHPAUHWND__@@IIJAAJK@Z 0041f2f0 f i MainGui.obj
 0001:0001e600       ?ProcessWindowMessage@DonateGui@@UAEHPAUHWND__@@IIJAAJK@Z 0041f600 f i MainGui.obj
 0001:0001e720       ?ProcessWindowMessage@OptionsGui@@UAEHPAUHWND__@@IIJAAJK@Z 0041f720 f i MainGui.obj
 0001:0001e840       ??0MainGui@@QAE@XZ         0041f840 f   MainGui.obj
 0001:0001eab0       ??_EMainGui@@UAEPAXI@Z     0041fab0 f i  CIL library: CIL module
 0001:0001eab0       ??_GMainGui@@UAEPAXI@Z     0041fab0 f i MainGui.obj
 0001:0001eae0       ??_GCMultiSelectTreeViewCtrl@@UAEPAXI@Z 0041fae0 f i MainGui.obj
 0001:0001eae0       ??_ECMultiSelectTreeViewCtrl@@UAEPAXI@Z 0041fae0 f i  CIL library: CIL module
 0001:0001eb40       ?PreTranslateMessage@MainGui@@MAEHPAUtagMSG@@@Z 0041fb40 f   MainGui.obj
 0001:0001eb90       ?InitDllStartWithPreSelect@MainGui@@IAEXPAU_GUI_DLL_PARAMETER@@@Z 0041fb90 f   MainGui.obj
 0001:0001ee50       ?OnInitDialog@MainGui@@IAEHVCWindow@ATL@@J@Z 0041fe50 f   MainGui.obj
 0001:0001efb0       ?OnContextMenu@MainGui@@IAEXVCWindow@ATL@@VCPoint@WTL@@@Z 0041ffb0 f   MainGui.obj
 0001:0001f010       ?OnCommand@MainGui@@IAEXIHVCWindow@ATL@@@Z 00420010 f   MainGui.obj
 0001:0001f090       ?OnTreeImportsDoubleClick@MainGui@@IAEJPBUtagNMHDR@@@Z 00420090 f   MainGui.obj
 0001:0001f110       ?OnTreeImportsKeyDown@MainGui@@IAEJPBUtagNMHDR@@@Z 00420110 f   MainGui.obj
 0001:0001f1a0       ?OnInvalidImports@MainGui@@IAEXIHVCWindow@ATL@@@Z 004201a0 f   MainGui.obj
 0001:0001f1d0       ?OnSuspectImports@MainGui@@IAEXIHVCWindow@ATL@@@Z 004201d0 f   MainGui.obj
 0001:0001f200       ?OnClearImports@MainGui@@IAEXIHVCWindow@ATL@@@Z 00420200 f   MainGui.obj
 0001:0001f220       ?OnExit@MainGui@@IAEXIHVCWindow@ATL@@@Z 00420220 f   MainGui.obj
 0001:0001f290       ?setupStatusBar@MainGui@@IAEXXZ 00420290 f   MainGui.obj
 0001:0001f390       ?updateStatusBar@MainGui@@IAEXXZ 00420390 f   MainGui.obj
 0001:0001f500       ?showFileDialog@MainGui@@IAE_NPA_W_NPB_W222@Z 00420500 f   MainGui.obj
 0001:0001f5b0       ?pickDllActionHandler@MainGui@@IAEXXZ 004205b0 f   MainGui.obj
 0001:0001f730       ?pickApiActionHandler@MainGui@@IAEXV?$CTreeItemT@VCWindow@ATL@@@WTL@@@Z 00420730 f   MainGui.obj
 0001:0001f8a0       ??1PickApiGui@@UAE@XZ      004208a0 f i MainGui.obj
 0001:0001f8a0       ??1PickDllGui@@UAE@XZ      004208a0 f i MainGui.obj
 0001:0001f8e0       ?startDisassemblerGui@MainGui@@IAEXV?$CTreeItemT@VCWindow@ATL@@@WTL@@@Z 004208e0 f   MainGui.obj
 0001:0001fa00       ?processSelectedActionHandler@MainGui@@IAEXH@Z 00420a00 f   MainGui.obj
 0001:0001fb50       ?fillProcessListComboBox@MainGui@@IAEXAAV?$CComboBoxT@VCWindow@ATL@@@WTL@@@Z 00420b50 f   MainGui.obj
 0001:0001fc70       ?saveLogToFile@MainGui@@IAE_NPB_W@Z 00420c70 f   MainGui.obj
 0001:0001fe50       ?deleteSelectedImportsActionHandler@MainGui@@IAEXXZ 00420e50 f   MainGui.obj
 0001:0001ff40       ?invalidateSelectedImportsActionHandler@MainGui@@IAEXXZ 00420f40 f   MainGui.obj
 0001:00020030       ?loadTreeActionHandler@MainGui@@IAEXXZ 00421030 f   MainGui.obj
 0001:00020250       ?saveTreeActionHandler@MainGui@@IAEXXZ 00421250 f   MainGui.obj
 0001:00020400       ?iatAutosearchActionHandler@MainGui@@IAEXXZ 00421400 f   MainGui.obj
 0001:000205b0       ?getImportsActionHandler@MainGui@@IAEXXZ 004215b0 f   MainGui.obj
 0001:000207b0       ?SetupImportsMenuItems@MainGui@@IAEXV?$CTreeItemT@VCWindow@ATL@@@WTL@@@Z 004217b0 f   MainGui.obj
 0001:00020860       ?DisplayContextMenuImports@MainGui@@IAEXVCWindow@ATL@@VCPoint@WTL@@@Z 00421860 f   MainGui.obj
 0001:00020bd0       ?DisplayContextMenuLog@MainGui@@IAEXVCWindow@ATL@@VCPoint@WTL@@@Z 00421bd0 f   MainGui.obj
 0001:00020d80       ?appendPluginListToMenu@MainGui@@IAEXV?$CMenuT@$0A@@WTL@@@Z 00421d80 f   MainGui.obj
 0001:00020f30       ?dumpMemoryActionHandler@MainGui@@IAEXXZ 00421f30 f   MainGui.obj
 0001:000210f0       ?dumpSectionActionHandler@MainGui@@IAEXXZ 004220f0 f   MainGui.obj
 0001:000213f0       ?dumpActionHandler@MainGui@@IAEXXZ 004223f0 f   MainGui.obj
 0001:00021690       ?peRebuildActionHandler@MainGui@@IAEXXZ 00422690 f   MainGui.obj
 0001:00021a00       ?dumpFixActionHandler@MainGui@@IAEXXZ 00422a00 f   MainGui.obj
 0001:00021dc0       ?enableDialogControls@MainGui@@IAEXH@Z 00422dc0 f   MainGui.obj
 0001:00021f60       ?findTreeItem@MainGui@@IAE?AV?$CTreeItemT@VCWindow@ATL@@@WTL@@VCPoint@3@_N@Z 00422f60 f   MainGui.obj
 0001:00021fd0       ?showAboutDialog@MainGui@@IAEXXZ 00422fd0 f   MainGui.obj
 0001:00022080       ??_G?$CHexEdit@K@@UAEPAXI@Z 00423080 f i DisassemblerGui.obj
 0001:00022080       ??_GAboutGui@@UAEPAXI@Z    00423080 f i MainGui.obj
 0001:00022080       ??_EAboutGui@@UAEPAXI@Z    00423080 f i  CIL library: CIL module
 0001:00022080       ??_GOptionsGui@@UAEPAXI@Z  00423080 f i MainGui.obj
 0001:00022080       ??_E?$CHexEdit@K@@UAEPAXI@Z 00423080 f i  CIL library: CIL module
 0001:00022080       ??_EDonateGui@@UAEPAXI@Z   00423080 f i  CIL library: CIL module
 0001:00022080       ??_GDonateGui@@UAEPAXI@Z   00423080 f i MainGui.obj
 0001:00022080       ??_EOptionsGui@@UAEPAXI@Z  00423080 f i  CIL library: CIL module
 0001:000220b0       ?showDonateDialog@MainGui@@IAEXXZ 004230b0 f   MainGui.obj
 0001:00022130       ?dllInjectActionHandler@MainGui@@IAEXXZ 00423130 f   MainGui.obj
 0001:000222b0       ?disassemblerActionHandler@MainGui@@IAEXXZ 004232b0 f   MainGui.obj
 0001:00022370       ?optionsActionHandler@MainGui@@IAEXXZ 00423370 f   MainGui.obj
 0001:00022400       ?pluginActionHandler@MainGui@@IAEXH@Z 00423400 f   MainGui.obj
 0001:00022550       ?getCurrentModulePath@MainGui@@IAE_NPA_WI@Z 00423550 f   MainGui.obj
 0001:000225a0       ?checkSuspendProcess@MainGui@@IAEXXZ 004235a0 f   MainGui.obj
 0001:00022620       ?setDialogIATAddressAndSize@MainGui@@IAEXKK@Z 00423620 f   MainGui.obj
 0001:000226d0       ?isIATOutsidePeImage@MainGui@@IAE_NK@Z 004236d0 f   MainGui.obj
 0001:00022710       ?getCurrentDefaultDumpFilename@MainGui@@IAE_NPA_WI@Z 00423710 f   MainGui.obj
 0001:00022790       ?Add@?$CSimpleArray@PAVCMessageFilter@WTL@@V?$CSimpleArrayEqualHelper@PAVCMessageFilter@WTL@@@ATL@@@ATL@@QAEHABQAVCMessageFilter@WTL@@@Z 00423790 f i MainGui.obj
 0001:00022800       ?Lookup@?$CSimpleMap@KPAVCMessageLoop@WTL@@V?$CSimpleMapEqualHelper@KPAVCMessageLoop@WTL@@@ATL@@@ATL@@QBEPAVCMessageLoop@WTL@@ABK@Z 00423800 f i MainGui.obj
 0001:00022850       ?GetFirstSelectedItem@?$CMultiSelectTreeViewImpl@VCMultiSelectTreeViewCtrl@@V?$CTreeViewCtrlExT@VCWindow@ATL@@@WTL@@V?$CWinTraitsOR@$0CA@$0A@V?$CWinTraits@$0FGAAAAAA@$0A@@ATL@@@ATL@@@@QBE?AV?$CTreeItemT@VCWindow@ATL@@@WTL@@XZ 00423850 f i MainGui.obj
 0001:000228b0       ?GetNextSelectedItem@?$CMultiSelectTreeViewImpl@VCMultiSelectTreeViewCtrl@@V?$CTreeViewCtrlExT@VCWindow@ATL@@@WTL@@V?$CWinTraitsOR@$0CA@$0A@V?$CWinTraits@$0FGAAAAAA@$0A@@ATL@@@ATL@@@@QBE?AV?$CTreeItemT@VCWindow@ATL@@@WTL@@PAU_TREEITEM@@@Z 004238b0 f i MainGui.obj
 0001:00022940       ?ProcessWindowMessage@?$CMultiSelectTreeViewImpl@VCMultiSelectTreeViewCtrl@@V?$CTreeViewCtrlExT@VCWindow@ATL@@@WTL@@V?$CWinTraitsOR@$0CA@$0A@V?$CWinTraits@$0FGAAAAAA@$0A@@ATL@@@ATL@@@@UAEHPAUHWND__@@IIJAAJK@Z 00423940 f i MainGui.obj
 0001:00022970       ?at@?$vector@VProcess@@V?$allocator@VProcess@@@std@@@std@@QAEAAVProcess@@I@Z 00423970 f i MainGui.obj
 0001:00022a10       ?at@?$vector@VModuleInfo@@V?$allocator@VModuleInfo@@@std@@@std@@QAEAAVModuleInfo@@I@Z 00423a10 f i MainGui.obj
 0001:00022ac0       ?DoModal@?$CDialogImpl@VPickDllGui@@VCWindow@ATL@@@ATL@@QAEHPAUHWND__@@J@Z 00423ac0 f i MainGui.obj
 0001:00022b40       ?DoModal@?$CDialogImpl@VDumpMemoryGui@@VCWindow@ATL@@@ATL@@QAEHPAUHWND__@@J@Z 00423b40 f i MainGui.obj
 0001:00022bc0       ?DoModal@?$CDialogImpl@VDumpSectionGui@@VCWindow@ATL@@@ATL@@QAEHPAUHWND__@@J@Z 00423bc0 f i MainGui.obj
 0001:00022c40       ?DlgResize_Init@?$CDialogResize@VMainGui@@@WTL@@QAEX_N0K@Z 00423c40 f i MainGui.obj
 0001:00022fa0       ?ProcessWindowMessage@?$CDialogResize@VMainGui@@@WTL@@QAEHPAUHWND__@@IIJAAJK@Z 00423fa0 f i MainGui.obj
 0001:00023000       ?DoModal@?$CDialogImpl@VDisassemblerGui@@VCWindow@ATL@@@ATL@@QAEHPAUHWND__@@J@Z 00424000 f i MainGui.obj
 0001:00023080       ?DoModal@?$CDialogImpl@VPickApiGui@@VCWindow@ATL@@@ATL@@QAEHPAUHWND__@@J@Z 00424080 f i MainGui.obj
 0001:00023100       ?DoModal@?$CDialogImpl@VAboutGui@@VCWindow@ATL@@@ATL@@QAEHPAUHWND__@@J@Z 00424100 f i MainGui.obj
 0001:00023180       ?DoModal@?$CDialogImpl@VDonateGui@@VCWindow@ATL@@@ATL@@QAEHPAUHWND__@@J@Z 00424180 f i MainGui.obj
 0001:00023200       ?DoModal@?$CDialogImpl@VOptionsGui@@VCWindow@ATL@@@ATL@@QAEHPAUHWND__@@J@Z 00424200 f i MainGui.obj
 0001:00023280       ?GetSubMenu@?$CMenuT@$0A@@WTL@@QBE?AV12@H@Z 00424280 f i MainGui.obj
 0001:00023290       ?_ProcessWindowMessage@?$CMultiSelectTreeViewImpl@VCMultiSelectTreeViewCtrl@@V?$CTreeViewCtrlExT@VCWindow@ATL@@@WTL@@V?$CWinTraitsOR@$0CA@$0A@V?$CWinTraits@$0FGAAAAAA@$0A@@ATL@@@ATL@@@@QAEHPAUHWND__@@IIJAAJK@Z 00424290 f i MainGui.obj
 0001:000234d0       ?_Xran@?$vector@VModuleInfo@@V?$allocator@VModuleInfo@@@std@@@std@@KAXXZ 004244d0 f i MainGui.obj
 0001:000234d0       ?_Xran@?$vector@VProcess@@V?$allocator@VProcess@@@std@@@std@@KAXXZ 004244d0 f i MainGui.obj
 0001:00023540       ?OnSize@?$CDialogResize@VMainGui@@@WTL@@QAEJIIJAAH@Z 00424540 f i MainGui.obj
 0001:000235a0       ?OnCreate@?$CMultiSelectTreeViewImpl@VCMultiSelectTreeViewCtrl@@V?$CTreeViewCtrlExT@VCWindow@ATL@@@WTL@@V?$CWinTraitsOR@$0CA@$0A@V?$CWinTraits@$0FGAAAAAA@$0A@@ATL@@@ATL@@@@QAEJIIJ@Z 004245a0 f i MainGui.obj
 0001:000235f0       ?OnKeyDown@?$CMultiSelectTreeViewImpl@VCMultiSelectTreeViewCtrl@@V?$CTreeViewCtrlExT@VCWindow@ATL@@@WTL@@V?$CWinTraitsOR@$0CA@$0A@V?$CWinTraits@$0FGAAAAAA@$0A@@ATL@@@ATL@@@@QAEXIII@Z 004245f0 f i MainGui.obj
 0001:00023690       ?OnKeyUp@?$CMultiSelectTreeViewImpl@VCMultiSelectTreeViewCtrl@@V?$CTreeViewCtrlExT@VCWindow@ATL@@@WTL@@V?$CWinTraitsOR@$0CA@$0A@V?$CWinTraits@$0FGAAAAAA@$0A@@ATL@@@ATL@@@@QAEXIII@Z 00424690 f i MainGui.obj
 0001:00023770       ?OnChar@?$CMultiSelectTreeViewImpl@VCMultiSelectTreeViewCtrl@@V?$CTreeViewCtrlExT@VCWindow@ATL@@@WTL@@V?$CWinTraitsOR@$0CA@$0A@V?$CWinTraits@$0FGAAAAAA@$0A@@ATL@@@ATL@@@@QAEXIII@Z 00424770 f i MainGui.obj
 0001:000237f0       ?OnSetFocus@?$CMultiSelectTreeViewImpl@VCMultiSelectTreeViewCtrl@@V?$CTreeViewCtrlExT@VCWindow@ATL@@@WTL@@V?$CWinTraitsOR@$0CA@$0A@V?$CWinTraits@$0FGAAAAAA@$0A@@ATL@@@ATL@@@@QAEXVCWindow@ATL@@@Z 004247f0 f i MainGui.obj
 0001:00023830       ?OnLButtonDown@?$CMultiSelectTreeViewImpl@VCMultiSelectTreeViewCtrl@@V?$CTreeViewCtrlExT@VCWindow@ATL@@@WTL@@V?$CWinTraitsOR@$0CA@$0A@V?$CWinTraits@$0FGAAAAAA@$0A@@ATL@@@ATL@@@@QAEXIVCPoint@WTL@@@Z 00424830 f i MainGui.obj
 0001:00023ae0       ?OnMouseMove@?$CMultiSelectTreeViewImpl@VCMultiSelectTreeViewCtrl@@V?$CTreeViewCtrlExT@VCWindow@ATL@@@WTL@@V?$CWinTraitsOR@$0CA@$0A@V?$CWinTraits@$0FGAAAAAA@$0A@@ATL@@@ATL@@@@QAEXIVCPoint@WTL@@@Z 00424ae0 f i MainGui.obj
 0001:00023b90       ?OnInsertItem@?$CMultiSelectTreeViewImpl@VCMultiSelectTreeViewCtrl@@V?$CTreeViewCtrlExT@VCWindow@ATL@@@WTL@@V?$CWinTraitsOR@$0CA@$0A@V?$CWinTraits@$0FGAAAAAA@$0A@@ATL@@@ATL@@@@QAEJIIJ@Z 00424b90 f i MainGui.obj
 0001:00023be0       ?OnDeleteItem@?$CMultiSelectTreeViewImpl@VCMultiSelectTreeViewCtrl@@V?$CTreeViewCtrlExT@VCWindow@ATL@@@WTL@@V?$CWinTraitsOR@$0CA@$0A@V?$CWinTraits@$0FGAAAAAA@$0A@@ATL@@@ATL@@@@QAEJPAUtagNMHDR@@@Z 00424be0 f i MainGui.obj
 0001:00023c20       ?ProcessWindowMessage@?$CCustomDraw@VCMultiSelectTreeViewCtrl@@@WTL@@QAEHPAUHWND__@@IIJAAJK@Z 00424c20 f i MainGui.obj
 0001:00023c60       ?DlgResize_UpdateLayout@?$CDialogResize@VMainGui@@@WTL@@QAEXHH@Z 00424c60 f i MainGui.obj
 0001:00023e90       ?Add@?$CSimpleMap@PAU_TREEITEM@@_NV?$CSimpleMapEqualHelper@PAU_TREEITEM@@_N@ATL@@@ATL@@QAEHABQAU_TREEITEM@@AB_N@Z 00424e90 f i MainGui.obj
 0001:00023f00       ?IsItemSelected@?$CMultiSelectTreeViewImpl@VCMultiSelectTreeViewCtrl@@V?$CTreeViewCtrlExT@VCWindow@ATL@@@WTL@@V?$CWinTraitsOR@$0CA@$0A@V?$CWinTraits@$0FGAAAAAA@$0A@@ATL@@@ATL@@@@QAEHPAU_TREEITEM@@@Z 00424f00 f i MainGui.obj
 0001:00023f50       ?_SelectTree@?$CMultiSelectTreeViewImpl@VCMultiSelectTreeViewCtrl@@V?$CTreeViewCtrlExT@VCWindow@ATL@@@WTL@@V?$CWinTraitsOR@$0CA@$0A@V?$CWinTraits@$0FGAAAAAA@$0A@@ATL@@@ATL@@@@QAEXPAU_TREEITEM@@0H@Z 00424f50 f i MainGui.obj
 0001:00023fd0       ?_SelectBox@?$CMultiSelectTreeViewImpl@VCMultiSelectTreeViewCtrl@@V?$CTreeViewCtrlExT@VCWindow@ATL@@@WTL@@V?$CWinTraitsOR@$0CA@$0A@V?$CWinTraits@$0FGAAAAAA@$0A@@ATL@@@ATL@@@@QAEXVCRect@WTL@@@Z 00424fd0 f i MainGui.obj
 0001:000240e0       ?_DrawDragRect@?$CMultiSelectTreeViewImpl@VCMultiSelectTreeViewCtrl@@V?$CTreeViewCtrlExT@VCWindow@ATL@@@WTL@@V?$CWinTraitsOR@$0CA@$0A@V?$CWinTraits@$0FGAAAAAA@$0A@@ATL@@@ATL@@@@QAEXVCPoint@WTL@@@Z 004250e0 f i MainGui.obj
 0001:00024160       ?OnCustomDraw@?$CCustomDraw@VCMultiSelectTreeViewCtrl@@@WTL@@QAEJHPAUtagNMHDR@@AAH@Z 00425160 f i MainGui.obj
 0001:00024210       ?DlgResize_PositionControl@?$CDialogResize@VMainGui@@@WTL@@QAE_NHHAAUtagRECT@@AAU_AtlDlgResizeData@12@_NPAU412@@Z 00425210 f i MainGui.obj
 0001:00024580       ?DrawDragRect@?$CDCT@$00@WTL@@QAEXPBUtagRECT@@UtagSIZE@@01PAUHBRUSH__@@2@Z 00425580 f i MainGui.obj
 0001:000246a0       ?RemoveAt@?$CSimpleMap@PAU_TREEITEM@@_NV?$CSimpleMapEqualHelper@PAU_TREEITEM@@_N@ATL@@@ATL@@QAEHH@Z 004256a0 f i MainGui.obj
 0001:00024750       ?_SelectTreeSub@?$CMultiSelectTreeViewImpl@VCMultiSelectTreeViewCtrl@@V?$CTreeViewCtrlExT@VCWindow@ATL@@@WTL@@V?$CWinTraitsOR@$0CA@$0A@V?$CWinTraits@$0FGAAAAAA@$0A@@ATL@@@ATL@@@@QAE_NPAU_TREEITEM@@0H@Z 00425750 f i MainGui.obj
 0001:00024800       ?OnItemPrePaint@?$CMultiSelectTreeViewImpl@VCMultiSelectTreeViewCtrl@@V?$CTreeViewCtrlExT@VCWindow@ATL@@@WTL@@V?$CWinTraitsOR@$0CA@$0A@V?$CWinTraits@$0FGAAAAAA@$0A@@ATL@@@ATL@@@@QAEKHPAUtagNMCUSTOMDRAWINFO@@@Z 00425800 f i MainGui.obj
 0001:000248d0       ?GetHalftoneBrush@?$CDCT@$0A@@WTL@@SG?AV?$CBrushT@$0A@@2@XZ 004258d0 f i MainGui.obj
 0001:00024960       ?ReflectNotifications@?$CWindowImplRoot@VCWindow@ATL@@@ATL@@QAEJIIJAAH@Z 00425960 f i MainGui.obj
 0001:00024a50       ??$DDX_Control@VCMultiSelectTreeViewCtrl@@@?$CWinDataExchange@VMainGui@@@WTL@@QAEXIAAVCMultiSelectTreeViewCtrl@@H@Z 00425a50 f i MainGui.obj
 0001:00024ab0       ?SubclassWindow@?$CContainedWindowT@VCWindow@ATL@@V?$CWinTraits@$0FGAAAAAA@$0A@@2@@ATL@@QAEHPAUHWND__@@@Z 00425ab0 f i MainGui.obj
 0001:00024b10       ?WindowProc@?$CContainedWindowT@VCWindow@ATL@@V?$CWinTraits@$0FGAAAAAA@$0A@@2@@ATL@@SGJPAUHWND__@@IIJ@Z 00425b10 f i MainGui.obj
 0001:00024c30       ?SubclassWindow@?$CWindowImplBaseT@V?$CEditT@VCWindow@ATL@@@WTL@@V?$CWinTraits@$0FGAAAAAA@$0A@@ATL@@@ATL@@QAEHPAUHWND__@@@Z 00425c30 f i DisassemblerGui.obj
 0001:00024c30       ?SubclassWindow@?$CWindowImplBaseT@V?$CTreeViewCtrlExT@VCWindow@ATL@@@WTL@@V?$CWinTraitsOR@$0CA@$0A@V?$CWinTraits@$0FGAAAAAA@$0A@@ATL@@@ATL@@@ATL@@QAEHPAUHWND__@@@Z 00425c30 f i MainGui.obj
 0001:00024ca0       ?initialize@NativeWinApi@@SAXXZ 00425ca0 f   NativeWinApi.obj
 0001:00024dd0       ?DoDataExchange@OptionsGui@@QAEHHI@Z 00425dd0 f i OptionsGui.obj
 0001:000253e0       ?saveOptions@OptionsGui@@IBEXXZ 004263e0 f   OptionsGui.obj
 0001:00025650       ?loadOptions@OptionsGui@@IAEXXZ 00426650 f   OptionsGui.obj
 0001:000258a0       ?DDX_Text@?$CWinDataExchange@VOptionsGui@@@WTL@@QAEHIPA_WHHHH@Z 004268a0 f i OptionsGui.obj
 0001:00025950       ??0PeParser@@QAE@PB_W_N@Z  00426950 f   PeParser.obj
 0001:00025a00       ??0PeParser@@QAE@K_N@Z     00426a00 f   PeParser.obj
 0001:00025ab0       ??1PeParser@@QAE@XZ        00426ab0 f   PeParser.obj
 0001:00025be0       ?hasDirectory@PeParser@@IAE_NH@Z 00426be0 f   PeParser.obj
 0001:00025c60       ?getEntryPoint@PeParser@@QAEKXZ 00426c60 f   PeParser.obj
 0001:00025cd0       ?readPeHeaderFromProcess@PeParser@@IAE_N_N@Z 00426cd0 f   PeParser.obj
 0001:00025d80       ?readPeHeaderFromFile@PeParser@@IAE_N_N@Z 00426d80 f   PeParser.obj
 0001:00025ef0       ?readPeSectionsFromProcess@PeParser@@QAE_NXZ 00426ef0 f   PeParser.obj
 0001:00026020       ?readPeSectionsFromFile@PeParser@@QAE_NXZ 00427020 f   PeParser.obj
 0001:000261a0       ?getSectionHeaders@PeParser@@IAE_NXZ 004271a0 f   PeParser.obj
 0001:00026290       ?getSectionNameUnicode@PeParser@@QAE_NHPA_WH@Z 00427290 f   PeParser.obj
 0001:00026320       ?getDosAndNtHeader@PeParser@@IAEXPAEJ@Z 00427320 f   PeParser.obj
 0001:00026380       ?calcCorrectPeHeaderSize@PeParser@@IAEK_N@Z 00427380 f   PeParser.obj
 0001:00026420       ?getSectionHeaderBasedFileSize@PeParser@@QAEKXZ 00427420 f   PeParser.obj
 0001:00026530       ?getSectionHeaderBasedSizeOfImage@PeParser@@QAEKXZ 00427530 f   PeParser.obj
 0001:00026640       ?readSectionFrom@PeParser@@IAE_NKAAVPeFileSection@@_N@Z 00427640 f   PeParser.obj
 0001:00026840       ?savePeFileToDisk@PeParser@@QAE_NPB_W@Z 00427840 f   PeParser.obj
 0001:00026dd0       ?readPeSectionFromFile@PeParser@@IAE_NKAAVPeFileSection@@@Z 00427dd0 f   PeParser.obj
 0001:00026e20       ?readPeSectionFromProcess@PeParser@@IAE_NKAAVPeFileSection@@@Z 00427e20 f   PeParser.obj
 0001:00026e50       ?addNewLastSection@PeParser@@IAE_NPBDKPAE@Z 00427e50 f   PeParser.obj
 0001:00026fa0       ?convertRVAToOffsetVectorIndex@PeParser@@QAEHK@Z 00427fa0 f   PeParser.obj
 0001:00027080       ?convertRVAToOffsetRelative@PeParser@@QAEKK@Z 00428080 f   PeParser.obj
 0001:00027190       ?convertOffsetToRVAVector@PeParser@@QAEKK@Z 00428190 f   PeParser.obj
 0001:000272c0       ?fixPeHeader@PeParser@@QAEXXZ 004282c0 f   PeParser.obj
 0001:00027420       ?removeIatDirectory@PeParser@@IAEXXZ 00428420 f   PeParser.obj
 0001:00027590       ?setDefaultFileAlignment@PeParser@@QAEXXZ 00428590 f   PeParser.obj
 0001:000275e0       ?PeFileSectionSortByPointerToRawData@@YA_NABVPeFileSection@@0@Z 004285e0 f   PeParser.obj
 0001:00027600       ?PeFileSectionSortByVirtualAddress@@YA_NABVPeFileSection@@0@Z 00428600 f   PeParser.obj
 0001:00027620       ?alignAllSectionHeaders@PeParser@@QAEXXZ 00428620 f   PeParser.obj
 0001:00027970       ?dumpProcess@PeParser@@QAE_NKKPB_W@Z 00428970 f   PeParser.obj
 0001:00027a00       ?dumpProcess@PeParser@@QAE_NKKPB_WAAV?$vector@VPeSection@@V?$allocator@VPeSection@@@std@@@std@@@Z 00428a00 f   PeParser.obj
 0001:00027c80       ?setEntryPointRva@PeParser@@QAEXK@Z 00428c80 f   PeParser.obj
 0001:00027cf0       ?getFileOverlay@PeParser@@IAE_NXZ 00428cf0 f   PeParser.obj
 0001:00027e10       ?updatePeHeaderChecksum@PeParser@@SA_NPB_WK@Z 00428e10 f   PeParser.obj
 0001:00027ed0       ?reserve@?$vector@VPeFileSection@@V?$allocator@VPeFileSection@@@std@@@std@@QAEXI@Z 00428ed0 f i PeParser.obj
 0001:00027fe0       ?push_back@?$vector@VPeFileSection@@V?$allocator@VPeFileSection@@@std@@@std@@QAEXABVPeFileSection@@@Z 00428fe0 f i PeParser.obj
 0001:00028080       ?insert@?$vector@VPeFileSection@@V?$allocator@VPeFileSection@@@std@@@std@@QAE?AV?$_Vector_iterator@VPeFileSection@@V?$allocator@VPeFileSection@@@std@@@2@V?$_Vector_const_iterator@VPeFileSection@@V?$allocator@VPeFileSection@@@std@@@2@ABVPeFileSection@@@Z 00429080 f i PeParser.obj
 0001:00028150       ?erase@?$vector@VPeFileSection@@V?$allocator@VPeFileSection@@@std@@@std@@QAE?AV?$_Vector_iterator@VPeFileSection@@V?$allocator@VPeFileSection@@@std@@@2@V?$_Vector_const_iterator@VPeFileSection@@V?$allocator@VPeFileSection@@@std@@@2@0@Z 00429150 f i PeParser.obj
 0001:000281e0       ?_Ufill@?$vector@VPeFileSection@@V?$allocator@VPeFileSection@@@std@@@std@@IAEPAVPeFileSection@@PAV3@IABV3@@Z 004291e0 f i PeParser.obj
 0001:00028210       ?allocate@?$allocator@VPeFileSection@@@std@@QAEPAVPeFileSection@@I@Z 00429210 f i PeParser.obj
 0001:00028270       ?_Insert_n@?$vector@VPeFileSection@@V?$allocator@VPeFileSection@@@std@@@std@@IAEXV?$_Vector_const_iterator@VPeFileSection@@V?$allocator@VPeFileSection@@@std@@@2@IABVPeFileSection@@@Z 00429270 f i PeParser.obj
 0001:000284f0       ??$_Umove@PAVPeFileSection@@@?$vector@VPeFileSection@@V?$allocator@VPeFileSection@@@std@@@std@@IAEPAVPeFileSection@@PAV2@00@Z 004294f0 f i PeParser.obj
 0001:00028520       ??$_Sort@PAVPeFileSection@@HP6A_NABV1@0@Z@std@@YAXPAVPeFileSection@@0HP6A_NABV1@1@Z@Z 00429520 f i PeParser.obj
 0001:00028660       ??$_Copy_opt@PAVPeFileSection@@PAV1@@std@@YAPAVPeFileSection@@PAV1@00Urandom_access_iterator_tag@0@U_Nonscalar_ptr_iterator_tag@0@U_Range_checked_iterator_tag@0@@Z 00429660 f i PeParser.obj
 0001:000286b0       ??$_Uninit_fill_n@PAVPeFileSection@@IV1@V?$allocator@VPeFileSection@@@std@@@std@@YAXPAVPeFileSection@@IABV1@AAV?$allocator@VPeFileSection@@@0@U_Nonscalar_ptr_iterator_tag@0@U_Range_checked_iterator_tag@0@@Z 004296b0 f i PeParser.obj
 0001:000286d0       ??$_Unguarded_partition@PAVPeFileSection@@P6A_NABV1@0@Z@std@@YA?AU?$pair@PAVPeFileSection@@PAV1@@0@PAVPeFileSection@@0P6A_NABV2@1@Z@Z 004296d0 f i PeParser.obj
 0001:00028aa0       ??$_Copy_backward_opt@PAVPeFileSection@@PAV1@@std@@YAPAVPeFileSection@@PAV1@00Urandom_access_iterator_tag@0@U_Nonscalar_ptr_iterator_tag@0@U_Range_checked_iterator_tag@0@@Z 00429aa0 f i PeParser.obj
 0001:00028b00       ??$_Median@PAVPeFileSection@@P6A_NABV1@0@Z@std@@YAXPAVPeFileSection@@00P6A_NABV1@1@Z@Z 00429b00 f i PeParser.obj
 0001:00028cd0       ??$iter_swap@PAVPeFileSection@@PAV1@@std@@YAXPAVPeFileSection@@0@Z 00429cd0 f i PeParser.obj
 0001:00028d20       ??$_Make_heap@PAVPeFileSection@@HV1@P6A_NABV1@0@Z@std@@YAXPAVPeFileSection@@0P6A_NABV1@1@ZPAH0@Z 00429d20 f i PeParser.obj
 0001:00028d90       ??$_Sort_heap@PAVPeFileSection@@P6A_NABV1@0@Z@std@@YAXPAVPeFileSection@@0P6A_NABV1@1@Z@Z 00429d90 f i PeParser.obj
 0001:00028e30       ??$_Insertion_sort1@PAVPeFileSection@@P6A_NABV1@0@ZV1@@std@@YAXPAVPeFileSection@@0P6A_NABV1@1@Z0@Z 00429e30 f i PeParser.obj
 0001:00028f20       ??$_Adjust_heap@PAVPeFileSection@@HV1@P6A_NABV1@0@Z@std@@YAXPAVPeFileSection@@HHV1@P6A_NABV1@2@Z@Z 00429f20 f i PeParser.obj
 0001:00028fe0       ??$_Uninit_copy@PAVPeFileSection@@PAV1@V?$allocator@VPeFileSection@@@std@@@std@@YAPAVPeFileSection@@PAV1@00AAV?$allocator@VPeFileSection@@@0@U_Nonscalar_ptr_iterator_tag@0@U_Range_checked_iterator_tag@0@@Z 00429fe0 f i PeParser.obj
 0001:00029010       ??$_Push_heap@PAVPeFileSection@@HV1@P6A_NABV1@0@Z@std@@YAXPAVPeFileSection@@HHV1@P6A_NABV1@2@Z@Z 0042a010 f i PeParser.obj
 0001:00029090       ?DoDataExchange@PickApiGui@@QAEHHI@Z 0042a090 f i PickApiGui.obj
 0001:00029100       ?ProcessWindowMessage@PickApiGui@@UAEHPAUHWND__@@IIJAAJK@Z 0042a100 f i PickApiGui.obj
 0001:000292f0       ?OnDllListSelected@PickApiGui@@IAEXIHVCWindow@ATL@@@Z 0042a2f0 f   PickApiGui.obj
 0001:00029360       ?OnApiFilterUpdated@PickApiGui@@IAEXIHVCWindow@ATL@@@Z 0042a360 f   PickApiGui.obj
 0001:000295e0       ?actionApiSelected@PickApiGui@@IAEXXZ 0042a5e0 f   PickApiGui.obj
 0001:00029650       ?fillDllComboBox@PickApiGui@@IAEXAAV?$CComboBoxT@VCWindow@ATL@@@WTL@@@Z 0042a650 f   PickApiGui.obj
 0001:00029700       ?fillApiListBox@PickApiGui@@IAEXAAV?$CListBoxT@VCWindow@ATL@@@WTL@@ABV?$vector@PAVApiInfo@@V?$allocator@PAVApiInfo@@@std@@@std@@@Z 0042a700 f   PickApiGui.obj
 0001:00029830       ??4?$vector@PAVApiInfo@@V?$allocator@PAVApiInfo@@@std@@@std@@QAEAAV01@ABV01@@Z 0042a830 f i PickApiGui.obj
 0001:00029930       ?DlgResize_Init@?$CDialogResize@VPickApiGui@@@WTL@@QAEX_N0K@Z 0042a930 f i PickApiGui.obj
 0001:00029c90       ??1?$CA2WEX@$0IA@@ATL@@QAE@XZ 0042ac90 f i Logger.obj
 0001:00029c90       ??1?$CA2WEX@$0BAE@@ATL@@QAE@XZ 0042ac90 f i PickApiGui.obj
 0001:00029cb0       ?clear@?$vector@PAVApiInfo@@V?$allocator@PAVApiInfo@@@std@@@std@@QAEXXZ 0042acb0 f i PickApiGui.obj
 0001:00029d00       ?_Buy@?$vector@PAVApiInfo@@V?$allocator@PAVApiInfo@@@std@@@std@@IAE_NI@Z 0042ad00 f i PickApiGui.obj
 0001:00029d30       ?Init@?$CA2WEX@$0BAE@@ATL@@AAEXPBDI@Z 0042ad30 f i PickApiGui.obj
 0001:00029df0       ?erase@?$vector@PAVApiInfo@@V?$allocator@PAVApiInfo@@@std@@@std@@QAE?AV?$_Vector_iterator@PAVApiInfo@@V?$allocator@PAVApiInfo@@@std@@@2@V?$_Vector_const_iterator@PAVApiInfo@@V?$allocator@PAVApiInfo@@@std@@@2@0@Z 0042adf0 f i PickApiGui.obj
 0001:00029e90       ??$swprintf_s@$05@@YAHAAY05_WPB_WZZ 0042ae90 f i PickApiGui.obj
 0001:00029eb0       ??$unchecked_copy@PAPAVApiInfo@@PAPAV1@@stdext@@YAPAPAVApiInfo@@PAPAV1@00@Z 0042aeb0 f i PickApiGui.obj
 0001:00029ee0       ??$_Ucopy@PAPAVApiInfo@@@?$vector@PAVApiInfo@@V?$allocator@PAVApiInfo@@@std@@@std@@IAEPAPAVApiInfo@@PAPAV2@00@Z 0042aee0 f i PickApiGui.obj
 0001:00029ee0       ??$_Umove@PAK@?$vector@KV?$allocator@K@std@@@std@@IAEPAKPAK00@Z 0042aee0 f i DisassemblerGui.obj
 0001:00029ee0       ??$_Umove@PAPAVApiInfo@@@?$vector@PAVApiInfo@@V?$allocator@PAVApiInfo@@@std@@@std@@IAEPAPAVApiInfo@@PAPAV2@00@Z 0042aee0 f i ApiReader.obj
 0001:00029f10       ?ProcessWindowMessage@PickDllGui@@UAEHPAUHWND__@@IIJAAJK@Z 0042af10 f i PickDllGui.obj
 0001:0002a090       ??_EPickApiGui@@UAEPAXI@Z  0042b090 f i  CIL library: CIL module
 0001:0002a090       ??_EPickDllGui@@UAEPAXI@Z  0042b090 f i  CIL library: CIL module
 0001:0002a090       ??_GPickApiGui@@UAEPAXI@Z  0042b090 f i PickApiGui.obj
 0001:0002a090       ??_GPickDllGui@@UAEPAXI@Z  0042b090 f i PickDllGui.obj
 0001:0002a0e0       ?OnInitDialog@PickDllGui@@IAEHVCWindow@ATL@@J@Z 0042b0e0 f   PickDllGui.obj
 0001:0002a140       ?OnListDllColumnClicked@PickDllGui@@IAEJPAUtagNMHDR@@@Z 0042b140 f   PickDllGui.obj
 0001:0002a190       ?OnListDllDoubleClick@PickDllGui@@IAEJPAUtagNMHDR@@@Z 0042b190 f   PickDllGui.obj
 0001:0002a210       ?OnOK@PickDllGui@@IAEXIHVCWindow@ATL@@@Z 0042b210 f   PickDllGui.obj
 0001:0002a280       ?addColumnsToModuleList@PickDllGui@@IAEXAAV?$CListViewCtrlT@VCWindow@ATL@@@WTL@@@Z 0042b280 f   PickDllGui.obj
 0001:0002a3b0       ?displayModuleList@PickDllGui@@IAEXAAV?$CListViewCtrlT@VCWindow@ATL@@@WTL@@@Z 0042b3b0 f   PickDllGui.obj
 0001:0002a700       ?listviewCompareFunc@PickDllGui@@KGHJJJ@Z 0042b700 f   PickDllGui.obj
 0001:0002a7e0       ?DlgResize_Init@?$CDialogResize@VPickDllGui@@@WTL@@QAEX_N0K@Z 0042b7e0 f i PickDllGui.obj
 0001:0002ab40       ?ProcessWindowMessage@?$CDialogResize@VPickApiGui@@@WTL@@QAEHPAUHWND__@@IIJAAJK@Z 0042bb40 f i PickApiGui.obj
 0001:0002ab40       ?ProcessWindowMessage@?$CDialogResize@VDumpMemoryGui@@@WTL@@QAEHPAUHWND__@@IIJAAJK@Z 0042bb40 f i DumpMemoryGui.obj
 0001:0002ab40       ?ProcessWindowMessage@?$CDialogResize@VDumpSectionGui@@@WTL@@QAEHPAUHWND__@@IIJAAJK@Z 0042bb40 f i DumpSectionGui.obj
 0001:0002ab40       ?ProcessWindowMessage@?$CDialogResize@VPickDllGui@@@WTL@@QAEHPAUHWND__@@IIJAAJK@Z 0042bb40 f i PickDllGui.obj
 0001:0002aba0       ?OnSize@?$CDialogResize@VPickApiGui@@@WTL@@QAEJIIJAAH@Z 0042bba0 f i PickApiGui.obj
 0001:0002aba0       ?OnSize@?$CDialogResize@VDumpMemoryGui@@@WTL@@QAEJIIJAAH@Z 0042bba0 f i DumpMemoryGui.obj
 0001:0002aba0       ?OnSize@?$CDialogResize@VPickDllGui@@@WTL@@QAEJIIJAAH@Z 0042bba0 f i PickDllGui.obj
 0001:0002aba0       ?OnSize@?$CDialogResize@VDumpSectionGui@@@WTL@@QAEJIIJAAH@Z 0042bba0 f i DumpSectionGui.obj
 0001:0002ac00       ?DlgResize_UpdateLayout@?$CDialogResize@VDumpMemoryGui@@@WTL@@QAEXHH@Z 0042bc00 f i DumpMemoryGui.obj
 0001:0002ac00       ?DlgResize_UpdateLayout@?$CDialogResize@VDumpSectionGui@@@WTL@@QAEXHH@Z 0042bc00 f i DumpSectionGui.obj
 0001:0002ac00       ?DlgResize_UpdateLayout@?$CDialogResize@VPickApiGui@@@WTL@@QAEXHH@Z 0042bc00 f i PickApiGui.obj
 0001:0002ac00       ?DlgResize_UpdateLayout@?$CDialogResize@VPickDllGui@@@WTL@@QAEXHH@Z 0042bc00 f i PickDllGui.obj
 0001:0002ae70       ?findAllPlugins@PluginLoader@@QAE_NXZ 0042be70 f   PluginLoader.obj
 0001:0002af90       ?searchForPlugin@PluginLoader@@AAE_NAAV?$vector@VPlugin@@V?$allocator@VPlugin@@@std@@@std@@PB_W_N@Z 0042bf90 f   PluginLoader.obj
 0001:0002b140       ?getScyllaPluginName@PluginLoader@@AAE_NPAVPlugin@@@Z 0042c140 f   PluginLoader.obj
 0001:0002b210       ?buildSearchString@PluginLoader@@AAE_NXZ 0042c210 f   PluginLoader.obj
 0001:0002b2a0       ?isValidDllFile@PluginLoader@@CA_NPB_W@Z 0042c2a0 f   PluginLoader.obj
 0001:0002b370       ?buildSearchStringImprecPlugins@PluginLoader@@AAE_NXZ 0042c370 f   PluginLoader.obj
 0001:0002b410       ?push_back@?$vector@VPlugin@@V?$allocator@VPlugin@@@std@@@std@@QAEXABVPlugin@@@Z 0042c410 f i PluginLoader.obj
 0001:0002b4b0       ?insert@?$vector@VPlugin@@V?$allocator@VPlugin@@@std@@@std@@QAE?AV?$_Vector_iterator@VPlugin@@V?$allocator@VPlugin@@@std@@@2@V?$_Vector_const_iterator@VPlugin@@V?$allocator@VPlugin@@@std@@@2@ABVPlugin@@@Z 0042c4b0 f i PluginLoader.obj
 0001:0002b580       ?erase@?$vector@VPlugin@@V?$allocator@VPlugin@@@std@@@std@@QAE?AV?$_Vector_iterator@VPlugin@@V?$allocator@VPlugin@@@std@@@2@V?$_Vector_const_iterator@VPlugin@@V?$allocator@VPlugin@@@std@@@2@0@Z 0042c580 f i PluginLoader.obj
 0001:0002b610       ?_Ufill@?$vector@VPlugin@@V?$allocator@VPlugin@@@std@@@std@@IAEPAVPlugin@@PAV3@IABV3@@Z 0042c610 f i PluginLoader.obj
 0001:0002b640       ?_Insert_n@?$vector@VPlugin@@V?$allocator@VPlugin@@@std@@@std@@IAEXV?$_Vector_const_iterator@VPlugin@@V?$allocator@VPlugin@@@std@@@2@IABVPlugin@@@Z 0042c640 f i PluginLoader.obj
 0001:0002b900       ?allocate@?$allocator@VPlugin@@@std@@QAEPAVPlugin@@I@Z 0042c900 f i PluginLoader.obj
 0001:0002b960       ??$_Umove@PAVPlugin@@@?$vector@VPlugin@@V?$allocator@VPlugin@@@std@@@std@@IAEPAVPlugin@@PAV2@00@Z 0042c960 f i PluginLoader.obj
 0001:0002b990       ??$fill@PAVPlugin@@V1@@std@@YAXPAVPlugin@@0ABV1@@Z 0042c990 f i PluginLoader.obj
 0001:0002b9c0       ??$_Copy_opt@PAVPlugin@@PAV1@@std@@YAPAVPlugin@@PAV1@00Urandom_access_iterator_tag@0@U_Nonscalar_ptr_iterator_tag@0@U_Range_checked_iterator_tag@0@@Z 0042c9c0 f i PluginLoader.obj
 0001:0002ba20       ??$_Uninit_fill_n@PAVPlugin@@IV1@V?$allocator@VPlugin@@@std@@@std@@YAXPAVPlugin@@IABV1@AAV?$allocator@VPlugin@@@0@U_Nonscalar_ptr_iterator_tag@0@U_Range_checked_iterator_tag@0@@Z 0042ca20 f i PluginLoader.obj
 0001:0002ba50       ??$_Copy_backward_opt@PAVPlugin@@PAV1@@std@@YAPAVPlugin@@PAV1@00Urandom_access_iterator_tag@0@U_Nonscalar_ptr_iterator_tag@0@U_Range_checked_iterator_tag@0@@Z 0042ca50 f i PluginLoader.obj
 0001:0002bab0       ??$_Uninit_copy@PAVPlugin@@PAV1@V?$allocator@VPlugin@@@std@@@std@@YAPAVPlugin@@PAV1@00AAV?$allocator@VPlugin@@@0@U_Nonscalar_ptr_iterator_tag@0@U_Range_checked_iterator_tag@0@@Z 0042cab0 f i PluginLoader.obj
 0001:0002bae0       ?NativeOpenProcess@ProcessAccessHelp@@SAPAXKK@Z 0042cae0 f   ProcessAccessHelp.obj
 0001:0002bb40       ?readMemoryPartlyFromProcess@ProcessAccessHelp@@SA_NKKPAX@Z 0042cb40 f   ProcessAccessHelp.obj
 0001:0002bc10       ?readMemoryFromProcess@ProcessAccessHelp@@SA_NKKPAX@Z 0042cc10 f   ProcessAccessHelp.obj
 0001:0002bcb0       ?decomposeMemory@ProcessAccessHelp@@SA_NPAEKK@Z 0042ccb0 f   ProcessAccessHelp.obj
 0001:0002bd30       ?getFileSize@ProcessAccessHelp@@SA_JPB_W@Z 0042cd30 f   ProcessAccessHelp.obj
 0001:0002bda0       ?writeMemoryToNewFile@ProcessAccessHelp@@SA_NPB_WKPBX@Z 0042cda0 f   ProcessAccessHelp.obj
 0001:0002bdf0       ?writeMemoryToFile@ProcessAccessHelp@@SA_NPAXJKPBX@Z 0042cdf0 f   ProcessAccessHelp.obj
 0001:0002be50       ?createFileMappingView@ProcessAccessHelp@@SAPAXPB_WKKK@Z 0042ce50 f   ProcessAccessHelp.obj
 0001:0002bed0       ?getProcessModules@ProcessAccessHelp@@SA_NPAXAAV?$vector@VModuleInfo@@V?$allocator@VModuleInfo@@@std@@@std@@@Z 0042ced0 f   ProcessAccessHelp.obj
 0001:0002c1a0       ?getSizeOfImageProcess@ProcessAccessHelp@@SAKPAXK@Z 0042d1a0 f   ProcessAccessHelp.obj
 0001:0002c300       ?getEntryPointFromFile@ProcessAccessHelp@@SAKPB_W@Z 0042d300 f   ProcessAccessHelp.obj
 0001:0002c3a0       ?createBackupFile@ProcessAccessHelp@@SA_NPB_W@Z 0042d3a0 f   ProcessAccessHelp.obj
 0001:0002c410       ?getModuleHandlesFromProcess@ProcessAccessHelp@@SAKQAXPAPAPAUHINSTANCE__@@@Z 0042d410 f   ProcessAccessHelp.obj
 0001:0002c4b0       ?isPageExecutable@ProcessAccessHelp@@SA_NK@Z 0042d4b0 f   ProcessAccessHelp.obj
 0001:0002c570       ?reserve@?$vector@VModuleInfo@@V?$allocator@VModuleInfo@@@std@@@std@@QAEXI@Z 0042d570 f i ProcessAccessHelp.obj
 0001:0002c690       ?push_back@?$vector@VModuleInfo@@V?$allocator@VModuleInfo@@@std@@@std@@QAEXABVModuleInfo@@@Z 0042d690 f i ProcessAccessHelp.obj
 0001:0002c730       ?clear@?$vector@VModuleInfo@@V?$allocator@VModuleInfo@@@std@@@std@@QAEXXZ 0042d730 f i ProcessAccessHelp.obj
 0001:0002c790       ?insert@?$vector@VModuleInfo@@V?$allocator@VModuleInfo@@@std@@@std@@QAE?AV?$_Vector_iterator@VModuleInfo@@V?$allocator@VModuleInfo@@@std@@@2@V?$_Vector_const_iterator@VModuleInfo@@V?$allocator@VModuleInfo@@@std@@@2@ABVModuleInfo@@@Z 0042d790 f i ProcessAccessHelp.obj
 0001:0002c860       ?erase@?$vector@VModuleInfo@@V?$allocator@VModuleInfo@@@std@@@std@@QAE?AV?$_Vector_iterator@VModuleInfo@@V?$allocator@VModuleInfo@@@std@@@2@V?$_Vector_const_iterator@VModuleInfo@@V?$allocator@VModuleInfo@@@std@@@2@0@Z 0042d860 f i ProcessAccessHelp.obj
 0001:0002c910       ?_Destroy@?$vector@VModuleInfo@@V?$allocator@VModuleInfo@@@std@@@std@@IAEXPAVModuleInfo@@0@Z 0042d910 f i ProcessAccessHelp.obj
 0001:0002c930       ?_Ufill@?$vector@VModuleInfo@@V?$allocator@VModuleInfo@@@std@@@std@@IAEPAVModuleInfo@@PAV3@IABV3@@Z 0042d930 f i ProcessAccessHelp.obj
 0001:0002c960       ?allocate@?$allocator@VModuleInfo@@@std@@QAEPAVModuleInfo@@I@Z 0042d960 f i ProcessAccessHelp.obj
 0001:0002c9c0       ?_Insert_n@?$vector@VModuleInfo@@V?$allocator@VModuleInfo@@@std@@@std@@IAEXV?$_Vector_const_iterator@VModuleInfo@@V?$allocator@VModuleInfo@@@std@@@2@IABVModuleInfo@@@Z 0042d9c0 f i ProcessAccessHelp.obj
 0001:0002cd10       ??0ModuleInfo@@QAE@ABV0@@Z 0042dd10 f i ProcessAccessHelp.obj
 0001:0002cd80       ??0?$vector@PAVApiInfo@@V?$allocator@PAVApiInfo@@@std@@@std@@QAE@ABV01@@Z 0042dd80 f i ProcessAccessHelp.obj
 0001:0002ce60       ??$_Umove@PAVModuleInfo@@@?$vector@VModuleInfo@@V?$allocator@VModuleInfo@@@std@@@std@@IAEPAVModuleInfo@@PAV2@00@Z 0042de60 f i ProcessAccessHelp.obj
 0001:0002ce90       ??$fill@PAVModuleInfo@@V1@@std@@YAXPAVModuleInfo@@0ABV1@@Z 0042de90 f i ProcessAccessHelp.obj
 0001:0002cec0       ??$_Copy_opt@PAVModuleInfo@@PAV1@@std@@YAPAVModuleInfo@@PAV1@00Urandom_access_iterator_tag@0@U_Nonscalar_ptr_iterator_tag@0@U_Range_checked_iterator_tag@0@@Z 0042dec0 f i ProcessAccessHelp.obj
 0001:0002cf20       ??$_Destroy_range@V?$allocator@VModuleInfo@@@std@@@std@@YAXPAVModuleInfo@@0AAV?$allocator@VModuleInfo@@@0@U_Nonscalar_ptr_iterator_tag@0@@Z 0042df20 f i ProcessAccessHelp.obj
 0001:0002cf70       ??$_Uninit_fill_n@PAVModuleInfo@@IV1@V?$allocator@VModuleInfo@@@std@@@std@@YAXPAVModuleInfo@@IABV1@AAV?$allocator@VModuleInfo@@@0@U_Nonscalar_ptr_iterator_tag@0@U_Range_checked_iterator_tag@0@@Z 0042df70 f i ProcessAccessHelp.obj
 0001:0002d070       ??4ModuleInfo@@QAEAAV0@ABV0@@Z 0042e070 f i ProcessAccessHelp.obj
 0001:0002d0e0       ??1ModuleInfo@@QAE@XZ      0042e0e0 f i ProcessAccessHelp.obj
 0001:0002d0e0       ?destroy@?$allocator@VModuleInfo@@@std@@QAEXPAVModuleInfo@@@Z 0042e0e0 f i ProcessAccessHelp.obj
 0001:0002d120       ??$_Copy_backward_opt@PAVModuleInfo@@PAV1@@std@@YAPAVModuleInfo@@PAV1@00Urandom_access_iterator_tag@0@U_Nonscalar_ptr_iterator_tag@0@U_Range_checked_iterator_tag@0@@Z 0042e120 f i ProcessAccessHelp.obj
 0001:0002d180       ??$_Uninit_copy@PAVModuleInfo@@PAV1@V?$allocator@VModuleInfo@@@std@@@std@@YAPAVModuleInfo@@PAV1@00AAV?$allocator@VModuleInfo@@@0@U_Nonscalar_ptr_iterator_tag@0@U_Range_checked_iterator_tag@0@@Z 0042e180 f i ProcessAccessHelp.obj
 0001:0002d280       ?setDebugPrivileges@ProcessLister@@SAKXZ 0042e280 f   ProcessLister.obj
 0001:0002d330       ?checkIsProcess64@ProcessLister@@AAE?AW4ProcessType@@PAX@Z 0042e330 f   ProcessLister.obj
 0001:0002d390       ?getAbsoluteFilePath@ProcessLister@@AAE_NPAXPAVProcess@@@Z 0042e390 f   ProcessLister.obj
 0001:0002d440       ?getProcessListSnapshotNative@ProcessLister@@QAEAAV?$vector@VProcess@@V?$allocator@VProcess@@@std@@@std@@XZ 0042e440 f   ProcessLister.obj
 0001:0002d550       ?handleProcessInformationAndAddToList@ProcessLister@@AAEXPAU_SYSTEM_PROCESS_INFORMATION@@@Z 0042e550 f   ProcessLister.obj
 0001:0002d6d0       ?getPebAddressFromProcess@ProcessLister@@AAEKPAX@Z 0042e6d0 f   ProcessLister.obj
 0001:0002d730       ?reserve@?$vector@VProcess@@V?$allocator@VProcess@@@std@@@std@@QAEXI@Z 0042e730 f i ProcessLister.obj
 0001:0002d860       ?push_back@?$vector@VProcess@@V?$allocator@VProcess@@@std@@@std@@QAEXABVProcess@@@Z 0042e860 f i ProcessLister.obj
 0001:0002d910       ?insert@?$vector@VProcess@@V?$allocator@VProcess@@@std@@@std@@QAE?AV?$_Vector_iterator@VProcess@@V?$allocator@VProcess@@@std@@@2@V?$_Vector_const_iterator@VProcess@@V?$allocator@VProcess@@@std@@@2@ABVProcess@@@Z 0042e910 f i ProcessLister.obj
 0001:0002d9f0       ?_Ufill@?$vector@VProcess@@V?$allocator@VProcess@@@std@@@std@@IAEPAVProcess@@PAV3@IABV3@@Z 0042e9f0 f i ProcessLister.obj
 0001:0002da20       ?_Insert_n@?$vector@VProcess@@V?$allocator@VProcess@@@std@@@std@@IAEXV?$_Vector_const_iterator@VProcess@@V?$allocator@VProcess@@@std@@@2@IABVProcess@@@Z 0042ea20 f i ProcessLister.obj
 0001:0002dce0       ??$_Umove@PAVProcess@@@?$vector@VProcess@@V?$allocator@VProcess@@@std@@@std@@IAEPAVProcess@@PAV2@00@Z 0042ece0 f i ProcessLister.obj
 0001:0002dd10       ??$fill@PAVProcess@@V1@@std@@YAXPAVProcess@@0ABV1@@Z 0042ed10 f i ProcessLister.obj
 0001:0002dd40       ??$_Reverse@PAVProcess@@@std@@YAXPAVProcess@@0Urandom_access_iterator_tag@0@@Z 0042ed40 f i ProcessLister.obj
 0001:0002ddb0       ??$_Uninit_fill_n@PAVProcess@@IV1@V?$allocator@VProcess@@@std@@@std@@YAXPAVProcess@@IABV1@AAV?$allocator@VProcess@@@0@U_Nonscalar_ptr_iterator_tag@0@U_Range_checked_iterator_tag@0@@Z 0042edb0 f i ProcessLister.obj
 0001:0002dde0       ??$_Copy_backward_opt@PAVProcess@@PAV1@@std@@YAPAVProcess@@PAV1@00Urandom_access_iterator_tag@0@U_Nonscalar_ptr_iterator_tag@0@U_Range_checked_iterator_tag@0@@Z 0042ede0 f i ProcessLister.obj
 0001:0002de40       ??$_Uninit_copy@PAVProcess@@PAV1@V?$allocator@VProcess@@@std@@@std@@YAPAVProcess@@PAV1@00AAV?$allocator@VProcess@@@0@U_Nonscalar_ptr_iterator_tag@0@U_Range_checked_iterator_tag@0@@Z 0042ee40 f i ProcessLister.obj
 0001:0002de70       ??1ConfigurationHolder@@QAE@XZ 0042ee70 f i Scylla.obj
 0001:0002ded0       ??0PluginLoader@@QAE@XZ    0042eed0 f i Scylla.obj
 0001:0002df30       ??1PluginLoader@@QAE@XZ    0042ef30 f i Scylla.obj
 0001:0002dfa0       ?initAsGuiApp@Scylla@@SAXXZ 0042efa0 f   Scylla.obj
 0001:0002e000       ?ToASCII@StringConversion@@SAPBDPB_WPADI@Z 0042f000 f   StringConversion.obj
 0001:0002e080       ?ToUTF16@StringConversion@@SAPB_WPBDPA_WI@Z 0042f080 f   StringConversion.obj
 0001:0002e100       ?Init@?$CW2AEX@$0IA@@ATL@@AAEXPB_WI@Z 0042f100 f i StringConversion.obj
 0001:0002e1d0       ??$AtlConvAllocMemory@D@ATL@@YAXPAPADHPADH@Z 0042f1d0 f i StringConversion.obj
 0001:0002e260       ?getSystemInformation@SystemInformation@@SA_NXZ 0042f260 f   SystemInformation.obj
 0001:0002e500       ??1TiXmlString@@QAE@XZ     0042f500 f i TreeImportExport.obj
 0001:0002e520       ?ToText@TiXmlNode@@UBEPBVTiXmlText@@XZ 0042f520 f i TreeImportExport.obj
 0001:0002e520       ?ToDocument@TiXmlNode@@UAEPAVTiXmlDocument@@XZ 0042f520 f i tinyxml:tinyxml.obj
 0001:0002e520       ?ToComment@TiXmlNode@@UAEPAVTiXmlComment@@XZ 0042f520 f i TreeImportExport.obj
 0001:0002e520       ?ToElement@TiXmlNode@@UAEPAVTiXmlElement@@XZ 0042f520 f i TreeImportExport.obj
 0001:0002e520       ?ToComment@TiXmlNode@@UBEPBVTiXmlComment@@XZ 0042f520 f i TreeImportExport.obj
 0001:0002e520       ?ToUnknown@TiXmlNode@@UAEPAVTiXmlUnknown@@XZ 0042f520 f i TreeImportExport.obj
 0001:0002e520       ?ToText@TiXmlNode@@UAEPAVTiXmlText@@XZ 0042f520 f i TreeImportExport.obj
 0001:0002e520       ?ToElement@TiXmlNode@@UBEPBVTiXmlElement@@XZ 0042f520 f i TreeImportExport.obj
 0001:0002e520       ?ToDeclaration@TiXmlNode@@UBEPBVTiXmlDeclaration@@XZ 0042f520 f i TreeImportExport.obj
 0001:0002e520       ?ToDeclaration@TiXmlNode@@UAEPAVTiXmlDeclaration@@XZ 0042f520 f i TreeImportExport.obj
 0001:0002e520       ?ToUnknown@TiXmlNode@@UBEPBVTiXmlUnknown@@XZ 0042f520 f i TreeImportExport.obj
 0001:0002e520       ?ToDocument@TiXmlNode@@UBEPBVTiXmlDocument@@XZ 0042f520 f i tinyxml:tinyxml.obj
 0001:0002e530       ??1TiXmlDocument@@UAE@XZ   0042f530 f i TreeImportExport.obj
 0001:0002e560       ?ToComment@TiXmlComment@@UBEPBV1@XZ 0042f560 f i tinyxml:tinyxml.obj
 0001:0002e560       ?ToDocument@TiXmlDocument@@UAEPAV1@XZ 0042f560 f i TreeImportExport.obj
 0001:0002e560       ?ToDeclaration@TiXmlDeclaration@@UAEPAV1@XZ 0042f560 f i tinyxml:tinyxml.obj
 0001:0002e560       ?ToElement@TiXmlElement@@UAEPAV1@XZ 0042f560 f i tinyxml:tinyxml.obj
 0001:0002e560       ?ToText@TiXmlText@@UAEPAV1@XZ 0042f560 f i tinyxml:tinyxml.obj
 0001:0002e560       ?ToComment@TiXmlComment@@UAEPAV1@XZ 0042f560 f i tinyxml:tinyxml.obj
 0001:0002e560       ?ToDeclaration@TiXmlDeclaration@@UBEPBV1@XZ 0042f560 f i tinyxml:tinyxml.obj
 0001:0002e560       ?ToUnknown@TiXmlUnknown@@UBEPBV1@XZ 0042f560 f i tinyxml:tinyxml.obj
 0001:0002e560       ?ToElement@TiXmlElement@@UBEPBV1@XZ 0042f560 f i tinyxml:tinyxml.obj
 0001:0002e560       ?ToDocument@TiXmlDocument@@UBEPBV1@XZ 0042f560 f i TreeImportExport.obj
 0001:0002e560       ?ToUnknown@TiXmlUnknown@@UAEPAV1@XZ 0042f560 f i tinyxml:tinyxml.obj
 0001:0002e560       ?ToText@TiXmlText@@UBEPBV1@XZ 0042f560 f i tinyxml:tinyxml.obj
 0001:0002e570       ??_ETiXmlDocument@@UAEPAXI@Z 0042f570 f i  CIL library: CIL module
 0001:0002e570       ??_GTiXmlDocument@@UAEPAXI@Z 0042f570 f i TreeImportExport.obj
 0001:0002e5b0       ?exportTreeList@TreeImportExport@@QAE_NABV?$map@KVImportModuleThunk@@U?$less@K@std@@V?$allocator@U?$pair@$$CBKVImportModuleThunk@@@std@@@3@@std@@PBVProcess@@KKK@Z 0042f5b0 f   TreeImportExport.obj
 0001:0002e6f0       ?importTreeList@TreeImportExport@@QAE_NAAV?$map@KVImportModuleThunk@@U?$less@K@std@@V?$allocator@U?$pair@$$CBKVImportModuleThunk@@@std@@@3@@std@@PAK11@Z 0042f6f0 f   TreeImportExport.obj
 0001:0002e8d0       ?setTargetInformation@TreeImportExport@@AAEXPAVTiXmlElement@@PBVProcess@@KKK@Z 0042f8d0 f   TreeImportExport.obj
 0001:0002e970       ?addModuleListToRootElement@TreeImportExport@@AAEXPAVTiXmlElement@@ABV?$map@KVImportModuleThunk@@U?$less@K@std@@V?$allocator@U?$pair@$$CBKVImportModuleThunk@@@std@@@3@@std@@@Z 0042f970 f   TreeImportExport.obj
 0001:0002ea80       ?getModuleXmlElement@TreeImportExport@@AAEPAVTiXmlElement@@PBVImportModuleThunk@@@Z 0042fa80 f   TreeImportExport.obj
 0001:0002eb70       ?getImportXmlElement@TreeImportExport@@AAEPAVTiXmlElement@@PBVImportThunk@@@Z 0042fb70 f   TreeImportExport.obj
 0001:0002ed10       ?parseAllElementModules@TreeImportExport@@AAEXPAVTiXmlElement@@AAV?$map@KVImportModuleThunk@@U?$less@K@std@@V?$allocator@U?$pair@$$CBKVImportModuleThunk@@@std@@@3@@std@@@Z 0042fd10 f   TreeImportExport.obj
 0001:0002ee80       ?parseAllElementImports@TreeImportExport@@AAEXPAVTiXmlElement@@PAVImportModuleThunk@@@Z 0042fe80 f   TreeImportExport.obj
 0001:0002f040       ??$sprintf_s@$0BAE@@@YAHAAY0BAE@DPBDZZ 00430040 f i TreeImportExport.obj
 0001:0002f060       _distorm_decompose64       00430060 f   diStorm:distorm.obj
 0001:0002f3e0       _distorm_format64          004303e0 f   diStorm:distorm.obj
 0001:0002fae0       _distorm_decode64          00430ae0 f   diStorm:distorm.obj
 0001:00030280       _decode_internal           00431280 f   diStorm:decoder.obj
 0001:00030710       _strclear_WS               00431710 f   diStorm:wstring.obj
 0001:00030730       _chrcat_WS                 00431730 f   diStorm:wstring.obj
 0001:00030750       _strcpylen_WS              00431750 f   diStorm:wstring.obj
 0001:00030770       _strcatlen_WS              00431770 f   diStorm:wstring.obj
 0001:000307a0       _strcat_WS                 004317a0 f   diStorm:wstring.obj
 0001:000307d0       @str_hex_b@8               004317d0 f   diStorm:textdefs.obj
 0001:00030800       @str_code_hb@8             00431800 f   diStorm:textdefs.obj
 0001:00030840       @str_code_hdw@8            00431840 f   diStorm:textdefs.obj
 0001:000308b0       @str_code_hqw@8            004318b0 f   diStorm:textdefs.obj
 0001:00030940       @str_off64@12              00431940 f   diStorm:textdefs.obj
 0001:00031110       _operands_extract          00432110 f   diStorm:operands.obj
 0001:00032420       _prefixes_is_valid         00433420 f   diStorm:prefix.obj
 0001:00032530       _prefixes_ignore           00433530 f   diStorm:prefix.obj
 0001:00032550       _prefixes_ignore_all       00433550 f   diStorm:prefix.obj
 0001:000325c0       _prefixes_set_unused_mask  004335c0 f   diStorm:prefix.obj
 0001:00032660       _prefixes_track_unused     00433660 f i diStorm:prefix.obj
 0001:00032690       _prefixes_decode           00433690 f   diStorm:prefix.obj
 0001:00032a50       _prefixes_use_segment      00433a50 f   diStorm:prefix.obj
 0001:00032e40       _inst_lookup               00433e40 f   diStorm:instructions.obj
 0001:000332d0       _inst_lookup_3dnow         004342d0 f   diStorm:instructions.obj
 0001:00033350       ?reserve@TiXmlString@@QAEXI@Z 00434350 f   tinyxml:tinystr.obj
 0001:00033410       ?assign@TiXmlString@@QAEAAV1@PBDI@Z 00434410 f   tinyxml:tinystr.obj
 0001:000334f0       ?append@TiXmlString@@QAEAAV1@PBDI@Z 004344f0 f   tinyxml:tinystr.obj
 0001:00033540       ??4TiXmlString@@QAEAAV0@PBD@Z 00434540 f i tinyxml:tinyxml.obj
 0001:00033570       ??1TiXmlBase@@UAE@XZ       00434570 f i tinyxml:tinyxml.obj
 0001:00033580       ??_ETiXmlBase@@UAEPAXI@Z   00434580 f i tinyxml:tinyxml.obj
 0001:00033580       ??_GTiXmlBase@@UAEPAXI@Z   00434580 f i tinyxml:tinyxml.obj
 0001:000335b0       ?CopyTo@TiXmlNode@@IBEXPAV1@@Z 004345b0 f   tinyxml:tinyxml.obj
 0001:000335f0       ?Clear@TiXmlNode@@QAEXXZ   004345f0 f   tinyxml:tinyxml.obj
 0001:00033620       ?FirstChildElement@TiXmlNode@@QBEPBVTiXmlElement@@XZ 00434620 f   tinyxml:tinyxml.obj
 0001:00033650       ?NextSiblingElement@TiXmlNode@@QBEPBVTiXmlElement@@XZ 00434650 f   tinyxml:tinyxml.obj
 0001:00033680       ?GetDocument@TiXmlNode@@QBEPBVTiXmlDocument@@XZ 00434680 f   tinyxml:tinyxml.obj
 0001:000336b0       ?Accept@TiXmlElement@@UBE_NPAVTiXmlVisitor@@@Z 004346b0 f   tinyxml:tinyxml.obj
 0001:00033710       ?LoadFile@TiXmlDocument@@QAE_NPAU_iobuf@@W4TiXmlEncoding@@@Z 00434710 f   tinyxml:tinyxml.obj
 0001:00033820       ?Print@TiXmlDocument@@UBEXPAU_iobuf@@H@Z 00434820 f   tinyxml:tinyxml.obj
 0001:00033860       ?Accept@TiXmlDocument@@UBE_NPAVTiXmlVisitor@@@Z 00434860 f   tinyxml:tinyxml.obj
 0001:000338b0       ?Next@TiXmlAttribute@@QBEPBV1@XZ 004348b0 f   tinyxml:tinyxml.obj
 0001:000338d0       ?Print@TiXmlComment@@UBEXPAU_iobuf@@H@Z 004348d0 f   tinyxml:tinyxml.obj
 0001:00033910       ?CopyTo@TiXmlUnknown@@IBEXPAV1@@Z 00434910 f   tinyxml:tinyxml.obj
 0001:00033910       ?CopyTo@TiXmlComment@@IBEXPAV1@@Z 00434910 f   tinyxml:tinyxml.obj
 0001:00033920       ?Accept@TiXmlComment@@UBE_NPAVTiXmlVisitor@@@Z 00434920 f   tinyxml:tinyxml.obj
 0001:00033940       ?CopyTo@TiXmlText@@IBEXPAV1@@Z 00434940 f   tinyxml:tinyxml.obj
 0001:00033960       ?Accept@TiXmlText@@UBE_NPAVTiXmlVisitor@@@Z 00434960 f   tinyxml:tinyxml.obj
 0001:00033980       ?Accept@TiXmlDeclaration@@UBE_NPAVTiXmlVisitor@@@Z 00434980 f   tinyxml:tinyxml.obj
 0001:000339a0       ?Print@TiXmlUnknown@@UBEXPAU_iobuf@@H@Z 004349a0 f   tinyxml:tinyxml.obj
 0001:000339e0       ?Accept@TiXmlUnknown@@UBE_NPAVTiXmlVisitor@@@Z 004349e0 f   tinyxml:tinyxml.obj
 0001:00033a00       ?Add@TiXmlAttributeSet@@QAEXPAVTiXmlAttribute@@@Z 00434a00 f   tinyxml:tinyxml.obj
 0001:00033a20       ?Remove@TiXmlAttributeSet@@QAEXPAVTiXmlAttribute@@@Z 00434a20 f   tinyxml:tinyxml.obj
 0001:00033a60       ?Find@TiXmlAttributeSet@@QBEPAVTiXmlAttribute@@PBD@Z 00434a60 f   tinyxml:tinyxml.obj
 0001:00033ac0       ??$_snprintf_s@$0CA@@@YAHAAY0CA@DIPBDZZ 00434ac0 f i tinyxml:tinyxml.obj
 0001:00033ae0       ?EncodeString@TiXmlBase@@SAXABVTiXmlString@@PAV2@@Z 00434ae0 f   tinyxml:tinyxml.obj
 0001:00033c40       ??0TiXmlNode@@IAE@W4NodeType@0@@Z 00434c40 f   tinyxml:tinyxml.obj
 0001:00033c80       ??1TiXmlNode@@UAE@XZ       00434c80 f   tinyxml:tinyxml.obj
 0001:00033d00       ?LinkEndChild@TiXmlNode@@QAEPAV1@PAV1@@Z 00434d00 f   tinyxml:tinyxml.obj
 0001:00033d70       ?ClearThis@TiXmlElement@@IAEXXZ 00434d70 f   tinyxml:tinyxml.obj
 0001:00033db0       ?Attribute@TiXmlElement@@QBEPBDPBD@Z 00434db0 f   tinyxml:tinyxml.obj
 0001:00033de0       ?Print@TiXmlElement@@UBEXPAU_iobuf@@H@Z 00434de0 f   tinyxml:tinyxml.obj
 0001:00033f40       ??0TiXmlDocument@@QAE@XZ   00434f40 f   tinyxml:tinyxml.obj
 0001:00033fd0       ?CopyTo@TiXmlDocument@@ABEXPAV1@@Z 00434fd0 f   tinyxml:tinyxml.obj
 0001:00034040       ?Clone@TiXmlDocument@@MBEPAVTiXmlNode@@XZ 00435040 f   tinyxml:tinyxml.obj
 0001:000340d0       ?Print@TiXmlAttribute@@QBEXPAU_iobuf@@HPAVTiXmlString@@@Z 004350d0 f   tinyxml:tinyxml.obj
 0001:00034270       ?Print@TiXmlText@@UBEXPAU_iobuf@@H@Z 00435270 f   tinyxml:tinyxml.obj
 0001:00034350       ??0TiXmlDeclaration@@QAE@PBD00@Z 00435350 f   tinyxml:tinyxml.obj
 0001:00034420       ?Print@TiXmlDeclaration@@UBEXPAU_iobuf@@H@Z 00435420 f i tinyxml:tinyxml.obj
 0001:00034440       ?Print@TiXmlDeclaration@@UBEXPAU_iobuf@@HPAVTiXmlString@@@Z 00435440 f   tinyxml:tinyxml.obj
 0001:00034590       ?CopyTo@TiXmlDeclaration@@IBEXPAV1@@Z 00435590 f   tinyxml:tinyxml.obj
 0001:000345e0       ??0TiXmlAttributeSet@@QAE@XZ 004355e0 f   tinyxml:tinyxml.obj
 0001:00034610       ??1TiXmlAttribute@@UAE@XZ  00435610 f   tinyxml:tinyxml.obj
 0001:00034610       ??1TiXmlAttributeSet@@QAE@XZ 00435610 f   tinyxml:tinyxml.obj
 0001:00034680       ?FindOrCreate@TiXmlAttributeSet@@QAEPAVTiXmlAttribute@@PBD@Z 00435680 f   tinyxml:tinyxml.obj
 0001:00034700       ??0TiXmlString@@QAE@PBD@Z  00435700 f i tinyxml:tinyxml.obj
 0001:00034780       ?Print@TiXmlAttribute@@UBEXPAU_iobuf@@H@Z 00435780 f i tinyxml:tinyxml.obj
 0001:000347a0       ??_GTiXmlAttribute@@UAEPAXI@Z 004357a0 f i tinyxml:tinyxml.obj
 0001:000347a0       ??_ETiXmlAttribute@@UAEPAXI@Z 004357a0 f i tinyxml:tinyxml.obj
 0001:00034830       ??_GTiXmlComment@@UAEPAXI@Z 00435830 f i tinyxml:tinyxml.obj
 0001:00034830       ??_ETiXmlComment@@UAEPAXI@Z 00435830 f i tinyxml:tinyxml.obj
 0001:00034860       ??0TiXmlText@@QAE@PBD@Z    00435860 f i tinyxml:tinyxml.obj
 0001:000348e0       ??_GTiXmlText@@UAEPAXI@Z   004358e0 f i tinyxml:tinyxml.obj
 0001:000348e0       ??_ETiXmlText@@UAEPAXI@Z   004358e0 f i tinyxml:tinyxml.obj
 0001:00034910       ??0TiXmlDeclaration@@QAE@XZ 00435910 f i tinyxml:tinyxml.obj
 0001:00034940       ??1TiXmlDeclaration@@UAE@XZ 00435940 f i tinyxml:tinyxml.obj
 0001:000349e0       ??_GTiXmlDeclaration@@UAEPAXI@Z 004359e0 f i tinyxml:tinyxml.obj
 0001:000349e0       ??_ETiXmlDeclaration@@UAEPAXI@Z 004359e0 f i tinyxml:tinyxml.obj
 0001:00034a10       ??_GTiXmlUnknown@@UAEPAXI@Z 00435a10 f i tinyxml:tinyxml.obj
 0001:00034a10       ??_ETiXmlUnknown@@UAEPAXI@Z 00435a10 f i tinyxml:tinyxml.obj
 0001:00034a40       ??_ETiXmlNode@@UAEPAXI@Z   00435a40 f i tinyxml:tinyxml.obj
 0001:00034a40       ??_GTiXmlNode@@UAEPAXI@Z   00435a40 f i tinyxml:tinyxml.obj
 0001:00034a70       ??0TiXmlElement@@QAE@PBD@Z 00435a70 f   tinyxml:tinyxml.obj
 0001:00034b00       ??1TiXmlElement@@UAE@XZ    00435b00 f   tinyxml:tinyxml.obj
 0001:00034b70       ?SetAttribute@TiXmlElement@@QAEXPBD0@Z 00435b70 f   tinyxml:tinyxml.obj
 0001:00034bb0       ?CopyTo@TiXmlElement@@IBEXPAV1@@Z 00435bb0 f   tinyxml:tinyxml.obj
 0001:00034c20       ?Clone@TiXmlElement@@UBEPAVTiXmlNode@@XZ 00435c20 f   tinyxml:tinyxml.obj
 0001:00034cb0       ?Clone@TiXmlComment@@UBEPAVTiXmlNode@@XZ 00435cb0 f   tinyxml:tinyxml.obj
 0001:00034cf0       ?Clone@TiXmlText@@MBEPAVTiXmlNode@@XZ 00435cf0 f   tinyxml:tinyxml.obj
 0001:00034da0       ?Clone@TiXmlDeclaration@@UBEPAVTiXmlNode@@XZ 00435da0 f   tinyxml:tinyxml.obj
 0001:00034df0       ?Clone@TiXmlUnknown@@UBEPAVTiXmlNode@@XZ 00435df0 f   tinyxml:tinyxml.obj
 0001:00034e30       ??_ETiXmlElement@@UAEPAXI@Z 00435e30 f i tinyxml:tinyxml.obj
 0001:00034e30       ??_GTiXmlElement@@UAEPAXI@Z 00435e30 f i tinyxml:tinyxml.obj
 0001:00034e60       ?IsWhiteSpace@TiXmlBase@@KA_ND@Z 00435e60 f i tinyxml:tinyxmlparser.obj
 0001:00034e90       ?ConvertUTF32ToUTF8@TiXmlBase@@KAXKPADPAH@Z 00435e90 f   tinyxml:tinyxmlparser.obj
 0001:00034f90       ?IsAlpha@TiXmlBase@@KAHEW4TiXmlEncoding@@@Z 00435f90 f   tinyxml:tinyxmlparser.obj
 0001:00034fb0       ?IsAlphaNum@TiXmlBase@@KAHEW4TiXmlEncoding@@@Z 00435fb0 f   tinyxml:tinyxmlparser.obj
 0001:00034fe0       ?Stamp@TiXmlParsingData@@QAEXPBDW4TiXmlEncoding@@@Z 00435fe0 f   tinyxml:tinyxmlparser.obj
 0001:000351d0       ?SkipWhiteSpace@TiXmlBase@@KAPBDPBDW4TiXmlEncoding@@@Z 004361d0 f   tinyxml:tinyxmlparser.obj
 0001:00035280       ?ReadName@TiXmlBase@@KAPBDPBDPAVTiXmlString@@W4TiXmlEncoding@@@Z 00436280 f   tinyxml:tinyxmlparser.obj
 0001:00035310       ?StringEqual@TiXmlBase@@KA_NPBD0_NW4TiXmlEncoding@@@Z 00436310 f   tinyxml:tinyxmlparser.obj
 0001:000353c0       ?SetError@TiXmlDocument@@QAEXHPBDPAVTiXmlParsingData@@W4TiXmlEncoding@@@Z 004363c0 f   tinyxml:tinyxmlparser.obj
 0001:00035430       ?Parse@TiXmlUnknown@@UAEPBDPBDPAVTiXmlParsingData@@W4TiXmlEncoding@@@Z 00436430 f   tinyxml:tinyxmlparser.obj
 0001:00035500       ?Parse@TiXmlComment@@UAEPBDPBDPAVTiXmlParsingData@@W4TiXmlEncoding@@@Z 00436500 f   tinyxml:tinyxmlparser.obj
 0001:000355f0       ?Blank@TiXmlText@@IBE_NXZ  004365f0 f   tinyxml:tinyxmlparser.obj
 0001:00035640       ?GetEntity@TiXmlBase@@KAPBDPBDPADPAHW4TiXmlEncoding@@@Z 00436640 f   tinyxml:tinyxmlparser.obj
 0001:00035860       ?Identify@TiXmlNode@@IAEPAV1@PBDW4TiXmlEncoding@@@Z 00436860 f   tinyxml:tinyxmlparser.obj
 0001:00035a70       ?ReadValue@TiXmlElement@@IAEPBDPBDPAVTiXmlParsingData@@W4TiXmlEncoding@@@Z 00436a70 f   tinyxml:tinyxmlparser.obj
 0001:00035c00       ?GetChar@TiXmlBase@@KAPBDPBDPADPAHW4TiXmlEncoding@@@Z 00436c00 f i tinyxml:tinyxmlparser.obj
 0001:00035c80       ?ReadText@TiXmlBase@@KAPBDPBDPAVTiXmlString@@_N02W4TiXmlEncoding@@@Z 00436c80 f   tinyxml:tinyxmlparser.obj
 0001:00035e30       ?Parse@TiXmlDocument@@UAEPBDPBDPAVTiXmlParsingData@@W4TiXmlEncoding@@@Z 00436e30 f   tinyxml:tinyxmlparser.obj
 0001:00035ff0       ?Parse@TiXmlElement@@UAEPBDPBDPAVTiXmlParsingData@@W4TiXmlEncoding@@@Z 00436ff0 f   tinyxml:tinyxmlparser.obj
 0001:000363b0       ?Parse@TiXmlAttribute@@UAEPBDPBDPAVTiXmlParsingData@@W4TiXmlEncoding@@@Z 004373b0 f   tinyxml:tinyxmlparser.obj
 0001:00036540       ?Parse@TiXmlText@@UAEPBDPBDPAVTiXmlParsingData@@W4TiXmlEncoding@@@Z 00437540 f   tinyxml:tinyxmlparser.obj
 0001:000366d0       ?Parse@TiXmlDeclaration@@UAEPBDPBDPAVTiXmlParsingData@@W4TiXmlEncoding@@@Z 004376d0 f   tinyxml:tinyxmlparser.obj
 0001:00036a61       ??0_ATL_BASE_MODULE70@ATL@@QAE@XZ 00437a61 f i atls:atlbase.obj
 0001:00036a7d       ??1CAtlBaseModule@ATL@@QAE@XZ 00437a7d f   atls:atlbase.obj
 0001:00036a95       ??0CAtlBaseModule@ATL@@QAE@XZ 00437a95 f   atls:atlbase.obj
 0001:00036ad5       ?__FreeStdCallThunk_cmn@@YAXPAX@Z 00437ad5 f   atls:atlthunk.obj
 0001:00036bb6       ?__FreeStdCallThunk@ATL@@YGXPAX@Z 00437bb6 f   atls:atlthunk.obj
 0001:00036bc8       ?__AllocStdCallThunk_cmn@@YAPAXXZ 00437bc8 f   atls:atlthunk.obj
 0001:00036c68       ?__AllocStdCallThunk@ATL@@YGPAXXZ 00437c68 f   atls:atlthunk.obj
 0001:00036c6d       ?Term@CAtlComModule@ATL@@QAEXXZ 00437c6d f i atls:atlcommodule.obj
 0001:00036cb1       ??0CAtlComModule@ATL@@QAE@XZ 00437cb1 f i atls:atlcommodule.obj
 0001:00036cf8       ?AtlWinModuleInit@ATL@@YGJPAU_ATL_WIN_MODULE70@1@@Z 00437cf8 f i atls:atlwinmodule.obj
 0001:00036d20       ?RemoveAll@?$CSimpleArray@GV?$CSimpleArrayEqualHelper@G@ATL@@@ATL@@QAEXXZ 00437d20 f i atls:atlwinmodule.obj
 0001:00036d20       ?RemoveAll@?$CSimpleArray@PAUHINSTANCE__@@V?$CSimpleArrayEqualHelper@PAUHINSTANCE__@@@ATL@@@ATL@@QAEXXZ 00437d20 f i atls:atlbase.obj
 0001:00036d3f       ??A?$CSimpleArray@GV?$CSimpleArrayEqualHelper@G@ATL@@@ATL@@QAEAAGH@Z 00437d3f f i atls:atlwinmodule.obj
 0001:00036d6b       ??0_ATL_WIN_MODULE70@ATL@@QAE@XZ 00437d6b f i atls:atlwinmodule.obj
 0001:00036d87       ?AtlWinModuleTerm@ATL@@YGJPAU_ATL_WIN_MODULE70@1@PAUHINSTANCE__@@@Z 00437d87 f i atls:atlwinmodule.obj
 0001:00036deb       ??0CAtlWinModule@ATL@@QAE@XZ 00437deb f i atls:atlwinmodule.obj
 0001:00036e13       ??1CAtlWinModule@ATL@@QAE@XZ 00437e13 f i atls:atlwinmodule.obj
 0001:00036e2d       ?_Xlen@_String_base@std@@SAXXZ 00437e2d f   libcpmt:string.obj
 0001:00036e65       ?_Xran@_String_base@std@@SAXXZ 00437e65 f   libcpmt:string.obj
 0001:00036e9d       ??_U@YAPAXI@Z              00437e9d f   libcpmt:newaop.obj
 0001:00036ea8       ??3@YAXPAX@Z               00437ea8 f   LIBCMT:delete.obj
 0001:00036eb3       @__security_check_cookie@4 00437eb3 f   LIBCMT:secchk.obj
 0001:00036ec2       ??_V@YAXPAX@Z              00437ec2 f   LIBCMT:delete2.obj
 0001:00036ecd       ??1type_info@@UAE@XZ       00437ecd f   LIBCMT:typinfo.obj
 0001:00036edd       ??_Etype_info@@UAEPAXI@Z   00437edd f i LIBCMT:typinfo.obj
 0001:00036edd       ??_Gtype_info@@UAEPAXI@Z   00437edd f i LIBCMT:typinfo.obj
 0001:00036efe       ??8type_info@@QBE_NABV0@@Z 00437efe f   LIBCMT:typinfo.obj
 0001:00036f1e       _wcscpy_s                  00437f1e f   LIBCMT:wcscpy_s.obj
 0001:00036f8d       _memmove_s                 00437f8d f   LIBCMT:memmove_s.obj
 0001:00036fea       ??0_LocaleUpdate@@QAE@PAUlocaleinfo_struct@@@Z 00437fea f i LIBCMT:wcsicmp.obj
 0001:00037071       __wcsicmp_l                00438071 f   LIBCMT:wcsicmp.obj
 0001:00037182       __wcsicmp                  00438182 f   LIBCMT:wcsicmp.obj
 0001:00037215       __strnicmp_l               00438215 f   LIBCMT:strnicmp.obj
 0001:00037307       __strnicmp                 00438307 f   LIBCMT:strnicmp.obj
 0001:00037365       ??0exception@std@@QAE@XZ   00438365 f   LIBCMT:stdexcpt.obj
 0001:00037376       ??0exception@std@@QAE@ABQBD@Z 00438376 f   LIBCMT:stdexcpt.obj
 0001:000373c9       ??0exception@std@@QAE@ABQBDH@Z 004383c9 f   LIBCMT:stdexcpt.obj
 0001:000373e6       ??0exception@std@@QAE@ABV01@@Z 004383e6 f   LIBCMT:stdexcpt.obj
 0001:00037443       ??1exception@std@@UAE@XZ   00438443 f   LIBCMT:stdexcpt.obj
 0001:00037459       ?what@exception@std@@UBEPBDXZ 00438459 f   LIBCMT:stdexcpt.obj
 0001:00037466       ??_Gexception@std@@UAEPAXI@Z 00438466 f i LIBCMT:stdexcpt.obj
 0001:00037466       ??_Eexception@std@@UAEPAXI@Z 00438466 f i LIBCMT:stdexcpt.obj
 0001:00037487       __wcsnicmp_l               00438487 f   LIBCMT:wcsnicmp.obj
 0001:00037571       __wcsnicmp                 00438571 f   LIBCMT:wcsnicmp.obj
 0001:00037630       _strchr                    00438630 f   LIBCMT:strchr.obj
 0001:00037636       ___from_strstr_to_strchr   00438636     LIBCMT:strchr.obj
 0001:000376ee       _atol                      004386ee f   LIBCMT:atox.obj
 0001:00037704       _atoi                      00438704 f   LIBCMT:atox.obj
 0001:000377c9       ___onexitinit              004387c9 f   LIBCMT:onexit.obj
 0001:000377fa       __onexit                   004387fa f   LIBCMT:onexit.obj
 0001:00037836       _atexit                    00438836 f   LIBCMT:onexit.obj
 0001:0003784d       __initp_misc_invarg        0043884d f   LIBCMT:invarg.obj
 0001:0003785c       __invoke_watson            0043885c f   LIBCMT:invarg.obj
 0001:00037984       __invalid_parameter        00438984 f   LIBCMT:invarg.obj
 0001:000379aa       __invalid_parameter_noinfo 004389aa f   LIBCMT:invarg.obj
 0001:000379ba       _wcsrchr                   004389ba f   LIBCMT:wcsrchr.obj
 0001:000379e6       _wcsstr                    004389e6 f   LIBCMT:wcsstr.obj
 0001:00037a47       _strcpy_s                  00438a47 f   LIBCMT:strcpy_s.obj
 0001:00037aaf       _memcpy_s                  00438aaf f   LIBCMT:memcpy_s.obj
 0001:00037b30       _strrchr                   00438b30 f   LIBCMT:strrchr.obj
 0001:00037b5d       _ldiv                      00438b5d f   LIBCMT:ldiv.obj
 0001:00037b6b       _strcat_s                  00438b6b f   LIBCMT:strcat_s.obj
 0001:00037bdf       _strncpy_s                 00438bdf f   LIBCMT:strncpy_s.obj
 0001:00037c94       ??0bad_alloc@std@@QAE@XZ   00438c94 f i LIBCMT:new.obj
 0001:00037caf       ??2@YAPAXI@Z               00438caf f   LIBCMT:new.obj
 0001:00037d14       _wcsncpy_s                 00438d14 f   LIBCMT:wcsncpy_s.obj
 0001:00037fe1       _wcstoul                   00438fe1 f   LIBCMT:wcstol.obj
 0001:0003800d       __vswprintf_helper         0043900d f   LIBCMT:vswprnc.obj
 0001:00038105       __vswprintf_s_l            00439105 f   LIBCMT:vswprnc.obj
 0001:00038190       _vswprintf_s               00439190 f   LIBCMT:vswprnc.obj
 0001:000381ad       __vsnwprintf_s_l           004391ad f   LIBCMT:vswprnc.obj
 0001:000382b9       __vsnwprintf_s             004392b9 f   LIBCMT:vswprnc.obj
 0001:000382d9       _free                      004392d9 f   LIBCMT:free.obj
 0001:00038367       _V6_HeapAlloc              00439367 f   LIBCMT:malloc.obj
 0001:000383b6       _malloc                    004393b6 f   LIBCMT:malloc.obj
 0001:00038480       _wcscat_s                  00439480 f   LIBCMT:wcscat_s.obj
 0001:000384fd       __towupper_l               004394fd f   LIBCMT:towupper.obj
 0001:000385b2       _towupper                  004395b2 f   LIBCMT:towupper.obj
 0001:000385c5       __recalloc                 004395c5 f   LIBCMT:recalloc.obj
 0001:00038640       __isleadbyte_l             00439640 f i LIBCMT:_wctype.obj
 0001:00038678       _isleadbyte                00439678 f i LIBCMT:_wctype.obj
 0001:0003868b       _iswprint                  0043968b f i LIBCMT:_wctype.obj
 0001:000386a1       _calloc                    004396a1 f   LIBCMT:calloc.obj
 0001:000386e1       __wfsopen                  004396e1 f   LIBCMT:wfopen.obj
 0001:000387a7       __wfopen_s                 004397a7 f   LIBCMT:wfopen.obj
 0001:000387fa       __vsnprintf_helper         004397fa f   LIBCMT:vsnprnc.obj
 0001:000388c6       __vsprintf_s_l             004398c6 f   LIBCMT:vsnprnc.obj
 0001:0003894e       _vsprintf_s                0043994e f   LIBCMT:vsnprnc.obj
 0001:0003896b       __vsnprintf_s_l            0043996b f   LIBCMT:vsnprnc.obj
 0001:00038a72       __vsnprintf_s              00439a72 f   LIBCMT:vsnprnc.obj
 0001:00038a92       _fputs                     00439a92 f   LIBCMT:fputs.obj
 0001:00038ba1       __purecall                 00439ba1 f   LIBCMT:purevirt.obj
 0001:00038bcb       _fputws                    00439bcb f   LIBCMT:fputws.obj
 0001:00038c77       __fclose_nolock            00439c77 f   LIBCMT:fclose.obj
 0001:00038cee       _fclose                    00439cee f   LIBCMT:fclose.obj
 0001:00038d6a       _swprintf_s                00439d6a f   LIBCMT:swprintf.obj
 0001:00038fb7       _strtol                    00439fb7 f   LIBCMT:strtol.obj
 0001:00038fe2       _strtoul                   00439fe2 f   LIBCMT:strtol.obj
 0001:000391b4       _wWinMainCRTStartup        0043a1b4 f   LIBCMT:wwincrt0.obj
 0001:000391c0       _memcpy                    0043a1c0 f   LIBCMT:memcpy.obj
 0001:00039530       _memset                    0043a530 f   LIBCMT:memset.obj
 0001:000395b0       __aullshr                  0043a5b0 f   LIBCMT:ullshr.obj
 0001:000395cf       ?_JumpToContinuation@@YGXPAXPAUEHRegistrationNode@@@Z 0043a5cf f   LIBCMT:_trnsctrl_.obj
 0001:00039601       ?_CallMemberFunction2@@YGXPAX00H@Z 0043a601 f   LIBCMT:_trnsctrl_.obj
 0001:00039601       ?_CallMemberFunction0@@YGXPAX0@Z 0043a601 f   LIBCMT:_trnsctrl_.obj
 0001:00039601       ?_CallMemberFunction1@@YGXPAX00@Z 0043a601 f   LIBCMT:_trnsctrl_.obj
 0001:00039608       ?_UnwindNestedFrames@@YGXPAUEHRegistrationNode@@PAUEHExceptionRecord@@@Z 0043a608 f   LIBCMT:_trnsctrl_.obj
 0001:0003965c       ___CxxFrameHandler3        0043a65c f   LIBCMT:_trnsctrl_.obj
 0001:000396c5       ?_CallSETranslator@@YAHPAUEHExceptionRecord@@PAUEHRegistrationNode@@PAX2PBU_s_FuncInfo@@H1@Z 0043a6c5 f   LIBCMT:_trnsctrl_.obj
 0001:0003983b       ?_GetRangeOfTrysToCheck@@YAPBU_s_TryBlockMapEntry@@PBU_s_FuncInfo@@HHPAI1@Z 0043a83b f   LIBCMT:_trnsctrl_.obj
 0001:000398b0       __CreateFrameInfo          0043a8b0 f   LIBCMT:_trnsctrl_.obj
 0001:000398dc       __IsExceptionObjectToBeDestroyed 0043a8dc f   LIBCMT:_trnsctrl_.obj
 0001:00039903       __FindAndUnlinkFrame       0043a903 f   LIBCMT:_trnsctrl_.obj
 0001:00039955       ?_CallCatchBlock2@@YAPAXPAUEHRegistrationNode@@PBU_s_FuncInfo@@PAXHK@Z 0043a955 f   LIBCMT:_trnsctrl_.obj
 0001:000399c0       _memmove                   0043a9c0 f   LIBCMT:memmove.obj
 0001:00039d25       __fread_nolock_s           0043ad25 f   LIBCMT:fread.obj
 0001:00039f2f       _fread_s                   0043af2f f   LIBCMT:fread.obj
 0001:00039fc5       _fread                     0043afc5 f   LIBCMT:fread.obj
 0001:00039fe2       __ftell_nolock             0043afe2 f   LIBCMT:ftell.obj
 0001:0003a17f       _ftell                     0043b17f f   LIBCMT:ftell.obj
 0001:0003a1ed       __fseek_nolock             0043b1ed f   LIBCMT:fseek.obj
 0001:0003a277       _fseek                     0043b277 f   LIBCMT:fseek.obj
 0001:0003a2fc       _fprintf                   0043b2fc f   LIBCMT:fprintf.obj
 0001:0003a418       __cfltcvt_init             0043b418 f   LIBCMT:_fpinit_.obj
 0001:0003a478       __fpmath                   0043b478 f   LIBCMT:_fpinit_.obj
 0001:0003a49b       __isalpha_l                0043b49b f i LIBCMT:_ctype.obj
 0001:0003a4f1       _isalpha                   0043b4f1 f i LIBCMT:_ctype.obj
 0001:0003a521       __isdigit_l                0043b521 f i LIBCMT:_ctype.obj
 0001:0003a572       _isdigit                   0043b572 f i LIBCMT:_ctype.obj
 0001:0003a5a0       __isspace_l                0043b5a0 f i LIBCMT:_ctype.obj
 0001:0003a5f1       _isspace                   0043b5f1 f i LIBCMT:_ctype.obj
 0001:0003a61f       __isalnum_l                0043b61f f i LIBCMT:_ctype.obj
 0001:0003a675       _isalnum                   0043b675 f i LIBCMT:_ctype.obj
 0001:0003a6a5       __tolower_l                0043b6a5 f   LIBCMT:tolower.obj
 0001:0003a7ba       _tolower                   0043b7ba f   LIBCMT:tolower.obj
 0001:0003a7e6       _strncmp                   0043b7e6 f   LIBCMT:strncmp.obj
 0001:0003a8a8       __SEH_prolog4              0043b8a8 f   LIBCMT:sehprolg4.obj
 0001:0003a8ed       __SEH_epilog4              0043b8ed f   LIBCMT:sehprolg4.obj
 0001:0003a910       __except_handler4          0043b910 f   LIBCMT:chandler4.obj
 0001:0003aaa0       _strlen                    0043baa0 f   LIBCMT:strlen.obj
 0001:0003ab2b       __CxxThrowException@8      0043bb2b f   LIBCMT:throw.obj
 0001:0003ab77       __EH_prolog3               0043bb77 f   LIBCMT:ehprolg3.obj
 0001:0003abaa       __EH_prolog3_catch         0043bbaa f   LIBCMT:ehprolg3.obj
 0001:0003abe0       ___report_gsfailure        0043bbe0 f   LIBCMT:gs_report.obj
 0001:0003ace6       ?terminate@@YAXXZ          0043bce6 f   LIBCMT:hooks.obj
 0001:0003ad1f       ?unexpected@@YAXXZ         0043bd1f f   LIBCMT:hooks.obj
 0001:0003ad32       ?_inconsistency@@YAXXZ     0043bd32 f   LIBCMT:hooks.obj
 0001:0003ad6a       __initp_eh_hooks           0043bd6a f   LIBCMT:hooks.obj
 0001:0003ad7b       ?_Type_info_dtor@type_info@@CAXPAV1@@Z 0043bd7b f   LIBCMT:typname.obj
 0001:0003adf0       _strcmp                    0043bdf0 f   LIBCMT:strcmp.obj
 0001:0003ae78       __get_errno_from_oserr     0043be78 f   LIBCMT:dosmap.obj
 0001:0003aeba       __errno                    0043beba f   LIBCMT:dosmap.obj
 0001:0003aecd       ___doserrno                0043becd f   LIBCMT:dosmap.obj
 0001:0003aee0       __dosmaperr                0043bee0 f   LIBCMT:dosmap.obj
 0001:0003b129       ___updatetmbcinfo          0043c129 f   LIBCMT:mbctype.obj
 0001:0003b249       __setmbcp_nolock           0043c249 f   LIBCMT:mbctype.obj
 0001:0003b42e       __setmbcp                  0043c42e f   LIBCMT:mbctype.obj
 0001:0003b5c8       ___initmbctable            0043c5c8 f   LIBCMT:mbctype.obj
 0001:0003b5e6       ___freetlocinfo            0043c5e6 f   LIBCMT:setlocal.obj
 0001:0003b72f       ___addlocaleref            0043c72f f   LIBCMT:setlocal.obj
 0001:0003b7be       ___removelocaleref         0043c7be f   LIBCMT:setlocal.obj
 0001:0003b895       ___updatetlocinfo          0043c895 f   LIBCMT:setlocal.obj
 0001:0003b90b       __encode_pointer           0043c90b f   LIBCMT:tidtable.obj
 0001:0003b97d       __encoded_null             0043c97d f   LIBCMT:tidtable.obj
 0001:0003b986       __decode_pointer           0043c986 f   LIBCMT:tidtable.obj
 0001:0003b9f8       ___crtTlsAlloc@4           0043c9f8 f   LIBCMT:tidtable.obj
 0001:0003ba01       ___set_flsgetvalue         0043ca01 f   LIBCMT:tidtable.obj
 0001:0003ba35       __mtterm                   0043ca35 f   LIBCMT:tidtable.obj
 0001:0003ba72       __initptd                  0043ca72 f   LIBCMT:tidtable.obj
 0001:0003bb59       __getptd_noexit            0043cb59 f   LIBCMT:tidtable.obj
 0001:0003bbd2       __getptd                   0043cbd2 f   LIBCMT:tidtable.obj
 0001:0003bbec       __freefls@4                0043cbec f   LIBCMT:tidtable.obj
 0001:0003bd1b       __mtinit                   0043cd1b f   LIBCMT:tidtable.obj
 0001:0003bea8       __towlower_l               0043cea8 f   LIBCMT:towlower.obj
 0001:0003bf60       ___ascii_strnicmp          0043cf60 f   LIBCMT:_strnicm.obj
 0001:0003bfc1       __malloc_crt               0043cfc1 f   LIBCMT:crtheap.obj
 0001:0003c006       __calloc_crt               0043d006 f   LIBCMT:crtheap.obj
 0001:0003c052       __realloc_crt              0043d052 f   LIBCMT:crtheap.obj
 0001:0003c0a0       __msize                    0043d0a0 f   LIBCMT:msize.obj
 0001:0003c143       __crt_waiting_on_module_handle 0043d143 f   LIBCMT:crt0dat.obj
 0001:0003c173       __amsg_exit                0043d173 f   LIBCMT:crt0dat.obj
 0001:0003c19c       ___crtCorExitProcess       0043d19c f   LIBCMT:crt0dat.obj
 0001:0003c1c7       ___crtExitProcess          0043d1c7 f   LIBCMT:crt0dat.obj
 0001:0003c1df       __lockexit                 0043d1df f   LIBCMT:crt0dat.obj
 0001:0003c1e8       __unlockexit               0043d1e8 f   LIBCMT:crt0dat.obj
 0001:0003c20e       __initterm_e               0043d20e f   LIBCMT:crt0dat.obj
 0001:0003c232       __cinit                    0043d232 f   LIBCMT:crt0dat.obj
 0001:0003c3e3       _exit                      0043d3e3 f   LIBCMT:crt0dat.obj
 0001:0003c3f9       __exit                     0043d3f9 f   LIBCMT:crt0dat.obj
 0001:0003c40f       __cexit                    0043d40f f   LIBCMT:crt0dat.obj
 0001:0003c41e       __c_exit                   0043d41e f   LIBCMT:crt0dat.obj
 0001:0003c42d       __init_pointers            0043d42d f   LIBCMT:crt0dat.obj
 0001:0003c47b       __crt_debugger_hook        0043d47b f   LIBCMT:dbghook.obj
 0001:0003c483       __initp_heap_handler       0043d483 f   LIBCMT:handler.obj
 0001:0003c492       __callnewh                 0043d492 f   LIBCMT:handler.obj
 0001:0003c4ba       __wchartodigit             0043d4ba f   LIBCMT:wchtodig.obj
 0001:0003c695       __iswctype_l               0043d695 f   LIBCMT:iswctype.obj
 0001:0003c71f       _iswctype                  0043d71f f   LIBCMT:iswctype.obj
 0001:0003c795       __flsbuf                   0043d795 f   LIBCMT:_flsbuf.obj
 0001:0003c9a1       __woutput_s_l              0043d9a1 f   LIBCMT:woutputs.obj
 0001:0003d541       __heap_init                0043e541 f   LIBCMT:heapinit.obj
 0001:0003d571       __mtinitlocks              0043e571 f   LIBCMT:mlock.obj
 0001:0003d5bc       __mtdeletelocks            0043e5bc f   LIBCMT:mlock.obj
 0001:0003d613       __unlock                   0043e613 f   LIBCMT:mlock.obj
 0001:0003d62a       __mtinitlocknum            0043e62a f   LIBCMT:mlock.obj
 0001:0003d6ed       __lock                     0043e6ed f   LIBCMT:mlock.obj
 0001:0003d720       ___sbh_find_block          0043e720 f   LIBCMT:sbheap.obj
 0001:0003d750       ___sbh_free_block          0043e750 f   LIBCMT:sbheap.obj
 0001:0003da66       ___sbh_alloc_new_region    0043ea66 f   LIBCMT:sbheap.obj
 0001:0003db16       ___sbh_alloc_new_group     0043eb16 f   LIBCMT:sbheap.obj
 0001:0003dc1e       ___sbh_resize_block        0043ec1e f   LIBCMT:sbheap.obj
 0001:0003deff       ___sbh_alloc_block         0043eeff f   LIBCMT:sbheap.obj
 0001:0003e1e4       __NMSG_WRITE               0043f1e4 f   LIBCMT:crt0msg.obj
 0001:0003e38f       __FF_MSGBANNER             0043f38f f   LIBCMT:crt0msg.obj
 0001:0003e3c8       ___crtLCMapStringW         0043f3c8 f   LIBCMT:w_map.obj
 0001:0003e41f       _realloc                   0043f41f f   LIBCMT:realloc.obj
 0001:0003e63a       __calloc_impl              0043f63a f   LIBCMT:calloc_impl.obj
 0001:0003e758       ___iob_func                0043f758 f   LIBCMT:_file.obj
 0001:0003e75e       ___initstdio               0043f75e f   LIBCMT:_file.obj
 0001:0003e80f       ___endstdio                0043f80f f   LIBCMT:_file.obj
 0001:0003e82f       __lock_file                0043f82f f   LIBCMT:_file.obj
 0001:0003e870       __lock_file2               0043f870 f   LIBCMT:_file.obj
 0001:0003e8a2       __unlock_file              0043f8a2 f   LIBCMT:_file.obj
 0001:0003e8de       __unlock_file2             0043f8de f   LIBCMT:_file.obj
 0001:0003e90d       __wopenfile                0043f90d f   LIBCMT:_wopen.obj
 0001:0003ebc1       __getstream                0043fbc1 f   LIBCMT:stream.obj
 0001:0003ecfc       __local_unwind4            0043fcfc f   LIBCMT:exsup4.obj
 0001:0003edd2       __seh_longjmp_unwind4@4    0043fdd2 f   LIBCMT:exsup4.obj
 0001:0003edee       @_EH4_CallFilterFunc@8     0043fdee f   LIBCMT:exsup4.obj
 0001:0003ee05       @_EH4_TransferToHandler@8  0043fe05 f   LIBCMT:exsup4.obj
 0001:0003ee1e       @_EH4_GlobalUnwind@4       0043fe1e f   LIBCMT:exsup4.obj
 0001:0003ee38       @_EH4_LocalUnwind@16       0043fe38 f   LIBCMT:exsup4.obj
 0001:0003ee4f       __output_l                 0043fe4f f   LIBCMT:output.obj
 0001:0003fa8d       __output_s_l               00440a8d f   LIBCMT:outputs.obj
 0001:0004065d       __stbuf                    0044165d f   LIBCMT:_sftbuf.obj
 0001:000406f9       __ftbuf                    004416f9 f   LIBCMT:_sftbuf.obj
 0001:0004072d       __fwrite_nolock            0044172d f   LIBCMT:fwrite.obj
 0001:0004088f       __ioinit                   0044188f f   LIBCMT:ioinit.obj
 0001:00040ae3       __fileno                   00441ae3 f   LIBCMT:fileno.obj
 0001:00040b15       _abort                     00441b15 f   LIBCMT:abort.obj
 0001:00040c2c       __set_abort_behavior       00441c2c f   LIBCMT:abort.obj
 0001:00040c4d       __initp_misc_purevirt      00441c4d f   LIBCMT:inithelp.obj
 0001:00040c5c       __fputwc_nolock            00441c5c f   LIBCMT:fputwc.obj
 0001:00040de3       _wcslen                    00441de3 f   LIBCMT:wcslen.obj
 0001:00040dfd       __close_nolock             00441dfd f   LIBCMT:close.obj
 0001:00040e99       __close                    00441e99 f   LIBCMT:close.obj
 0001:00040f66       __freebuf                  00441f66 f   LIBCMT:_freebuf.obj
 0001:00040f97       __flush                    00441f97 f   LIBCMT:fflush.obj
 0001:00040fff       __fflush_nolock            00441fff f   LIBCMT:fflush.obj
 0001:00041121       __flushall                 00442121 f   LIBCMT:fflush.obj
 0001:0004112a       __isctype_l                0044212a f   LIBCMT:isctype.obj
 0001:000411e2       ?__CxxUnhandledExceptionFilter@@YGJPAU_EXCEPTION_POINTERS@@@Z 004421e2 f   LIBCMT:unhandld.obj
 0001:00041224       ___CxxSetUnhandledExceptionFilter 00442224 f   LIBCMT:unhandld.obj
 0001:00041232       __initp_misc_winxfltr      00442232 f   LIBCMT:winxfltr.obj
 0001:00041232       __fpclear                  00442232 f   LIBCMT:_fpinit_.obj
 0001:00041233       __XcptFilter               00442233 f   LIBCMT:winxfltr.obj
 0001:00041393       __wwincmdln                00442393 f   LIBCMT:wwncmdln.obj
 0001:000413d9       __wsetenvp                 004423d9 f   LIBCMT:wstdenvp.obj
 0001:00041608       __wsetargv                 00442608 f   LIBCMT:wstdargv.obj
 0001:000416b6       ___crtGetEnvironmentStringsW 004426b6 f   LIBCMT:w_env.obj
 0001:0004170d       ___crtGetCommandLineW      0044270d f   LIBCMT:aw_com.obj
 0001:00041713       __RTC_Initialize           00442713 f   LIBCMT:_initsect_.obj
 0001:00041739       __RTC_Terminate            00442739 f   LIBCMT:_initsect_.obj
 0001:0004175f       ___security_init_cookie    0044275f f   LIBCMT:gs_support.obj
 0001:0004187c       __VEC_memcpy               0044287c f   LIBCMT:p4_memcpy.obj
 0001:000419af       __get_sse2_info            004429af f   LIBCMT:cpu_disp.obj
 0001:00041a11       ___sse2_available_init     00442a11 f   LIBCMT:cpu_disp.obj
 0001:00041a75       __VEC_memzero              00442a75 f   LIBCMT:p4_memset.obj
 0001:00041b04       ??0bad_exception@std@@QAE@PBD@Z 00442b04 f i LIBCMT:frame.obj
 0001:00041b22       ??1bad_exception@std@@UAE@XZ 00442b22 f i LIBCMT:frame.obj
 0001:00041b2d       ??_Ebad_exception@std@@UAEPAXI@Z 00442b2d f i LIBCMT:frame.obj
 0001:00041b2d       ??_Gbad_exception@std@@UAEPAXI@Z 00442b2d f i LIBCMT:frame.obj
 0001:00041b54       ___TypeMatch               00442b54 f   LIBCMT:frame.obj
 0001:00041bb3       ___FrameUnwindFilter       00442bb3 f   LIBCMT:frame.obj
 0001:00041bfc       ___FrameUnwindToState      00442bfc f   LIBCMT:frame.obj
 0001:00041d22       ___DestructExceptionObject 00442d22 f   LIBCMT:frame.obj
 0001:00041d77       ___AdjustPointer           00442d77 f   LIBCMT:frame.obj
 0001:00042000       ___BuildCatchObjectHelper  00443000 f   LIBCMT:frame.obj
 0001:0004217f       ___BuildCatchObject        0044317f f   LIBCMT:frame.obj
 0001:000426ba       ??0bad_exception@std@@QAE@ABV01@@Z 004436ba f i LIBCMT:frame.obj
 0001:000426d7       ___InternalCxxFrameHandler 004436d7 f   LIBCMT:frame.obj
 0001:000427c0       __CallSettingFrame@12      004437c0 f   LIBCMT:lowhelpr.obj
 0001:000427e7       __NLG_Return               004437e7     LIBCMT:lowhelpr.obj
 0001:0004280c       __filbuf                   0044380c f   LIBCMT:_filbuf.obj
 0001:00042937       __read_nolock              00443937 f   LIBCMT:read.obj
 0001:00042ef9       __read                     00443ef9 f   LIBCMT:read.obj
 0001:00042ff6       __lseek_nolock             00443ff6 f   LIBCMT:lseek.obj
 0001:0004306b       __lseek                    0044406b f   LIBCMT:lseek.obj
 0001:00043147       ___strgtold12_l            00444147 f   LIBCMT:_strgtold_.obj
 0001:0004383f       __forcdecpt_l              0044483f f   LIBCMT:cvt.obj
 0001:000438b2       __cropzeros_l              004448b2 f   LIBCMT:cvt.obj
 0001:00043934       __positive                 00444934 f   LIBCMT:cvt.obj
 0001:00043950       __fassign_l                00444950 f   LIBCMT:cvt.obj
 0001:00043992       __fassign                  00444992 f   LIBCMT:cvt.obj
 0001:000439cb       __forcdecpt                004449cb f   LIBCMT:cvt.obj
 0001:000439de       __cropzeros                004449de f   LIBCMT:cvt.obj
 0001:00043b60       __cftoe_l                  00444b60 f   LIBCMT:cvt.obj
 0001:00043c30       __cftoe                    00444c30 f   LIBCMT:cvt.obj
 0001:00043c50       __cftoa_l                  00444c50 f   LIBCMT:cvt.obj
 0001:000440ba       __cftof_l                  004450ba f   LIBCMT:cvt.obj
 0001:00044175       __cftog_l                  00445175 f   LIBCMT:cvt.obj
 0001:0004426f       __cfltcvt_l                0044526f f   LIBCMT:cvt.obj
 0001:000442f7       __cfltcvt                  004452f7 f   LIBCMT:cvt.obj
 0001:0004431a       __initp_misc_cfltcvt_tab   0044531a f   LIBCMT:cmiscdat.obj
 0001:0004433b       __setdefaultprecision      0044533b f   LIBCMT:fp8.obj
 0001:00044366       __ms_p5_test_fdiv          00445366 f   LIBCMT:_testfdiv_.obj
 0001:000443a4       __ms_p5_mp_test_fdiv       004453a4 f   LIBCMT:_testfdiv_.obj
 0001:000443cd       __freea                    004453cd f i LIBCMT:a_map.obj
 0001:00044792       ___crtLCMapStringA         00445792 f   LIBCMT:a_map.obj
 0001:000447e0       __ValidateImageBase        004457e0 f   LIBCMT:pesect.obj
 0001:00044820       __FindPESection            00445820 f   LIBCMT:pesect.obj
 0001:00044870       __IsNonwritableInCurrentImage 00445870 f   LIBCMT:pesect.obj
 0001:00044ae7       ___crtGetStringTypeA       00445ae7 f   LIBCMT:a_str.obj
 0001:00044b29       ___free_lc_time            00445b29 f   LIBCMT:inittime.obj
 0001:00044cbe       ___free_lconv_num          00445cbe f   LIBCMT:initnum.obj
 0001:00044d03       ___free_lconv_mon          00445d03 f   LIBCMT:initmon.obj
 0001:00044da0       _strcspn                   00445da0 f   LIBCMT:strcspn.obj
 0001:00044df0       _strpbrk                   00445df0 f   LIBCMT:strpbrk.obj
 0001:00044e30       __allmul                   00445e30 f   LIBCMT:llmul.obj
 0001:00044e70       __aulldvrm                 00445e70 f   LIBCMT:ulldvrm.obj
 0001:00044f05       __initp_misc_winsig        00445f05 f   LIBCMT:winsig.obj
 0001:00044f5a       ___get_sigabrt             00445f5a f   LIBCMT:winsig.obj
 0001:00044f67       _raise                     00445f67 f   LIBCMT:winsig.obj
 0001:00045117       __initp_misc_rand_s        00446117 f   LIBCMT:rand_s.obj
 0001:00045126       __initp_misc_initcrit      00446126 f   LIBCMT:initcrit.obj
 0001:00045135       ___crtInitCritSecAndSpinCount 00446135 f   LIBCMT:initcrit.obj
 0001:00045195       ___crtGetStringTypeW       00446195 f   LIBCMT:w_str.obj
 0001:000451d3       __lseeki64_nolock          004461d3 f   LIBCMT:lseeki64.obj
 0001:00045258       __lseeki64                 00446258 f   LIBCMT:lseeki64.obj
 0001:00045371       __write_nolock             00446371 f   LIBCMT:write.obj
 0001:00045aa4       __write                    00446aa4 f   LIBCMT:write.obj
 0001:00045b80       __getbuf                   00446b80 f   LIBCMT:_getbuf.obj
 0001:00045bc9       __isatty                   00446bc9 f   LIBCMT:isatty.obj
 0001:00045c2d       __get_printf_count_output  00446c2d f   LIBCMT:printf.obj
 0001:00045c43       __mbtowc_l                 00446c43 f   LIBCMT:mbtowc.obj
 0001:00045d5a       _mbtowc                    00446d5a f   LIBCMT:mbtowc.obj
 0001:00045d74       ___crtMessageBoxA          00446d74 f   LIBCMT:crtmbox.obj
 0001:00045edd       __set_error_mode           00446edd f   LIBCMT:errmode.obj
 0001:00045f28       __fcloseall                00446f28 f   LIBCMT:closeall.obj
 0001:000466e7       __wsopen_helper            004476e7 f   LIBCMT:wopen.obj
 0001:000467b3       __wsopen_s                 004477b3 f   LIBCMT:wopen.obj
 0001:000467d3       _wcsncmp                   004477d3 f   LIBCMT:wcsncmp.obj
 0001:0004680c       __global_unwind2           0044780c f   LIBCMT:exsup.obj
 0001:00046871       __local_unwind2            00447871 f   LIBCMT:exsup.obj
 0001:000468f5       __abnormal_termination     004478f5 f   LIBCMT:exsup.obj
 0001:00046918       __NLG_Notify1              00447918 f   LIBCMT:exsup.obj
 0001:00046921       __NLG_Notify               00447921 f   LIBCMT:exsup.obj
 0001:00046938       __NLG_Dispatch2            00447938     LIBCMT:exsup.obj
 0001:00046938       __NLG_Dispatch             00447938     LIBCMT:exsup.obj
 0001:00046940       __NLG_Call                 00447940 f   LIBCMT:exsup.obj
 0001:00046942       __NLG_Return2              00447942     LIBCMT:exsup.obj
 0001:00046943       __wctomb_s_l               00447943 f   LIBCMT:wctomb.obj
 0001:00046aaf       _wctomb_s                  00447aaf f   LIBCMT:wctomb.obj
 0001:00046acc       __flswbuf                  00447acc f   LIBCMT:_flswbuf.obj
 0001:00046c40       __set_osfhnd               00447c40 f   LIBCMT:osfinfo.obj
 0001:00046cc1       __free_osfhnd              00447cc1 f   LIBCMT:osfinfo.obj
 0001:00046d47       __get_osfhandle            00447d47 f   LIBCMT:osfinfo.obj
 0001:00046dbe       ___lock_fhandle            00447dbe f   LIBCMT:osfinfo.obj
 0001:00046e5e       __unlock_fhandle           00447e5e f   LIBCMT:osfinfo.obj
 0001:00046e85       __alloc_osfhnd             00447e85 f   LIBCMT:osfinfo.obj
 0001:0004701f       __commit                   0044801f f   LIBCMT:commit.obj
 0001:00047100       ?_ValidateRead@@YAHPBXI@Z  00448100 f   LIBCMT:validate.obj
 0001:00047100       ?_ValidateExecute@@YAHP6GHXZ@Z 00448100 f   LIBCMT:validate.obj
 0001:00047100       ?_ValidateWrite@@YAHPAXI@Z 00448100 f   LIBCMT:validate.obj
 0001:00047112       __ld12tod                  00448112 f   LIBCMT:_intrncvt_.obj
 0001:00047656       __ld12tof                  00448656 f   LIBCMT:_intrncvt_.obj
 0001:00047b9a       ___mtold12                 00448b9a f   LIBCMT:_mantold_.obj
 0001:00047d68       __atodbl_l                 00448d68 f   LIBCMT:atodbl.obj
 0001:00047e10       __atoflt_l                 00448e10 f   LIBCMT:atodbl.obj
 0001:00047eb8       __fptostr                  00448eb8 f   LIBCMT:_fptostr.obj
 0001:00047f77       ___dtold                   00448f77 f   LIBCMT:_cfout_.obj
 0001:00048034       __fltout2                  00449034 f   LIBCMT:_cfout_.obj
 0001:000480d0       __alldvrm                  004490d0 f   LIBCMT:lldvrm.obj
 0001:000481af       __fptrap                   004491af f   LIBCMT:crt0fp.obj
 0001:000481b8       __controlfp_s              004491b8 f   LIBCMT:_contrlfp_.obj
 0001:00048224       ___ansicp                  00449224 f   LIBCMT:convrtcp.obj
 0001:0004826d       ___convertcp               0044926d f   LIBCMT:convrtcp.obj
 0001:00048430       __alloca_probe_16          00449430 f   LIBCMT:alloca16.obj
 0001:00048446       __alloca_probe_8           00449446     LIBCMT:alloca16.obj
 0001:0004845c       __putwch_nolock            0044945c f   LIBCMT:putwch.obj
 0001:00048530       __chkstk                   00449530 f   LIBCMT:chkstk.obj
 0001:00048530       __alloca_probe             00449530     LIBCMT:chkstk.obj
 0001:0004855b       __chsize_nolock            0044955b f   LIBCMT:chsize.obj
 0001:00048711       __setmode_nolock           00449711 f   LIBCMT:setmode.obj
 0001:000487cd       __get_fmode                004497cd f   LIBCMT:setmode.obj
 0001:00048806       _$I10_OUTPUT               00449806 f   LIBCMT:_x10fout_.obj
 0001:00049258       __control87                0044a258 f i LIBCMT:_ieee87_.obj
 0001:00049567       ___initconout              0044a567 f   LIBCMT:initcon.obj
 0001:00049586       ___termcon                 0044a586 f   LIBCMT:initcon.obj
 0001:000495b3       ___set_fpsr_sse2           0044a5b3 f   LIBCMT:_fpctrl_.obj
 0001:00049626       _GetModuleFileNameExW@16   0044a626 f   Psapi:PSAPI.DLL
 0001:0004962c       _GetMappedFileNameW@16     0044a62c f   Psapi:PSAPI.DLL
 0001:00049632       _EnumProcessModules@16     0044a632 f   Psapi:PSAPI.DLL
 0001:00049638       _GetProcessImageFileNameW@12 0044a638 f   Psapi:PSAPI.DLL
 0001:0004963e       _RtlUnwind@16              0044a63e f   kernel32:KERNEL32.dll
 0002:00000000       __imp__RegOpenKeyExW@20    0044d000     advapi32:ADVAPI32.dll
 0002:00000004       __imp__RegDeleteKeyW@8     0044d004     advapi32:ADVAPI32.dll
 0002:00000008       __imp__RegQueryInfoKeyW@48 0044d008     advapi32:ADVAPI32.dll
 0002:0000000c       __imp__RegCreateKeyExW@36  0044d00c     advapi32:ADVAPI32.dll
 0002:00000010       __imp__RegEnumKeyExW@32    0044d010     advapi32:ADVAPI32.dll
 0002:00000014       __imp__RegCloseKey@4       0044d014     advapi32:ADVAPI32.dll
 0002:00000018       __imp__RegSetValueExW@24   0044d018     advapi32:ADVAPI32.dll
 0002:0000001c       __imp__OpenProcessToken@12 0044d01c     advapi32:ADVAPI32.dll
 0002:00000020       __imp__LookupPrivilegeValueW@12 0044d020     advapi32:ADVAPI32.dll
 0002:00000024       __imp__AdjustTokenPrivileges@24 0044d024     advapi32:ADVAPI32.dll
 0002:00000028       __imp__RegDeleteValueW@8   0044d028     advapi32:ADVAPI32.dll
 0002:0000002c       \177ADVAPI32_NULL_THUNK_DATA 0044d02c     advapi32:ADVAPI32.dll
 0002:00000030       __imp__InitCommonControlsEx@4 0044d030     comctl32:COMCTL32.dll
 0002:00000034       __imp__ImageList_Destroy@4 0044d034     comctl32:COMCTL32.dll
 0002:00000038       __imp__ImageList_ReplaceIcon@12 0044d038     comctl32:COMCTL32.dll
 0002:0000003c       __imp__ImageList_Create@20 0044d03c     comctl32:COMCTL32.dll
 0002:00000040       \177COMCTL32_NULL_THUNK_DATA 0044d040     comctl32:COMCTL32.dll
 0002:00000044       __imp__GetOpenFileNameW@4  0044d044     comdlg32:COMDLG32.dll
 0002:00000048       __imp__GetSaveFileNameW@4  0044d048     comdlg32:COMDLG32.dll
 0002:0000004c       \177COMDLG32_NULL_THUNK_DATA 0044d04c     comdlg32:COMDLG32.dll
 0002:00000050       __imp__CreateBitmap@20     0044d050     gdi32:GDI32.dll
 0002:00000054       __imp__SelectObject@8      0044d054     gdi32:GDI32.dll
 0002:00000058       __imp__SelectClipRgn@8     0044d058     gdi32:GDI32.dll
 0002:0000005c       __imp__CreateRectRgnIndirect@4 0044d05c     gdi32:GDI32.dll
 0002:00000060       __imp__CombineRgn@16       0044d060     gdi32:GDI32.dll
 0002:00000064       __imp__CreateRectRgn@16    0044d064     gdi32:GDI32.dll
 0002:00000068       __imp__CreatePatternBrush@4 0044d068     gdi32:GDI32.dll
 0002:0000006c       __imp__GetClipBox@8        0044d06c     gdi32:GDI32.dll
 0002:00000070       __imp__GetDeviceCaps@8     0044d070     gdi32:GDI32.dll
 0002:00000074       __imp__CreateFontIndirectW@4 0044d074     gdi32:GDI32.dll
 0002:00000078       __imp__DeleteObject@4      0044d078     gdi32:GDI32.dll
 0002:0000007c       __imp__GetObjectW@12       0044d07c     gdi32:GDI32.dll
 0002:00000080       __imp__PatBlt@24           0044d080     gdi32:GDI32.dll
 0002:00000084       \177GDI32_NULL_THUNK_DATA  0044d084     gdi32:GDI32.dll
 0002:00000088       __imp__LoadResource@8      0044d088     kernel32:KERNEL32.dll
 0002:0000008c       __imp__SetUnhandledExceptionFilter@4 0044d08c     kernel32:KERNEL32.dll
 0002:00000090       __imp__LoadLibraryExW@12   0044d090     kernel32:KERNEL32.dll
 0002:00000094       __imp__InterlockedIncrement@4 0044d094     kernel32:KERNEL32.dll
 0002:00000098       __imp__InterlockedDecrement@4 0044d098     kernel32:KERNEL32.dll
 0002:0000009c       __imp__InitializeCriticalSection@4 0044d09c     kernel32:KERNEL32.dll
 0002:000000a0       __imp__SizeofResource@8    0044d0a0     kernel32:KERNEL32.dll
 0002:000000a4       __imp__LeaveCriticalSection@4 0044d0a4     kernel32:KERNEL32.dll
 0002:000000a8       __imp__lstrlenW@4          0044d0a8     kernel32:KERNEL32.dll
 0002:000000ac       __imp__SetLastError@4      0044d0ac     kernel32:KERNEL32.dll
 0002:000000b0       __imp__EnterCriticalSection@4 0044d0b0     kernel32:KERNEL32.dll
 0002:000000b4       __imp__lstrcmpiW@8         0044d0b4     kernel32:KERNEL32.dll
 0002:000000b8       __imp__DeleteCriticalSection@4 0044d0b8     kernel32:KERNEL32.dll
 0002:000000bc       __imp__GetCurrentThreadId@0 0044d0bc     kernel32:KERNEL32.dll
 0002:000000c0       __imp__GetVersion@0        0044d0c0     kernel32:KERNEL32.dll
 0002:000000c4       __imp__CreateFileW@28      0044d0c4     kernel32:KERNEL32.dll
 0002:000000c8       __imp__SetFilePointer@16   0044d0c8     kernel32:KERNEL32.dll
 0002:000000cc       __imp__SetEndOfFile@4      0044d0cc     kernel32:KERNEL32.dll
 0002:000000d0       __imp__ReadFile@20         0044d0d0     kernel32:KERNEL32.dll
 0002:000000d4       __imp__FindFirstFileW@8    0044d0d4     kernel32:KERNEL32.dll
 0002:000000d8       __imp__GetFileAttributesW@4 0044d0d8     kernel32:KERNEL32.dll
 0002:000000dc       __imp__FindClose@4         0044d0dc     kernel32:KERNEL32.dll
 0002:000000e0       __imp__FindNextFileW@8     0044d0e0     kernel32:KERNEL32.dll
 0002:000000e4       __imp__WriteFile@20        0044d0e4     kernel32:KERNEL32.dll
 0002:000000e8       __imp__CopyFileW@12        0044d0e8     kernel32:KERNEL32.dll
 0002:000000ec       __imp__ReadProcessMemory@20 0044d0ec     kernel32:KERNEL32.dll
 0002:000000f0       __imp__GetFileSizeEx@8     0044d0f0     kernel32:KERNEL32.dll
 0002:000000f4       __imp__VirtualProtectEx@20 0044d0f4     kernel32:KERNEL32.dll
 0002:000000f8       __imp__WideCharToMultiByte@32 0044d0f8     kernel32:KERNEL32.dll
 0002:000000fc       __imp__GetVersionExW@4     0044d0fc     kernel32:KERNEL32.dll
 0002:00000100       __imp__GetSystemInfo@4     0044d100     kernel32:KERNEL32.dll
 0002:00000104       __imp__GetConsoleMode@8    0044d104     kernel32:KERNEL32.dll
 0002:00000108       __imp__GetConsoleCP@0      0044d108     kernel32:KERNEL32.dll
 0002:0000010c       __imp__InitializeCriticalSectionAndSpinCount@8 0044d10c     kernel32:KERNEL32.dll
 0002:00000110       __imp__GetLocaleInfoA@16   0044d110     kernel32:KERNEL32.dll
 0002:00000114       __imp__GetStringTypeW@16   0044d114     kernel32:KERNEL32.dll
 0002:00000118       __imp__GetStringTypeA@20   0044d118     kernel32:KERNEL32.dll
 0002:0000011c       __imp__LCMapStringA@24     0044d11c     kernel32:KERNEL32.dll
 0002:00000120       __imp__GetCurrentProcess@0 0044d120     kernel32:KERNEL32.dll
 0002:00000124       __imp__GetCurrentProcessId@0 0044d124     kernel32:KERNEL32.dll
 0002:00000128       __imp__GetTickCount@0      0044d128     kernel32:KERNEL32.dll
 0002:0000012c       __imp__FreeLibrary@4       0044d12c     kernel32:KERNEL32.dll
 0002:00000130       __imp__GetCommandLineW@0   0044d130     kernel32:KERNEL32.dll
 0002:00000134       __imp__GetEnvironmentStringsW@0 0044d134     kernel32:KERNEL32.dll
 0002:00000138       __imp__FindResourceW@12    0044d138     kernel32:KERNEL32.dll
 0002:0000013c       __imp__GetStartupInfoA@4   0044d13c     kernel32:KERNEL32.dll
 0002:00000140       __imp__GetFileType@4       0044d140     kernel32:KERNEL32.dll
 0002:00000144       __imp__SetHandleCount@4    0044d144     kernel32:KERNEL32.dll
 0002:00000148       __imp__LCMapStringW@24     0044d148     kernel32:KERNEL32.dll
 0002:0000014c       __imp__GetModuleFileNameA@12 0044d14c     kernel32:KERNEL32.dll
 0002:00000150       __imp__GetStdHandle@4      0044d150     kernel32:KERNEL32.dll
 0002:00000154       __imp__HeapReAlloc@16      0044d154     kernel32:KERNEL32.dll
 0002:00000158       __imp__HeapCreate@12       0044d158     kernel32:KERNEL32.dll
 0002:0000015c       __imp__ExitProcess@4       0044d15c     kernel32:KERNEL32.dll
 0002:00000160       __imp__HeapSize@12         0044d160     kernel32:KERNEL32.dll
 0002:00000164       __imp__Sleep@4             0044d164     kernel32:KERNEL32.dll
 0002:00000168       __imp__TlsFree@4           0044d168     kernel32:KERNEL32.dll
 0002:0000016c       __imp__TlsSetValue@8       0044d16c     kernel32:KERNEL32.dll
 0002:00000170       __imp__TlsAlloc@0          0044d170     kernel32:KERNEL32.dll
 0002:00000174       __imp__TlsGetValue@4       0044d174     kernel32:KERNEL32.dll
 0002:00000178       __imp__IsValidCodePage@4   0044d178     kernel32:KERNEL32.dll
 0002:0000017c       __imp__GetOEMCP@0          0044d17c     kernel32:KERNEL32.dll
 0002:00000180       __imp__GetACP@0            0044d180     kernel32:KERNEL32.dll
 0002:00000184       __imp__GetCPInfo@8         0044d184     kernel32:KERNEL32.dll
 0002:00000188       __imp__RtlUnwind@16        0044d188     kernel32:KERNEL32.dll
 0002:0000018c       __imp__GetStartupInfoW@4   0044d18c     kernel32:KERNEL32.dll
 0002:00000190       __imp__IsDebuggerPresent@0 0044d190     kernel32:KERNEL32.dll
 0002:00000194       __imp__UnhandledExceptionFilter@4 0044d194     kernel32:KERNEL32.dll
 0002:00000198       __imp__TerminateProcess@8  0044d198     kernel32:KERNEL32.dll
 0002:0000019c       __imp__VirtualAlloc@16     0044d19c     kernel32:KERNEL32.dll
 0002:000001a0       __imp__VirtualFree@12      0044d1a0     kernel32:KERNEL32.dll
 0002:000001a4       __imp__IsProcessorFeaturePresent@4 0044d1a4     kernel32:KERNEL32.dll
 0002:000001a8       __imp__HeapAlloc@12        0044d1a8     kernel32:KERNEL32.dll
 0002:000001ac       __imp__GetProcessHeap@0    0044d1ac     kernel32:KERNEL32.dll
 0002:000001b0       __imp__HeapFree@12         0044d1b0     kernel32:KERNEL32.dll
 0002:000001b4       __imp__InterlockedCompareExchange@12 0044d1b4     kernel32:KERNEL32.dll
 0002:000001b8       __imp__FlushFileBuffers@4  0044d1b8     kernel32:KERNEL32.dll
 0002:000001bc       __imp__CreateFileA@28      0044d1bc     kernel32:KERNEL32.dll
 0002:000001c0       __imp__GlobalFree@4        0044d1c0     kernel32:KERNEL32.dll
 0002:000001c4       __imp__RaiseException@16   0044d1c4     kernel32:KERNEL32.dll
 0002:000001c8       __imp__FlushInstructionCache@12 0044d1c8     kernel32:KERNEL32.dll
 0002:000001cc       __imp__SetStdHandle@8      0044d1cc     kernel32:KERNEL32.dll
 0002:000001d0       __imp__GlobalUnlock@4      0044d1d0     kernel32:KERNEL32.dll
 0002:000001d4       __imp__MulDiv@12           0044d1d4     kernel32:KERNEL32.dll
 0002:000001d8       __imp__WriteConsoleA@20    0044d1d8     kernel32:KERNEL32.dll
 0002:000001dc       __imp__GetConsoleOutputCP@0 0044d1dc     kernel32:KERNEL32.dll
 0002:000001e0       __imp__WriteConsoleW@20    0044d1e0     kernel32:KERNEL32.dll
 0002:000001e4       __imp__QueryDosDeviceW@12  0044d1e4     kernel32:KERNEL32.dll
 0002:000001e8       __imp__GetPrivateProfileIntW@16 0044d1e8     kernel32:KERNEL32.dll
 0002:000001ec       __imp__WritePrivateProfileStringW@16 0044d1ec     kernel32:KERNEL32.dll
 0002:000001f0       __imp__GetModuleFileNameW@12 0044d1f0     kernel32:KERNEL32.dll
 0002:000001f4       __imp__GetPrivateProfileStringW@24 0044d1f4     kernel32:KERNEL32.dll
 0002:000001f8       __imp__GetModuleHandleA@4  0044d1f8     kernel32:KERNEL32.dll
 0002:000001fc       __imp__LoadLibraryA@4      0044d1fc     kernel32:KERNEL32.dll
 0002:00000200       __imp__GetLastError@0      0044d200     kernel32:KERNEL32.dll
 0002:00000204       __imp__lstrlenA@4          0044d204     kernel32:KERNEL32.dll
 0002:00000208       __imp__MultiByteToWideChar@24 0044d208     kernel32:KERNEL32.dll
 0002:0000020c       __imp__CreateFileMappingW@24 0044d20c     kernel32:KERNEL32.dll
 0002:00000210       __imp__MapViewOfFile@20    0044d210     kernel32:KERNEL32.dll
 0002:00000214       __imp__ResumeThread@4      0044d214     kernel32:KERNEL32.dll
 0002:00000218       __imp__WriteProcessMemory@20 0044d218     kernel32:KERNEL32.dll
 0002:0000021c       __imp__CloseHandle@4       0044d21c     kernel32:KERNEL32.dll
 0002:00000220       __imp__GetExitCodeThread@8 0044d220     kernel32:KERNEL32.dll
 0002:00000224       __imp__VirtualAllocEx@20   0044d224     kernel32:KERNEL32.dll
 0002:00000228       __imp__SetThreadPriority@8 0044d228     kernel32:KERNEL32.dll
 0002:0000022c       __imp__LoadLibraryW@4      0044d22c     kernel32:KERNEL32.dll
 0002:00000230       __imp__VirtualFreeEx@16    0044d230     kernel32:KERNEL32.dll
 0002:00000234       __imp__CreateRemoteThread@28 0044d234     kernel32:KERNEL32.dll
 0002:00000238       __imp__FreeEnvironmentStringsW@4 0044d238     kernel32:KERNEL32.dll
 0002:0000023c       __imp__WaitForSingleObject@8 0044d23c     kernel32:KERNEL32.dll
 0002:00000240       __imp__GlobalAlloc@8       0044d240     kernel32:KERNEL32.dll
 0002:00000244       __imp__QueryPerformanceCounter@4 0044d244     kernel32:KERNEL32.dll
 0002:00000248       __imp__GlobalLock@4        0044d248     kernel32:KERNEL32.dll
 0002:0000024c       __imp__GetProcAddress@8    0044d24c     kernel32:KERNEL32.dll
 0002:00000250       __imp__VirtualQueryEx@16   0044d250     kernel32:KERNEL32.dll
 0002:00000254       __imp__GetModuleHandleW@4  0044d254     kernel32:KERNEL32.dll
 0002:00000258       __imp__GetSystemTimeAsFileTime@4 0044d258     kernel32:KERNEL32.dll
 0002:0000025c       __imp__UnmapViewOfFile@4   0044d25c     kernel32:KERNEL32.dll
 0002:00000260       \177KERNEL32_NULL_THUNK_DATA 0044d260     kernel32:KERNEL32.dll
 0002:00000264       __imp__VarUI4FromStr@16    0044d264     oleaut32:OLEAUT32.dll
 0002:00000268       \177OLEAUT32_NULL_THUNK_DATA 0044d268     oleaut32:OLEAUT32.dll
 0002:0000026c       __imp__GetModuleFileNameExW@16 0044d26c     Psapi:PSAPI.DLL
 0002:00000270       __imp__GetMappedFileNameW@16 0044d270     Psapi:PSAPI.DLL
 0002:00000274       __imp__EnumProcessModules@16 0044d274     Psapi:PSAPI.DLL
 0002:00000278       __imp__GetProcessImageFileNameW@12 0044d278     Psapi:PSAPI.DLL
 0002:0000027c       \177PSAPI_NULL_THUNK_DATA  0044d27c     Psapi:PSAPI.DLL
 0002:00000280       __imp__ShellExecuteW@24    0044d280     shell32:SHELL32.dll
 0002:00000284       \177SHELL32_NULL_THUNK_DATA 0044d284     shell32:SHELL32.dll
 0002:00000288       __imp__PathRemoveFileSpecW@4 0044d288     shlwapi:SHLWAPI.dll
 0002:0000028c       __imp__PathAppendW@8       0044d28c     shlwapi:SHLWAPI.dll
 0002:00000290       \177SHLWAPI_NULL_THUNK_DATA 0044d290     shlwapi:SHLWAPI.dll
 0002:00000294       __imp__GetMenu@4           0044d294     user32:USER32.dll
 0002:00000298       __imp__IsDialogMessageW@8  0044d298     user32:USER32.dll
 0002:0000029c       __imp__LoadIconW@8         0044d29c     user32:USER32.dll
 0002:000002a0       __imp__InflateRect@12      0044d2a0     user32:USER32.dll
 0002:000002a4       __imp__SetCapture@4        0044d2a4     user32:USER32.dll
 0002:000002a8       __imp__PostQuitMessage@4   0044d2a8     user32:USER32.dll
 0002:000002ac       __imp__LoadAcceleratorsW@8 0044d2ac     user32:USER32.dll
 0002:000002b0       __imp__DialogBoxParamW@20  0044d2b0     user32:USER32.dll
 0002:000002b4       __imp__GetKeyState@4       0044d2b4     user32:USER32.dll
 0002:000002b8       __imp__DragDetect@12       0044d2b8     user32:USER32.dll
 0002:000002bc       __imp__IntersectRect@12    0044d2bc     user32:USER32.dll
 0002:000002c0       __imp__ReleaseDC@8         0044d2c0     user32:USER32.dll
 0002:000002c4       __imp__EnableMenuItem@12   0044d2c4     user32:USER32.dll
 0002:000002c8       __imp__GetSysColor@4       0044d2c8     user32:USER32.dll
 0002:000002cc       __imp__ScreenToClient@8    0044d2cc     user32:USER32.dll
 0002:000002d0       __imp__TranslateAcceleratorW@12 0044d2d0     user32:USER32.dll
 0002:000002d4       __imp__GetWindowTextLengthW@4 0044d2d4     user32:USER32.dll
 0002:000002d8       __imp__SetDlgItemTextW@12  0044d2d8     user32:USER32.dll
 0002:000002dc       __imp__CreatePopupMenu@0   0044d2dc     user32:USER32.dll
 0002:000002e0       __imp__GetActiveWindow@0   0044d2e0     user32:USER32.dll
 0002:000002e4       __imp__AdjustWindowRectEx@16 0044d2e4     user32:USER32.dll
 0002:000002e8       __imp__ReleaseCapture@0    0044d2e8     user32:USER32.dll
 0002:000002ec       __imp__EnableWindow@8      0044d2ec     user32:USER32.dll
 0002:000002f0       __imp__GetMessagePos@0     0044d2f0     user32:USER32.dll
 0002:000002f4       __imp__DestroyAcceleratorTable@4 0044d2f4     user32:USER32.dll
 0002:000002f8       __imp__GetMessageW@16      0044d2f8     user32:USER32.dll
 0002:000002fc       __imp__CharNextW@4         0044d2fc     user32:USER32.dll
 0002:00000300       __imp__TranslateMessage@4  0044d300     user32:USER32.dll
 0002:00000304       __imp__PeekMessageW@20     0044d304     user32:USER32.dll
 0002:00000308       __imp__CreateDialogParamW@20 0044d308     user32:USER32.dll
 0002:0000030c       __imp__DispatchMessageW@4  0044d30c     user32:USER32.dll
 0002:00000310       __imp__UpdateWindow@4      0044d310     user32:USER32.dll
 0002:00000314       __imp__LoadImageW@24       0044d314     user32:USER32.dll
 0002:00000318       __imp__GetDC@4             0044d318     user32:USER32.dll
 0002:0000031c       __imp__GetDesktopWindow@0  0044d31c     user32:USER32.dll
 0002:00000320       __imp__DestroyIcon@4       0044d320     user32:USER32.dll
 0002:00000324       __imp__SetFocus@4          0044d324     user32:USER32.dll
 0002:00000328       __imp__ClientToScreen@8    0044d328     user32:USER32.dll
 0002:0000032c       __imp__CloseClipboard@0    0044d32c     user32:USER32.dll
 0002:00000330       __imp__MonitorFromPoint@12 0044d330     user32:USER32.dll
 0002:00000334       __imp__TrackPopupMenu@28   0044d334     user32:USER32.dll
 0002:00000338       __imp__GetSubMenu@8        0044d338     user32:USER32.dll
 0002:0000033c       __imp__IsClipboardFormatAvailable@4 0044d33c     user32:USER32.dll
 0002:00000340       __imp__MessageBeep@4       0044d340     user32:USER32.dll
 0002:00000344       __imp__InvalidateRect@12   0044d344     user32:USER32.dll
 0002:00000348       __imp__LoadMenuW@8         0044d348     user32:USER32.dll
 0002:0000034c       __imp__GetClipboardData@4  0044d34c     user32:USER32.dll
 0002:00000350       __imp__GetWindowTextW@12   0044d350     user32:USER32.dll
 0002:00000354       __imp__EmptyClipboard@0    0044d354     user32:USER32.dll
 0002:00000358       __imp__SetWindowLongW@12   0044d358     user32:USER32.dll
 0002:0000035c       __imp__RedrawWindow@16     0044d35c     user32:USER32.dll
 0002:00000360       __imp__ShowWindow@8        0044d360     user32:USER32.dll
 0002:00000364       __imp__IsWindow@4          0044d364     user32:USER32.dll
 0002:00000368       __imp__OpenClipboard@4     0044d368     user32:USER32.dll
 0002:0000036c       __imp__MessageBoxW@16      0044d36c     user32:USER32.dll
 0002:00000370       __imp__IsWindowVisible@4   0044d370     user32:USER32.dll
 0002:00000374       __imp__SetClipboardData@8  0044d374     user32:USER32.dll
 0002:00000378       __imp__DestroyMenu@4       0044d378     user32:USER32.dll
 0002:0000037c       __imp__GetDlgCtrlID@4      0044d37c     user32:USER32.dll
 0002:00000380       __imp__CallWindowProcW@20  0044d380     user32:USER32.dll
 0002:00000384       __imp__DefWindowProcW@16   0044d384     user32:USER32.dll
 0002:00000388       __imp__DestroyWindow@4     0044d388     user32:USER32.dll
 0002:0000038c       __imp__GetWindowRect@8     0044d38c     user32:USER32.dll
 0002:00000390       __imp__GetParent@4         0044d390     user32:USER32.dll
 0002:00000394       __imp__GetClientRect@8     0044d394     user32:USER32.dll
 0002:00000398       __imp__GetWindowLongW@8    0044d398     user32:USER32.dll
 0002:0000039c       __imp__MonitorFromWindow@8 0044d39c     user32:USER32.dll
 0002:000003a0       __imp__GetDlgItem@8        0044d3a0     user32:USER32.dll
 0002:000003a4       __imp__EndDialog@8         0044d3a4     user32:USER32.dll
 0002:000003a8       __imp__SetWindowPos@28     0044d3a8     user32:USER32.dll
 0002:000003ac       __imp__CreateWindowExW@48  0044d3ac     user32:USER32.dll
 0002:000003b0       __imp__SendMessageW@16     0044d3b0     user32:USER32.dll
 0002:000003b4       __imp__MapWindowPoints@16  0044d3b4     user32:USER32.dll
 0002:000003b8       __imp__SetWindowTextW@8    0044d3b8     user32:USER32.dll
 0002:000003bc       __imp__GetMonitorInfoW@8   0044d3bc     user32:USER32.dll
 0002:000003c0       __imp__GetWindow@8         0044d3c0     user32:USER32.dll
 0002:000003c4       __imp__AppendMenuW@16      0044d3c4     user32:USER32.dll
 0002:000003c8       __imp__UnregisterClassA@8  0044d3c8     user32:USER32.dll
 0002:000003cc       \177USER32_NULL_THUNK_DATA 0044d3cc     user32:USER32.dll
 0002:000003d0       __imp__CheckSumMappedFile@16 0044d3d0     Imagehlp:imagehlp.dll
 0002:000003d4       \177imagehlp_NULL_THUNK_DATA 0044d3d4     Imagehlp:imagehlp.dll
 0002:000003d8       __imp__CoTaskMemFree@4     0044d3d8     ole32:ole32.dll
 0002:000003dc       __imp__CoTaskMemRealloc@8  0044d3dc     ole32:ole32.dll
 0002:000003e0       __imp__CoUninitialize@0    0044d3e0     ole32:ole32.dll
 0002:000003e4       __imp__CoCreateInstance@20 0044d3e4     ole32:ole32.dll
 0002:000003e8       __imp__CoInitialize@4      0044d3e8     ole32:ole32.dll
 0002:000003ec       __imp__CoTaskMemAlloc@4    0044d3ec     ole32:ole32.dll
 0002:000003f0       \177ole32_NULL_THUNK_DATA  0044d3f0     ole32:ole32.dll
 0002:000003f4       ___xc_a                    0044d3f4     LIBCMT:crt0init.obj
 0002:00000428       ___xc_z                    0044d428     LIBCMT:crt0init.obj
 0002:0000042c       ___xi_a                    0044d42c     LIBCMT:crt0init.obj
 0002:00000444       ___xi_z                    0044d444     LIBCMT:crt0init.obj
 0002:00000448       ___xp_a                    0044d448     LIBCMT:crt0init.obj
 0002:00000454       ___xp_z                    0044d454     LIBCMT:crt0init.obj
 0002:00000458       ___xt_a                    0044d458     LIBCMT:crt0init.obj
 0002:0000045c       ___xt_z                    0044d45c     LIBCMT:crt0init.obj
 0002:00000460       ??_C@_06JMOFLNKF@YWORD?5?$AA@ 0044d460     diStorm:distorm.obj
 0002:00000468       ??_C@_07PKJDDPMC@DQWORD?5?$AA@ 0044d468     diStorm:distorm.obj
 0002:00000470       ??_C@_06GFCABIIE@TBYTE?5?$AA@ 0044d470     diStorm:distorm.obj
 0002:00000478       ??_C@_06KPAKPDMC@QWORD?5?$AA@ 0044d478     diStorm:distorm.obj
 0002:00000480       ??_C@_06JKOMEAKL@DWORD?5?$AA@ 0044d480     diStorm:distorm.obj
 0002:00000488       ??_C@_05GAGGPBM@WORD?5?$AA@ 0044d488     diStorm:distorm.obj
 0002:00000490       ??_C@_05JOBEKLPN@BYTE?5?$AA@ 0044d490     diStorm:distorm.obj
 0002:00000498       ??_C@_0M@KOOLNINB@?5?$DLNOT?5TAKEN?$AA@ 0044d498     diStorm:distorm.obj
 0002:000004a4       ??_C@_07GPPNHKOM@?5?$DLTAKEN?$AA@ 0044d4a4     diStorm:distorm.obj
 0002:000004ac       ??_C@_02KEGNLNML@?0?5?$AA@ 0044d4ac     diStorm:distorm.obj
 0002:000004b0       ??_C@_05IMOOOKID@LOCK?5?$AA@ 0044d4b0     diStorm:distorm.obj
 0002:000004b8       ??_C@_06DODLCMMB@REPNZ?5?$AA@ 0044d4b8     diStorm:distorm.obj
 0002:000004c0       ??_C@_05KAMKKAPP@REPZ?5?$AA@ 0044d4c0     diStorm:distorm.obj
 0002:000004c8       ??_C@_04COPMDGFE@REP?5?$AA@ 0044d4c8     diStorm:distorm.obj
 0002:000004d0       ??_C@_03CMFHJCIF@DB?5?$AA@ 0044d4d0     diStorm:distorm.obj
 0002:000004d8       __MNEMONICS                0044d4d8     diStorm:mnemonics.obj
 0002:00002c18       __REGISTERS                0044fc18     diStorm:mnemonics.obj
 0002:000032a8       ?npos@TiXmlString@@2IB     004502a8     tinyxml:tinystr.obj
 0002:000032b0       ??_7TiXmlBase@@6B@         004502b0     tinyxml:tinyxml.obj
 0002:000032bc       ??_C@_01EEMJAFIK@?6?$AA@   004502bc     tinyxml:tinyxml.obj
 0002:000032c0       ??_C@_09PNDCPLLD@?$DM?$CB?9?9?$CFs?9?9?$DO?$AA@ 004502c0     tinyxml:tinyxml.obj
 0002:000032cc       ??_C@_04PFOHOKJK@?5?5?5?5?$AA@ 004502cc     tinyxml:tinyxml.obj
 0002:000032d4       ??_C@_04NNJCMPBN@?$DM?$CFs?$DO?$AA@ 004502d4     tinyxml:tinyxml.obj
 0002:000032e0       ??_7TiXmlAttribute@@6B@    004502e0     tinyxml:tinyxml.obj
 0002:000032ec       ??_C@_08LCBMGHJI@?$CG?$CDx?$CF02X?$DL?$AA@ 004502ec     tinyxml:tinyxml.obj
 0002:000032fc       ??_7TiXmlNode@@6B@         004502fc     tinyxml:tinyxml.obj
 0002:00003340       ??_C@_05POIKLDCH@?$DM?1?$CFs?$DO?$AA@ 00450340     tinyxml:tinyxml.obj
 0002:00003348       ??_C@_01PPODPGHN@?$DO?$AA@ 00450348     tinyxml:tinyxml.obj
 0002:0000334c       ??_C@_03MFNJFHN@?5?1?$DO?$AA@ 0045034c     tinyxml:tinyxml.obj
 0002:00003350       ??_C@_03FONCMJME@?$DM?$CFs?$AA@ 00450350     tinyxml:tinyxml.obj
 0002:0000335c       ??_7TiXmlDocument@@6B@     0045035c     tinyxml:tinyxml.obj
 0002:000033a0       ??_C@_01GEODFPGF@?8?$AA@   004503a0     tinyxml:tinyxml.obj
 0002:000033a4       ??_C@_02PGMIOCEL@?$DN?8?$AA@ 004503a4     tinyxml:tinyxml.obj
 0002:000033a8       ??_C@_07CGFAFKBF@?$CFs?$DN?8?$CFs?8?$AA@ 004503a8     tinyxml:tinyxml.obj
 0002:000033b0       ??_C@_01BJJEKLCA@?$CC?$AA@ 004503b0     tinyxml:tinyxml.obj
 0002:000033b4       ??_C@_02ILLPBGAO@?$DN?$CC?$AA@ 004503b4     tinyxml:tinyxml.obj
 0002:000033b8       ??_C@_07JDMHCBCA@?$CFs?$DN?$CC?$CFs?$CC?$AA@ 004503b8     tinyxml:tinyxml.obj
 0002:000033c4       ??_7TiXmlComment@@6B@      004503c4     tinyxml:tinyxml.obj
 0002:00003408       ??_C@_02DKCKIIND@?$CFs?$AA@ 00450408     tinyxml:tinyxml.obj
 0002:0000340c       ??_C@_0BA@HEAAMLOF@?$DM?$CB?$FLCDATA?$FL?$CFs?$FN?$FN?$DO?6?$AA@ 0045040c     tinyxml:tinyxml.obj
 0002:00003424       ??_7TiXmlDeclaration@@6B@  00450424     tinyxml:tinyxml.obj
 0002:0000346c       ??_C@_02GOEMJPDN@?$DP?$DO?$AA@ 0045046c     tinyxml:tinyxml.obj
 0002:00003470       ??_C@_0N@IHAMHLOK@standalone?$DN?$CC?$AA@ 00450470     tinyxml:tinyxml.obj
 0002:00003480       ??_C@_0BB@OAOJGGEI@standalone?$DN?$CC?$CFs?$CC?5?$AA@ 00450480     tinyxml:tinyxml.obj
 0002:00003494       ??_C@_0L@ENAAEPMN@encoding?$DN?$CC?$AA@ 00450494     tinyxml:tinyxml.obj
 0002:000034a0       ??_C@_0P@CJGKNICB@encoding?$DN?$CC?$CFs?$CC?5?$AA@ 004504a0     tinyxml:tinyxml.obj
 0002:000034b0       ??_C@_02KOPDJAMB@?$CC?5?$AA@ 004504b0     tinyxml:tinyxml.obj
 0002:000034b4       ??_C@_09KGECPEDL@version?$DN?$CC?$AA@ 004504b4     tinyxml:tinyxml.obj
 0002:000034c0       ??_C@_0O@LGPLJGNM@version?$DN?$CC?$CFs?$CC?5?$AA@ 004504c0     tinyxml:tinyxml.obj
 0002:000034d0       ??_C@_06CMNLMIOJ@?$DM?$DPxml?5?$AA@ 004504d0     tinyxml:tinyxml.obj
 0002:000034d8       ??_C@_01MNNFJEPP@?$DM?$AA@ 004504d8     tinyxml:tinyxml.obj
 0002:000034dc       ??_C@_02DPNDACHE@?$DM?1?$AA@ 004504dc     tinyxml:tinyxml.obj
 0002:000034e0       ??_C@_03MCHNFBAC@?$FN?$FN?$DO?$AA@ 004504e0     tinyxml:tinyxml.obj
 0002:000034e4       ??_C@_09BLLNCBLF@?$DM?$CB?$FLCDATA?$FL?$AA@ 004504e4     tinyxml:tinyxml.obj
 0002:000034f0       ??_C@_03PNLDJJMO@?9?9?$DO?$AA@ 004504f0     tinyxml:tinyxml.obj
 0002:000034f4       ??_C@_04FFDNBKGC@?$DM?$CB?9?9?$AA@ 004504f4     tinyxml:tinyxml.obj
 0002:00003504       ??_7TiXmlText@@6B@         00450504     tinyxml:tinyxml.obj
 0002:0000354c       ??_7TiXmlUnknown@@6B@      0045054c     tinyxml:tinyxml.obj
 0002:00003594       ??_7TiXmlElement@@6B@      00450594     tinyxml:tinyxml.obj
 0002:000035d8       ??_C@_06PNMEMOHD@?$CGapos?$DL?$AA@ 004505d8     tinyxml:tinyxmlparser.obj
 0002:000035e0       ??_C@_06DDLNFFBN@?$CGquot?$DL?$AA@ 004505e0     tinyxml:tinyxmlparser.obj
 0002:000035e8       ??_C@_04LOOHDCEI@?$CGgt?$DL?$AA@ 004505e8     tinyxml:tinyxmlparser.obj
 0002:000035f0       ??_C@_04GJOGLFEJ@?$CGlt?$DL?$AA@ 004505f0     tinyxml:tinyxmlparser.obj
 0002:000035f8       ??_C@_05JKJFEODM@?$CGamp?$DL?$AA@ 004505f8     tinyxml:tinyxmlparser.obj
 0002:00003600       ?utf8ByteTable@TiXmlBase@@2QBHB 00450600     tinyxml:tinyxmlparser.obj
 0002:00003a00       ??_C@_02KBFACPPK@?$DM?$CB?$AA@ 00450a00     tinyxml:tinyxmlparser.obj
 0002:00003a04       ??_C@_05DJDIECHG@?$DM?$DPxml?$AA@ 00450a04     tinyxml:tinyxmlparser.obj
 0002:00003a0c       ??_C@_04OOMJJNCF@UTF8?$AA@ 00450a0c     tinyxml:tinyxmlparser.obj
 0002:00003a14       ??_C@_05EGJIMALK@UTF?98?$AA@ 00450a14     tinyxml:tinyxmlparser.obj
 0002:00003a1c       ??_C@_0L@FLHGMILF@standalone?$AA@ 00450a1c     tinyxml:tinyxmlparser.obj
 0002:00003a28       ??_C@_08MLPGAEIK@encoding?$AA@ 00450a28     tinyxml:tinyxmlparser.obj
 0002:00003a34       ??_C@_07CPCPJPKL@version?$AA@ 00450a34     tinyxml:tinyxmlparser.obj
 0002:00003a40       ??_C@_0FL@BMBPKIGK@Error?5when?5TiXmlDocument?5added?5t@ 00450a40     tinyxml:tinyxmlerror.obj
 0002:00003a9c       ??_C@_0BF@HJPECPBG@Error?5parsing?5CDATA?4?$AA@ 00450a9c     tinyxml:tinyxmlerror.obj
 0002:00003ab4       ??_C@_0DI@GMJJAOBO@Error?5null?5?$CI0?$CJ?5or?5unexpected?5EOF@ 00450ab4     tinyxml:tinyxmlerror.obj
 0002:00003aec       ??_C@_0BG@FFJMEOCN@Error?5document?5empty?4?$AA@ 00450aec     tinyxml:tinyxmlerror.obj
 0002:00003b04       ??_C@_0BL@BMCKJPKK@Error?5parsing?5Declaration?4?$AA@ 00450b04     tinyxml:tinyxmlerror.obj
 0002:00003b20       ??_C@_0BH@MPJHJCKO@Error?5parsing?5Comment?4?$AA@ 00450b20     tinyxml:tinyxmlerror.obj
 0002:00003b38       ??_C@_0BH@EPLDMIEN@Error?5parsing?5Unknown?4?$AA@ 00450b38     tinyxml:tinyxmlerror.obj
 0002:00003b50       ??_C@_0BH@JJGGDJOP@Error?5reading?5end?5tag?4?$AA@ 00450b50     tinyxml:tinyxmlerror.obj
 0002:00003b68       ??_C@_0BC@HMFFDDLH@Error?3?5empty?5tag?4?$AA@ 00450b68     tinyxml:tinyxmlerror.obj
 0002:00003b7c       ??_C@_0BK@JPCMNIIK@Error?5reading?5Attributes?4?$AA@ 00450b7c     tinyxml:tinyxmlerror.obj
 0002:00003b98       ??_C@_0BN@KKMBBCED@Error?5reading?5Element?5value?4?$AA@ 00450b98     tinyxml:tinyxmlerror.obj
 0002:00003bb8       ??_C@_0BM@NCHBIJBE@Failed?5to?5read?5Element?5name?$AA@ 00450bb8     tinyxml:tinyxmlerror.obj
 0002:00003bd4       ??_C@_0BH@BONKCKA@Error?5parsing?5Element?4?$AA@ 00450bd4     tinyxml:tinyxmlerror.obj
 0002:00003bec       ??_C@_0BE@HJPJFJPJ@Failed?5to?5open?5file?$AA@ 00450bec     tinyxml:tinyxmlerror.obj
 0002:00003c00       ??_C@_05NAOIJFC@Error?$AA@ 00450c00     tinyxml:tinyxmlerror.obj
 0002:00003c08       ??_C@_08INEPGKHH@No?5error?$AA@ 00450c08     tinyxml:tinyxmlerror.obj
 0002:00003c14       _CLSID_StdGlobalInterfaceTable 00450c14     uuid:cguid_i.obj
 0002:00003c24       _GUID_ATLVer30             00450c24     atls:atlbase.obj
 0002:00003c34       _GUID_ATLVer70             00450c34     atls:atlbase.obj
 0002:00003c44       ??_C@_0BJ@PNEEKDOK@InterlockedPopEntrySList?$AA@ 00450c44     atls:atlthunk.obj
 0002:00003c60       ??_C@_0BK@JFGGAIOA@InterlockedPushEntrySList?$AA@ 00450c60     atls:atlthunk.obj
 0002:00003c7c       ??_C@_0N@MDJJJHMB@kernel32?4dll?$AA@ 00450c7c     atls:atlthunk.obj
 0002:00003c90       ??_7bad_alloc@std@@6B@     00450c90     libcpmt:string.obj
 0002:00003c9c       ??_7logic_error@std@@6B@   00450c9c     libcpmt:string.obj
 0002:00003ca8       ??_7length_error@std@@6B@  00450ca8     libcpmt:string.obj
 0002:00003cb4       ??_7out_of_range@std@@6B@  00450cb4     libcpmt:string.obj
 0002:00003cbc       ??_C@_0BA@JFNIOLAK@string?5too?5long?$AA@ 00450cbc     libcpmt:string.obj
 0002:00003ccc       ??_C@_0BI@CFPLBAOH@invalid?5string?5position?$AA@ 00450ccc     libcpmt:string.obj
 0002:00003ce8       ??_7type_info@@6B@         00450ce8     LIBCMT:typinfo.obj
 0002:00003cf0       ??_7exception@std@@6B@     00450cf0     LIBCMT:stdexcpt.obj
 0002:00003cf8       ??_C@_0BC@EOODALEL@Unknown?5exception?$AA@ 00450cf8     LIBCMT:stdexcpt.obj
 0002:00003d0c       __FPinit                   00450d0c     LIBCMT:_fpinit_.obj
 0002:00003d10       __FPmtinit                 00450d10     LIBCMT:_fpinit_.obj
 0002:00003d14       __FPmtterm                 00450d14     LIBCMT:_fpinit_.obj
 0002:00003dc0       ??_C@_01NEMOKFLO@?$DN?$AA@ 00450dc0     LIBCMT:setlocal.obj
 0002:00003dc4       ??_C@_0O@NLDKAIKN@EncodePointer?$AA@ 00450dc4     LIBCMT:tidtable.obj
 0002:00003dd4       ??_C@_1BK@DBDEIDLH@?$AAK?$AAE?$AAR?$AAN?$AAE?$AAL?$AA3?$AA2?$AA?4?$AAD?$AAL?$AAL?$AA?$AA@ 00450dd4     LIBCMT:tidtable.obj
 0002:00003df0       ??_C@_0O@KBPMFGHI@DecodePointer?$AA@ 00450df0     LIBCMT:tidtable.obj
 0002:00003e00       ??_C@_07PEJMOBNF@FlsFree?$AA@ 00450e00     LIBCMT:tidtable.obj
 0002:00003e08       ??_C@_0M@JCPCPOEF@FlsSetValue?$AA@ 00450e08     LIBCMT:tidtable.obj
 0002:00003e14       ??_C@_0M@GDNOONDI@FlsGetValue?$AA@ 00450e14     LIBCMT:tidtable.obj
 0002:00003e20       ??_C@_08KNHFBNJ@FlsAlloc?$AA@ 00450e20     LIBCMT:tidtable.obj
 0002:00003e2c       ??_C@_0P@MIGLKIOC@CorExitProcess?$AA@ 00450e2c     LIBCMT:crt0dat.obj
 0002:00003e3c       ??_C@_1BI@BGOHAHKC@?$AAm?$AAs?$AAc?$AAo?$AAr?$AAe?$AAe?$AA?4?$AAd?$AAl?$AAl?$AA?$AA@ 00450e3c     LIBCMT:crt0dat.obj
 0002:00003e54       ??_C@_0P@GGKDKEEG@runtime?5error?5?$AA@ 00450e54     LIBCMT:crt0msg.obj
 0002:00003e64       ??_C@_0O@MJNIPGOH@TLOSS?5error?$AN?6?$AA@ 00450e64     LIBCMT:crt0msg.obj
 0002:00003e74       ??_C@_0N@BONNPDHF@SING?5error?$AN?6?$AA@ 00450e74     LIBCMT:crt0msg.obj
 0002:00003e84       ??_C@_0P@MBDAJNE@DOMAIN?5error?$AN?6?$AA@ 00450e84     LIBCMT:crt0msg.obj
 0002:00003e98       ??_C@_0JL@DFDOOABL@R6034?$AN?6An?5application?5has?5made?5a@ 00450e98     LIBCMT:crt0msg.obj
 0002:00003f38       ??_C@_0PH@EPAFIJ@R6033?$AN?6?9?5Attempt?5to?5use?5MSIL?5cod@ 00450f38     LIBCMT:crt0msg.obj
 0002:00004030       ??_C@_0DD@BKEEABMM@R6032?$AN?6?9?5not?5enough?5space?5for?5lo@ 00451030     LIBCMT:crt0msg.obj
 0002:00004068       ??_C@_0GD@OFKILIED@R6031?$AN?6?9?5Attempt?5to?5initialize?5t@ 00451068     LIBCMT:crt0msg.obj
 0002:000040cc       ??_C@_0BP@LPMHJOKI@R6030?$AN?6?9?5CRT?5not?5initialized?$AN?6?$AA@ 004510cc     LIBCMT:crt0msg.obj
 0002:000040ec       ??_C@_0CF@KJDAIALP@R6028?$AN?6?9?5unable?5to?5initialize?5he@ 004510ec     LIBCMT:crt0msg.obj
 0002:00004114       ??_C@_0DF@GAKBPDFP@R6027?$AN?6?9?5not?5enough?5space?5for?5lo@ 00451114     LIBCMT:crt0msg.obj
 0002:0000414c       ??_C@_0DF@IBLNNAIG@R6026?$AN?6?9?5not?5enough?5space?5for?5st@ 0045114c     LIBCMT:crt0msg.obj
 0002:00004184       ??_C@_0CG@IOHKGFNJ@R6025?$AN?6?9?5pure?5virtual?5function?5c@ 00451184     LIBCMT:crt0msg.obj
 0002:000041ac       ??_C@_0DF@JIJJFJDC@R6024?$AN?6?9?5not?5enough?5space?5for?5_o@ 004511ac     LIBCMT:crt0msg.obj
 0002:000041e4       ??_C@_0CJ@EGEJHFME@R6019?$AN?6?9?5unable?5to?5open?5console?5@ 004511e4     LIBCMT:crt0msg.obj
 0002:00004210       ??_C@_0CB@GNHNIELH@R6018?$AN?6?9?5unexpected?5heap?5error?$AN?6@ 00451210     LIBCMT:crt0msg.obj
 0002:00004234       ??_C@_0CN@FOLDKNG@R6017?$AN?6?9?5unexpected?5multithread?5@ 00451234     LIBCMT:crt0msg.obj
 0002:00004264       ??_C@_0CM@FAHFJNHO@R6016?$AN?6?9?5not?5enough?5space?5for?5th@ 00451264     LIBCMT:crt0msg.obj
 0002:00004290       ??_C@_0JG@LBKMGKLD@?$AN?6This?5application?5has?5requested@ 00451290     LIBCMT:crt0msg.obj
 0002:00004328       ??_C@_0CM@FLCNIPKK@R6009?$AN?6?9?5not?5enough?5space?5for?5en@ 00451328     LIBCMT:crt0msg.obj
 0002:00004354       ??_C@_0CK@KMMJOAPP@R6008?$AN?6?9?5not?5enough?5space?5for?5ar@ 00451354     LIBCMT:crt0msg.obj
 0002:00004380       ??_C@_0CN@LEKKICBM@R6002?$AN?6?9?5floating?5point?5support?5@ 00451380     LIBCMT:crt0msg.obj
 0002:000043b0       ??_C@_0CF@GOGNBNAK@Microsoft?5Visual?5C?$CL?$CL?5Runtime?5Lib@ 004513b0     LIBCMT:crt0msg.obj
 0002:000043d8       ??_C@_02PHMGELLB@?6?6?$AA@ 004513d8     LIBCMT:crt0msg.obj
 0002:000043dc       ??_C@_03KHICJKCI@?4?4?4?$AA@ 004513dc     LIBCMT:crt0msg.obj
 0002:000043e0       ??_C@_0BH@DNAGHKFM@?$DMprogram?5name?5unknown?$DO?$AA@ 004513e0     LIBCMT:crt0msg.obj
 0002:000043f8       ??_C@_0BK@OFGJDLJJ@Runtime?5Error?$CB?6?6Program?3?5?$AA@ 004513f8     LIBCMT:crt0msg.obj
 0002:0000444c       ??_C@_1O@CEDCILHN@?$AA?$CI?$AAn?$AAu?$AAl?$AAl?$AA?$CJ?$AA?$AA@ 0045144c     LIBCMT:output.obj
 0002:0000445c       ??_C@_06OJHGLDPL@?$CInull?$CJ?$AA@ 0045145c     LIBCMT:output.obj
 0002:00004468       ___lookuptable             00451468     LIBCMT:output.obj
 0002:000044c8       ___lookuptable_s           004514c8     LIBCMT:outputs.obj
 0002:00004528       __XcptActTab               00451528     LIBCMT:winxfltr.obj
 0002:000045a0       __pDestructExceptionObject 004515a0     LIBCMT:frame.obj
 0002:000045a8       ??_7bad_exception@std@@6B@ 004515a8     LIBCMT:frame.obj
 0002:000045b0       ??_C@_0O@DPKOEFFH@bad?5exception?$AA@ 004515b0     LIBCMT:frame.obj
 0002:000045e0       ??_C@_05KLBDPFGC@e?$CL000?$AA@ 004515e0     LIBCMT:cvt.obj
 0002:000045e8       __real@4150017ec0000000    004515e8     LIBCMT:_testfdiv_.obj
 0002:000045f0       __real@4147ffff80000000    004515f0     LIBCMT:_testfdiv_.obj
 0002:000045f8       ??_C@_0BK@NHEOCAHP@IsProcessorFeaturePresent?$AA@ 004515f8     LIBCMT:_testfdiv_.obj
 0002:00004614       ??_C@_08CPNIBGIE@KERNEL32?$AA@ 00451614     LIBCMT:_testfdiv_.obj
 0002:00004620       ??_C@_13NOLLCAOD@?$AA?$AA?$AA?$AA@ 00451620     LIBCMT:a_map.obj
 0002:00004624       ??_C@_0BK@CFCOFLF@?5Complete?5Object?5Locator?8?$AA@ 00451624     LIBCMT:undname.obj
 0002:00004640       ??_C@_0BN@MECKDCOJ@?5Class?5Hierarchy?5Descriptor?8?$AA@ 00451640     LIBCMT:undname.obj
 0002:00004660       ??_C@_0BD@LGICGFMM@?5Base?5Class?5Array?8?$AA@ 00451660     LIBCMT:undname.obj
 0002:00004674       ??_C@_0BM@LDKODKLH@?5Base?5Class?5Descriptor?5at?5?$CI?$AA@ 00451674     LIBCMT:undname.obj
 0002:00004690       ??_C@_0BC@DAFEJGAK@?5Type?5Descriptor?8?$AA@ 00451690     LIBCMT:undname.obj
 0002:000046a4       ??_C@_0BM@PMGGMLDN@?$GAlocal?5static?5thread?5guard?8?$AA@ 004516a4     LIBCMT:undname.obj
 0002:000046c0       ??_C@_0CL@FGIJHLCE@?$GAmanaged?5vector?5copy?5constructor@ 004516c0     LIBCMT:undname.obj
 0002:000046ec       ??_C@_0CJ@GJELGAMM@?$GAvector?5vbase?5copy?5constructor?5i@ 004516ec     LIBCMT:undname.obj
 0002:00004718       ??_C@_0CD@CGAJBKEJ@?$GAvector?5copy?5constructor?5iterato@ 00451718     LIBCMT:undname.obj
 0002:0000473c       ??_C@_0CB@PDBIFEP@?$GAdynamic?5atexit?5destructor?5for?5?8@ 0045173c     LIBCMT:undname.obj
 0002:00004760       ??_C@_0BL@CLIPGLGB@?$GAdynamic?5initializer?5for?5?8?$AA@ 00451760     LIBCMT:undname.obj
 0002:0000477c       ??_C@_0CM@FCBBDIGB@?$GAeh?5vector?5vbase?5copy?5constructo@ 0045177c     LIBCMT:undname.obj
 0002:000047a8       ??_C@_0CG@HLDDJMAG@?$GAeh?5vector?5copy?5constructor?5iter@ 004517a8     LIBCMT:undname.obj
 0002:000047d0       ??_C@_0CF@IMGKMJNO@?$GAmanaged?5vector?5destructor?5itera@ 004517d0     LIBCMT:undname.obj
 0002:000047f8       ??_C@_0CG@CFDHKGGD@?$GAmanaged?5vector?5constructor?5iter@ 004517f8     LIBCMT:undname.obj
 0002:00004820       ??_C@_0BN@CKNJLHMB@?$GAplacement?5delete?$FL?$FN?5closure?8?$AA@ 00451820     LIBCMT:undname.obj
 0002:00004840       ??_C@_0BL@CNOONJFP@?$GAplacement?5delete?5closure?8?$AA@ 00451840     LIBCMT:undname.obj
 0002:0000485c       ??_C@_0P@HJKNJFNN@?$GAomni?5callsig?8?$AA@ 0045185c     LIBCMT:undname.obj
 0002:0000486c       ??_C@_09LBNFPBCA@?5delete?$FL?$FN?$AA@ 0045186c     LIBCMT:undname.obj
 0002:00004878       ??_C@_06FHBGPFGH@?5new?$FL?$FN?$AA@ 00451878     LIBCMT:undname.obj
 0002:00004880       ??_C@_0CE@IIHCMGGL@?$GAlocal?5vftable?5constructor?5closu@ 00451880     LIBCMT:undname.obj
 0002:000048a4       ??_C@_0BA@KKLDJDLB@?$GAlocal?5vftable?8?$AA@ 004518a4     LIBCMT:undname.obj
 0002:000048b4       ??_C@_05KHLCHHI@?$GARTTI?$AA@ 004518b4     LIBCMT:undname.obj
 0002:000048bc       ??_C@_03KLGMFNMG@?$GAEH?$AA@ 004518bc     LIBCMT:undname.obj
 0002:000048c0       ??_C@_0BA@KBCDOMBN@?$GAudt?5returning?8?$AA@ 004518c0     LIBCMT:undname.obj
 0002:000048d0       ??_C@_0BL@LLKPOHJI@?$GAcopy?5constructor?5closure?8?$AA@ 004518d0     LIBCMT:undname.obj
 0002:000048ec       ??_C@_0CH@OOJPLCPH@?$GAeh?5vector?5vbase?5constructor?5ite@ 004518ec     LIBCMT:undname.obj
 0002:00004914       ??_C@_0CA@GCEOPDGL@?$GAeh?5vector?5destructor?5iterator?8?$AA@ 00451914     LIBCMT:undname.obj
 0002:00004934       ??_C@_0CB@JONCMFFK@?$GAeh?5vector?5constructor?5iterator?8@ 00451934     LIBCMT:undname.obj
 0002:00004958       ??_C@_0BL@NILFHHPC@?$GAvirtual?5displacement?5map?8?$AA@ 00451958     LIBCMT:undname.obj
 0002:00004974       ??_C@_0CE@IKBNEHA@?$GAvector?5vbase?5constructor?5iterat@ 00451974     LIBCMT:undname.obj
 0002:00004998       ??_C@_0BN@LFPFMEDL@?$GAvector?5destructor?5iterator?8?$AA@ 00451998     LIBCMT:undname.obj
 0002:000049b8       ??_C@_0BO@PFGOCPJJ@?$GAvector?5constructor?5iterator?8?$AA@ 004519b8     LIBCMT:undname.obj
 0002:000049d8       ??_C@_0BN@IMDCHIKM@?$GAscalar?5deleting?5destructor?8?$AA@ 004519d8     LIBCMT:undname.obj
 0002:000049f8       ??_C@_0BO@OBMKPJIG@?$GAdefault?5constructor?5closure?8?$AA@ 004519f8     LIBCMT:undname.obj
 0002:00004a18       ??_C@_0BN@DEGPLNFK@?$GAvector?5deleting?5destructor?8?$AA@ 00451a18     LIBCMT:undname.obj
 0002:00004a38       ??_C@_0BD@JDLKDPAB@?$GAvbase?5destructor?8?$AA@ 00451a38     LIBCMT:undname.obj
 0002:00004a4c       ??_C@_08OBABFOLI@?$GAstring?8?$AA@ 00451a4c     LIBCMT:undname.obj
 0002:00004a58       ??_C@_0BF@KDPPACIK@?$GAlocal?5static?5guard?8?$AA@ 00451a58     LIBCMT:undname.obj
 0002:00004a70       ??_C@_08LLFFHHDJ@?$GAtypeof?8?$AA@ 00451a70     LIBCMT:undname.obj
 0002:00004a7c       ??_C@_07FEEIOKP@?$GAvcall?8?$AA@ 00451a7c     LIBCMT:undname.obj
 0002:00004a84       ??_C@_09BLBHBJP@?$GAvbtable?8?$AA@ 00451a84     LIBCMT:undname.obj
 0002:00004a90       ??_C@_09IFPLHPGF@?$GAvftable?8?$AA@ 00451a90     LIBCMT:undname.obj
 0002:00004a9c       ??_C@_02MHEGNOJ@?$FO?$DN?$AA@ 00451a9c     LIBCMT:undname.obj
 0002:00004aa0       ??_C@_02DHLNPPGH@?$HM?$DN?$AA@ 00451aa0     LIBCMT:undname.obj
 0002:00004aa4       ??_C@_02FGJGFEAB@?$CG?$DN?$AA@ 00451aa4     LIBCMT:undname.obj
 0002:00004aa8       ??_C@_03CDNPDDLA@?$DM?$DM?$DN?$AA@ 00451aa8     LIBCMT:undname.obj
 0002:00004aac       ??_C@_03IKFCCPFF@?$DO?$DO?$DN?$AA@ 00451aac     LIBCMT:undname.obj
 0002:00004ab0       ??_C@_02FENAOKFI@?$CF?$DN?$AA@ 00451ab0     LIBCMT:undname.obj
 0002:00004ab4       ??_C@_02FJEHGPIO@?1?$DN?$AA@ 00451ab4     LIBCMT:undname.obj
 0002:00004ab8       ??_C@_02FKMDLLOA@?9?$DN?$AA@ 00451ab8     LIBCMT:undname.obj
 0002:00004abc       ??_C@_02FOEOMHFC@?$CL?$DN?$AA@ 00451abc     LIBCMT:undname.obj
 0002:00004ac0       ??_C@_02FPIMKNGF@?$CK?$DN?$AA@ 00451ac0     LIBCMT:undname.obj
 0002:00004ac4       ??_C@_02NONPIBCD@?$HM?$HM?$AA@ 00451ac4     LIBCMT:undname.obj
 0002:00004ac8       ??_C@_02PPKAJPJL@?$CG?$CG?$AA@ 00451ac8     LIBCMT:undname.obj
 0002:00004acc       ??_C@_01DNKMNLPK@?$HM?$AA@ 00451acc     LIBCMT:undname.obj
 0002:00004ad0       ??_C@_01JKBOJNNK@?$FO?$AA@ 00451ad0     LIBCMT:undname.obj
 0002:00004ad4       ??_C@_01PJKLJHI@?$HO?$AA@  00451ad4     LIBCMT:undname.obj
 0002:00004ad8       ??_C@_02HCKGKOFO@?$CI?$CJ?$AA@ 00451ad8     LIBCMT:undname.obj
 0002:00004adc       ??_C@_01IHBHIGKO@?0?$AA@   00451adc     LIBCMT:undname.obj
 0002:00004ae0       ??_C@_02EEKDKGMJ@?$DO?$DN?$AA@ 00451ae0     LIBCMT:undname.obj
 0002:00004ae4       ??_C@_02EHCHHCKH@?$DM?$DN?$AA@ 00451ae4     LIBCMT:undname.obj
 0002:00004ae8       ??_C@_01FGNFDNOH@?$CF?$AA@ 00451ae8     LIBCMT:undname.obj
 0002:00004aec       ??_C@_01KMDKNFGN@?1?$AA@   00451aec     LIBCMT:undname.obj
 0002:00004af0       ??_C@_03MNHNFDLC@?9?$DO?$CK?$AA@ 00451af0     LIBCMT:undname.obj
 0002:00004af4       ??_C@_01HNPIGOCE@?$CG?$AA@ 00451af4     LIBCMT:undname.obj
 0002:00004af8       ??_C@_01MIFGBAGJ@?$CL?$AA@ 00451af8     LIBCMT:undname.obj
 0002:00004afc       ??_C@_01JOAMLHOP@?9?$AA@   00451afc     LIBCMT:undname.obj
 0002:00004b00       ??_C@_02BAABKJLB@?9?9?$AA@ 00451b00     LIBCMT:undname.obj
 0002:00004b04       ??_C@_02ECNGHCIF@?$CL?$CL?$AA@ 00451b04     LIBCMT:undname.obj
 0002:00004b08       ??_C@_01NBENCBCI@?$CK?$AA@ 00451b08     LIBCMT:undname.obj
 0002:00004b0c       ??_C@_02HBOOOICD@?9?$DO?$AA@ 00451b0c     LIBCMT:undname.obj
 0002:00004b10       ??_C@_08LHJFAFGD@operator?$AA@ 00451b10     LIBCMT:undname.obj
 0002:00004b1c       ??_C@_02GPECMEKF@?$FL?$FN?$AA@ 00451b1c     LIBCMT:undname.obj
 0002:00004b20       ??_C@_02FDNJECIE@?$CB?$DN?$AA@ 00451b20     LIBCMT:undname.obj
 0002:00004b24       ??_C@_02EGOFBIJA@?$DN?$DN?$AA@ 00451b24     LIBCMT:undname.obj
 0002:00004b28       ??_C@_01DCLJPIOD@?$CB?$AA@ 00451b28     LIBCMT:undname.obj
 0002:00004b2c       ??_C@_02FODMEDOG@?$DM?$DM?$AA@ 00451b2c     LIBCMT:undname.obj
 0002:00004b30       ??_C@_02GPIOPFAK@?$DO?$DO?$AA@ 00451b30     LIBCMT:undname.obj
 0002:00004b34       ??_C@_07FPCDHGMM@?5delete?$AA@ 00451b34     LIBCMT:undname.obj
 0002:00004b3c       ??_C@_04NIHEBCM@?5new?$AA@ 00451b3c     LIBCMT:undname.obj
 0002:00004b44       ??_C@_0M@GFIIJFMG@__unaligned?$AA@ 00451b44     LIBCMT:undname.obj
 0002:00004b50       ??_C@_0L@PILCLIHE@__restrict?$AA@ 00451b50     LIBCMT:undname.obj
 0002:00004b5c       ??_C@_07JOMMBBKO@__ptr64?$AA@ 00451b5c     LIBCMT:undname.obj
 0002:00004b64       ??_C@_09HIJEGCPM@__clrcall?$AA@ 00451b64     LIBCMT:undname.obj
 0002:00004b70       ??_C@_0L@JMKHOMEK@__fastcall?$AA@ 00451b70     LIBCMT:undname.obj
 0002:00004b7c       ??_C@_0L@NPHFGOKO@__thiscall?$AA@ 00451b7c     LIBCMT:undname.obj
 0002:00004b88       ??_C@_09IFJBGAPI@__stdcall?$AA@ 00451b88     LIBCMT:undname.obj
 0002:00004b94       ??_C@_08GHMPAG@__pascal?$AA@ 00451b94     LIBCMT:undname.obj
 0002:00004ba0       ??_C@_07KOLFKCDI@__cdecl?$AA@ 00451ba0     LIBCMT:undname.obj
 0002:00004ba8       ??_C@_08EHJDFFNH@__based?$CI?$AA@ 00451ba8     LIBCMT:undname.obj
 0002:00004d38       ___newctype                00451d38     LIBCMT:ctype.obj
 0002:00005038       __wctype                   00452038     LIBCMT:ctype.obj
 0002:00005240       ___newclmap                00452240     LIBCMT:ctype.obj
 0002:000053c0       ___newcumap                004523c0     LIBCMT:ctype.obj
 0002:00005540       ??_C@_08JCCMCCIL@HH?3mm?3ss?$AA@ 00452540     LIBCMT:strftime.obj
 0002:0000554c       ??_C@_0BE@CKGJFCPC@dddd?0?5MMMM?5dd?0?5yyyy?$AA@ 0045254c     LIBCMT:strftime.obj
 0002:00005560       ??_C@_08BPBNCDIB@MM?1dd?1yy?$AA@ 00452560     LIBCMT:strftime.obj
 0002:0000556c       ??_C@_02CJNFDJBF@PM?$AA@   0045256c     LIBCMT:strftime.obj
 0002:00005570       ??_C@_02DEDBPAFC@AM?$AA@   00452570     LIBCMT:strftime.obj
 0002:00005574       ??_C@_08EDHMEBNP@December?$AA@ 00452574     LIBCMT:strftime.obj
 0002:00005580       ??_C@_08HCHEGEOA@November?$AA@ 00452580     LIBCMT:strftime.obj
 0002:0000558c       ??_C@_07JJNFCEND@October?$AA@ 0045258c     LIBCMT:strftime.obj
 0002:00005594       ??_C@_09BHHEALKD@September?$AA@ 00452594     LIBCMT:strftime.obj
 0002:000055a0       ??_C@_06LBBHFDDG@August?$AA@ 004525a0     LIBCMT:strftime.obj
 0002:000055a8       ??_C@_04MIEPOIFP@July?$AA@ 004525a8     LIBCMT:strftime.obj
 0002:000055b0       ??_C@_04CNLMGBGM@June?$AA@ 004525b0     LIBCMT:strftime.obj
 0002:000055b8       ??_C@_05DMJDNLEJ@April?$AA@ 004525b8     LIBCMT:strftime.obj
 0002:000055c0       ??_C@_05HPCKOFNC@March?$AA@ 004525c0     LIBCMT:strftime.obj
 0002:000055c8       ??_C@_08GNJGEPFN@February?$AA@ 004525c8     LIBCMT:strftime.obj
 0002:000055d4       ??_C@_07CGJPFGJA@January?$AA@ 004525d4     LIBCMT:strftime.obj
 0002:000055dc       ??_C@_03MKABNOCG@Dec?$AA@  004525dc     LIBCMT:strftime.obj
 0002:000055e0       ??_C@_03JPJOFNIA@Nov?$AA@  004525e0     LIBCMT:strftime.obj
 0002:000055e4       ??_C@_03BMAOKBAD@Oct?$AA@  004525e4     LIBCMT:strftime.obj
 0002:000055e8       ??_C@_03GGCAPAJC@Sep?$AA@  004525e8     LIBCMT:strftime.obj
 0002:000055ec       ??_C@_03IFJFEIGA@Aug?$AA@  004525ec     LIBCMT:strftime.obj
 0002:000055f0       ??_C@_03LBGABGKK@Jul?$AA@  004525f0     LIBCMT:strftime.obj
 0002:000055f4       ??_C@_03IDFGHECI@Jun?$AA@  004525f4     LIBCMT:strftime.obj
 0002:000055f8       ??_C@_03CNMDKL@May?$AA@    004525f8     LIBCMT:strftime.obj
 0002:000055fc       ??_C@_03LEOLGMJP@Apr?$AA@  004525fc     LIBCMT:strftime.obj
 0002:00005600       ??_C@_03ODNJBKGA@Mar?$AA@  00452600     LIBCMT:strftime.obj
 0002:00005604       ??_C@_03HJBDCHOM@Feb?$AA@  00452604     LIBCMT:strftime.obj
 0002:00005608       ??_C@_03JIHJHPIE@Jan?$AA@  00452608     LIBCMT:strftime.obj
 0002:0000560c       ??_C@_08INBOOONO@Saturday?$AA@ 0045260c     LIBCMT:strftime.obj
 0002:00005618       ??_C@_06JECMNKMI@Friday?$AA@ 00452618     LIBCMT:strftime.obj
 0002:00005620       ??_C@_08HACCIKIA@Thursday?$AA@ 00452620     LIBCMT:strftime.obj
 0002:0000562c       ??_C@_09DLIGFAKA@Wednesday?$AA@ 0045262c     LIBCMT:strftime.obj
 0002:00005638       ??_C@_07BAAGCFCM@Tuesday?$AA@ 00452638     LIBCMT:strftime.obj
 0002:00005640       ??_C@_06JLEDEDGH@Monday?$AA@ 00452640     LIBCMT:strftime.obj
 0002:00005648       ??_C@_06OOPIFAJ@Sunday?$AA@ 00452648     LIBCMT:strftime.obj
 0002:00005650       ??_C@_03FEFJNEK@Sat?$AA@   00452650     LIBCMT:strftime.obj
 0002:00005654       ??_C@_03IDIOELNC@Fri?$AA@  00452654     LIBCMT:strftime.obj
 0002:00005658       ??_C@_03IOFIKPDN@Thu?$AA@  00452658     LIBCMT:strftime.obj
 0002:0000565c       ??_C@_03MHOMLAJA@Wed?$AA@  0045265c     LIBCMT:strftime.obj
 0002:00005660       ??_C@_03NAGEINEP@Tue?$AA@  00452660     LIBCMT:strftime.obj
 0002:00005664       ??_C@_03PDAGKDH@Mon?$AA@   00452664     LIBCMT:strftime.obj
 0002:00005668       ??_C@_03KOEHGMDN@Sun?$AA@  00452668     LIBCMT:strftime.obj
 0002:0000566c       ??_C@_0BI@DFKBFLJE@GetProcessWindowStation?$AA@ 0045266c     LIBCMT:crtmbox.obj
 0002:00005684       ??_C@_0BK@CIDNPOGP@GetUserObjectInformationA?$AA@ 00452684     LIBCMT:crtmbox.obj
 0002:000056a0       ??_C@_0BD@HHGDFDBJ@GetLastActivePopup?$AA@ 004526a0     LIBCMT:crtmbox.obj
 0002:000056b4       ??_C@_0BA@HNOPNCHB@GetActiveWindow?$AA@ 004526b4     LIBCMT:crtmbox.obj
 0002:000056c4       ??_C@_0M@CHKKJDAI@MessageBoxA?$AA@ 004526c4     LIBCMT:crtmbox.obj
 0002:000056d0       ??_C@_0L@NDEGIDAG@USER32?4DLL?$AA@ 004526d0     LIBCMT:crtmbox.obj
 0002:000056dc       ___dnames                  004526dc     LIBCMT:timeset.obj
 0002:000056f4       ___mnames                  004526f4     LIBCMT:timeset.obj
 0002:0000571c       ??_C@_06IMKFLFPG@1?$CDQNAN?$AA@ 0045271c     LIBCMT:_x10fout_.obj
 0002:00005724       ??_C@_05DNEBIAHO@1?$CDINF?$AA@ 00452724     LIBCMT:_x10fout_.obj
 0002:0000572c       ??_C@_05PHHOCPM@1?$CDIND?$AA@ 0045272c     LIBCMT:_x10fout_.obj
 0002:00005734       ??_C@_06PGGFOGJG@1?$CDSNAN?$AA@ 00452734     LIBCMT:_x10fout_.obj
 0002:0000573c       ??_C@_07GPDNMNG@CONOUT$?$AA@ 0045273c     LIBCMT:initcon.obj
 0002:00005744       ??_C@_0P@GHFPNOJB@bad?5allocation?$AA@ 00452744     AboutGui.obj
 0002:00005754       ??_C@_1BA@JIHHIEDE@?$AAT?$AAy?$AAp?$AAe?$AAL?$AAi?$AAb?$AA?$AA@ 00452754     AboutGui.obj
 0002:00005764       ??_C@_1BC@EAHCMADO@?$AAS?$AAo?$AAf?$AAt?$AAw?$AAa?$AAr?$AAe?$AA?$AA@ 00452764     AboutGui.obj
 0002:00005778       ??_C@_1O@GBFINDKL@?$AAS?$AAY?$AAS?$AAT?$AAE?$AAM?$AA?$AA@ 00452778     AboutGui.obj
 0002:00005788       ??_C@_1BC@IBECJAAI@?$AAS?$AAE?$AAC?$AAU?$AAR?$AAI?$AAT?$AAY?$AA?$AA@ 00452788     AboutGui.obj
 0002:0000579c       ??_C@_17OMAOINJK@?$AAS?$AAA?$AAM?$AA?$AA@ 0045279c     AboutGui.obj
 0002:000057a4       ??_C@_19HLLLM@?$AAM?$AAi?$AAm?$AAe?$AA?$AA@ 004527a4     AboutGui.obj
 0002:000057b0       ??_C@_1BC@MAICEHGI@?$AAH?$AAa?$AAr?$AAd?$AAw?$AAa?$AAr?$AAe?$AA?$AA@ 004527b0     AboutGui.obj
 0002:000057c4       ??_C@_1BE@EKPAFMCP@?$AAI?$AAn?$AAt?$AAe?$AAr?$AAf?$AAa?$AAc?$AAe?$AA?$AA@ 004527c4     AboutGui.obj
 0002:000057d8       ??_C@_1BC@NKMMNMGL@?$AAF?$AAi?$AAl?$AAe?$AAT?$AAy?$AAp?$AAe?$AA?$AA@ 004527d8     AboutGui.obj
 0002:000057ec       ??_C@_1CK@OEKPKBNA@?$AAC?$AAo?$AAm?$AAp?$AAo?$AAn?$AAe?$AAn?$AAt?$AA?5?$AAC?$AAa?$AAt?$AAe?$AAg?$AAo?$AAr?$AAi?$AAe?$AAs?$AA?$AA@ 004527ec     AboutGui.obj
 0002:00005818       ??_C@_1O@JDLOHAN@?$AAD?$AAe?$AAl?$AAe?$AAt?$AAe?$AA?$AA@ 00452818     AboutGui.obj
 0002:00005828       ??_C@_1BC@GCKHIPE@?$AAN?$AAo?$AAR?$AAe?$AAm?$AAo?$AAv?$AAe?$AA?$AA@ 00452828     AboutGui.obj
 0002:0000583c       ??_C@_1BI@JFAIJMHL@?$AAF?$AAo?$AAr?$AAc?$AAe?$AAR?$AAe?$AAm?$AAo?$AAv?$AAe?$AA?$AA@ 0045283c     AboutGui.obj
 0002:00005854       ??_C@_17LLMMEOJD@?$AAV?$AAa?$AAl?$AA?$AA@ 00452854     AboutGui.obj
 0002:0000585c       ??_C@_13OPKGLAFF@?$AAB?$AA?$AA@ 0045285c     AboutGui.obj
 0002:00005860       ??_C@_13MKMNOPIJ@?$AAD?$AA?$AA@ 00452860     AboutGui.obj
 0002:00005864       ??_C@_13LHMFKAAD@?$AAM?$AA?$AA@ 00452864     AboutGui.obj
 0002:00005868       ??_C@_13HADIAKP@?$AAS?$AA?$AA@ 00452868     AboutGui.obj
 0002:0000586c       ??_C@_1M@KANJNLFF@?$AAC?$AAL?$AAS?$AAI?$AAD?$AA?$AA@ 0045286c     AboutGui.obj
 0002:00005878       ??_C@_1M@EJNEECMJ@?$AAA?$AAp?$AAp?$AAI?$AAD?$AA?$AA@ 00452878     AboutGui.obj
 0002:00005884       ?rgszNeverDelete@CRegParser@ATL@@1QBQB_WB 00452884     AboutGui.obj
 0002:000058b8       ?DEBUG_LOG_FILENAME@Scylla@@0QB_WB 004528b8     Scylla.obj
 0002:000058dc       ?PLUGIN_DIR@PluginLoader@@0QB_WB 004528dc     PluginLoader.obj
 0002:000058f0       ?PLUGIN_SEARCH_STRING@PluginLoader@@0QB_WB 004528f0     PluginLoader.obj
 0002:000058fc       ?PLUGIN_IMPREC_DIR@PluginLoader@@0QB_WB 004528fc     PluginLoader.obj
 0002:0000591c       ?PLUGIN_IMPREC_WRAPPER_DLL@PluginLoader@@0QB_WB 0045291c     PluginLoader.obj
 0002:00005950       ?filterExe@MainGui@@1QB_WB 00452950     MainGui.obj
 0002:000059a0       ?filterDll@MainGui@@1QB_WB 004529a0     MainGui.obj
 0002:00005a08       ?filterExeDll@MainGui@@1QB_WB 00452a08     MainGui.obj
 0002:00005aa0       ?filterTxt@MainGui@@1QB_WB 00452aa0     MainGui.obj
 0002:00005af0       ?filterXml@MainGui@@1QB_WB 00452af0     MainGui.obj
 0002:00005b40       ?filterMem@MainGui@@1QB_WB 00452b40     MainGui.obj
 0002:00005ba4       ?MemoryUndefined@DumpMemoryGui@@0QB_WB 00452ba4     DumpMemoryGui.obj
 0002:00005bb0       ?MemoryUnknown@DumpMemoryGui@@0QB_WB 00452bb0     DumpMemoryGui.obj
 0002:00005bc0       ?TEXT_DONATE@DonateGui@@1QB_WB 00452bc0     DonateGui.obj
 0002:00005cd8       ?CONFIG_FILE_SECTION_NAME@ConfigurationHolder@@0QB_WB 00452cd8     ConfigurationHolder.obj
 0002:00005cf4       ?URL_VISIT1@AboutGui@@1QB_WB 00452cf4     AboutGui.obj
 0002:00005d30       ?TEXT_VISIT@AboutGui@@1QB_WB 00452d30     AboutGui.obj
 0002:00005db0       ?TEXT_DEVELOPED@AboutGui@@1QB_WB 00452db0     AboutGui.obj
 0002:00005e2c       ?URL_VISIT2@AboutGui@@1QB_WB 00452e2c     AboutGui.obj
 0002:00005e60       ?TEXT_CREDIT_DISTORM@AboutGui@@1QB_WB 00452e60     AboutGui.obj
 0002:00005ed4       ?URL_SILK@AboutGui@@1QB_WB 00452ed4     AboutGui.obj
 0002:00005f08       ?TEXT_CREDIT_YODA@AboutGui@@1QB_WB 00452f08     AboutGui.obj
 0002:00005f60       ?TEXT_CREDIT_SILK@AboutGui@@1QB_WB 00452f60     AboutGui.obj
 0002:00005fd8       ?TEXT_CREDIT_WTL@AboutGui@@1QB_WB 00452fd8     AboutGui.obj
 0002:00006048       ?TEXT_GREETINGS@AboutGui@@1QB_WB 00453048     AboutGui.obj
 0002:000060a8       ?TEXT_LICENSE@AboutGui@@1QB_WB 004530a8     AboutGui.obj
 0002:00006130       ?TEXT_TINYXML@AboutGui@@1QB_WB 00453130     AboutGui.obj
 0002:00006188       ?URL_DISTORM@AboutGui@@1QB_WB 00453188     AboutGui.obj
 0002:000061cc       ?URL_WTL@AboutGui@@1QB_WB  004531cc     AboutGui.obj
 0002:00006208       ?URL_LICENSE@AboutGui@@1QB_WB 00453208     AboutGui.obj
 0002:00006260       ?URL_TINYXML@AboutGui@@1QB_WB 00453260     AboutGui.obj
 0002:000062b4       ??_C@_1CE@HLGEPHCH@?$AAS?$AAc?$AAy?$AAl?$AAl?$AAa?$AA?5?$AAx?$AA8?$AA6?$AA?5?$AAv?$AA0?$AA?4?$AA9?$AA?4?$AA8?$AA?$AA@ 004532b4     AboutGui.obj
 0002:000062d8       ??_C@_19BDAJEHDN@?$AAo?$AAp?$AAe?$AAn?$AA?$AA@ 004532d8     AboutGui.obj
 0002:000062e4       ??_C@_1CC@KPOKNCMJ@?$AAt?$AAo?$AAo?$AAl?$AAt?$AAi?$AAp?$AAs?$AA_?$AAc?$AAl?$AAa?$AAs?$AAs?$AA3?$AA2?$AA?$AA@ 004532e4     AboutGui.obj
 0002:00006308       ??_C@_1BK@MGMFAEKH@?$AAk?$AAe?$AAr?$AAn?$AAe?$AAl?$AA3?$AA2?$AA?4?$AAd?$AAl?$AAl?$AA?$AA@ 00453308     ApiReader.obj
 0002:00006324       ??_C@_1CG@EGHLDGJO@?$AAM?$AAo?$AAd?$AAu?$AAl?$AAe?$AA?5?$AAp?$AAa?$AAr?$AAs?$AAi?$AAn?$AAg?$AA?3?$AA?5?$AA?$CF?$AAs?$AA?$AA@ 00453324     ApiReader.obj
 0002:0000634c       ??_C@_04MICCJKBJ@API?9?$AA@ 0045334c     ApiReader.obj
 0002:00006354       ??_C@_04OMOICEBF@EXT?9?$AA@ 00453354     ApiReader.obj
 0002:0000635c       ??_C@_04HLONOPDM@?4dll?$AA@ 0045335c     ApiReader.obj
 0002:00006368       ??_C@_1EK@NPBLOOBP@?$AA?9?$AA?$DO?$AA?5?$AAI?$AAM?$AAA?$AAG?$AAE?$AA_?$AAN?$AAT?$AA_?$AAS?$AAI?$AAG?$AAN?$AAA?$AAT?$AAU?$AAR?$AAE?$AA?5?$AAd?$AAo?$AAe?$AAs?$AAn?$AA?8?$AAt?$AA?5?$AAm?$AAa@ 00453368     ApiReader.obj
 0002:000063b4       ??_C@_1CI@FNHPDPDD@?$AA?9?$AA?$DO?$AA?5?$AAN?$AAo?$AA?5?$AAe?$AAx?$AAp?$AAo?$AAr?$AAt?$AA?5?$AAt?$AAa?$AAb?$AAl?$AAe?$AA?4?$AA?$AA@ 004533b4     ApiReader.obj
 0002:000063dc       ??_C@_1BO@MFOKJHPK@?$AAk?$AAe?$AAr?$AAn?$AAe?$AAl?$AAb?$AAa?$AAs?$AAe?$AA?4?$AAd?$AAl?$AAl?$AA?$AA@ 004533dc     ApiReader.obj
 0002:000063fc       ??_C@_1BE@GJOFHIHD@?$AAn?$AAt?$AAd?$AAl?$AAl?$AA?4?$AAd?$AAl?$AAl?$AA?$AA@ 004533fc     ApiReader.obj
 0002:00006410       ??_C@_1BI@EPOJMAKJ@?$AAs?$AAh?$AAl?$AAw?$AAa?$AAp?$AAi?$AA?4?$AAd?$AAl?$AAl?$AA?$AA@ 00453410     ApiReader.obj
 0002:00006428       ??_C@_1BI@CBIFPKFD@?$AAS?$AAh?$AAi?$AAm?$AAE?$AAn?$AAg?$AA?4?$AAd?$AAl?$AAl?$AA?$AA@ 00453428     ApiReader.obj
 0002:00006440       ??_C@_19ECCECEJG@?$AAA?$AAP?$AAI?$AA?9?$AA?$AA@ 00453440     ApiReader.obj
 0002:0000644c       ??_C@_19CHGCIOBM@?$AAE?$AAX?$AAT?$AA?9?$AA?$AA@ 0045344c     ApiReader.obj
 0002:00006458       ??_C@_1IC@HOFDFAKC@?$AAg?$AAe?$AAt?$AAA?$AAp?$AAi?$AAB?$AAy?$AAV?$AAi?$AAr?$AAt?$AAu?$AAa?$AAl?$AAA?$AAd?$AAd?$AAr?$AAe?$AAs?$AAs?$AA?5?$AA?3?$AA?3?$AA?5?$AAT?$AAh?$AAe?$AAr?$AAe?$AA?5@ 00453458     ApiReader.obj
 0002:000064dc       ??_C@_1DK@FILACLGB@?$AA?9?$AA?$DO?$AA?5?$AAP?$AAo?$AAs?$AAs?$AAi?$AAb?$AAl?$AAe?$AA?5?$AAA?$AAP?$AAI?$AA?3?$AA?5?$AA?$CF?$AAS?$AA?5?$AAo?$AAr?$AAd?$AA?3?$AA?5?$AA?$CF?$AAd?$AA?5?$AA?$AA@ 004534dc     ApiReader.obj
 0002:00006518       ??_C@_1FI@BNEKMIIF@?$AAg?$AAe?$AAt?$AAA?$AAp?$AAi?$AAB?$AAy?$AAV?$AAi?$AAr?$AAt?$AAu?$AAa?$AAl?$AAA?$AAd?$AAd?$AAr?$AAe?$AAs?$AAs?$AA?5?$AA?3?$AA?3?$AA?5?$AAN?$AAo?$AA?5?$AAA?$AAp?$AAi@ 00453518     ApiReader.obj
 0002:00006570       ??_C@_1HE@OMMPLKCI@?$AAI?$AAA?$AAT?$AA?5?$AAp?$AAa?$AAr?$AAs?$AAi?$AAn?$AAg?$AA?5?$AAf?$AAi?$AAn?$AAi?$AAs?$AAh?$AAe?$AAd?$AA?0?$AA?5?$AAf?$AAo?$AAu?$AAn?$AAd?$AA?5?$AA?$CF?$AAd?$AA?5?$AAv@ 00453570     ApiReader.obj
 0002:000065e4       ??_C@_13HGPDMIBE@?$AA?$DP?$AA?$AA@ 004535e4     ApiReader.obj
 0002:000065e8       ??_C@_01OGPIMHDM@?$DP?$AA@ 004535e8     ApiReader.obj
 0002:000065ec       ??_C@_0BB@HJOFFDOA@RestoreLastError?$AA@ 004535ec     ApiReader.obj
 0002:00006600       ??_C@_1BC@OACMOHID@?$AA?2?$AAW?$AAi?$AAn?$AAS?$AAx?$AAS?$AA?2?$AA?$AA@ 00453600     ApiReader.obj
 0002:00006614       ??_C@_1BC@LPOCJKBI@?$AA?2?$AAw?$AAi?$AAn?$AAs?$AAx?$AAs?$AA?2?$AA?$AA@ 00453614     ApiReader.obj
 0002:00006628       ??_C@_0BE@JONHPENG@map?1set?$DMT?$DO?5too?5long?$AA@ 00453628     ApiReader.obj
 0002:0000663c       ??_C@_0BD@OLBABOEK@vector?$DMT?$DO?5too?5long?$AA@ 0045363c     ApiReader.obj
 0002:00006650       ??_C@_0BM@PAPJHAGI@invalid?5map?1set?$DMT?$DO?5iterator?$AA@ 00453650     ApiReader.obj
 0002:0000666c       ??_C@_0BB@MOGOBHAF@list?$DMT?$DO?5too?5long?$AA@ 0045366c     ApiReader.obj
 0002:00006680       ??_C@_1DA@MJCOJPDA@?$AAU?$AAS?$AAE?$AA_?$AAP?$AAE?$AA_?$AAH?$AAE?$AAA?$AAD?$AAE?$AAR?$AA_?$AAF?$AAR?$AAO?$AAM?$AA_?$AAD?$AAI?$AAS?$AAK?$AA?$AA@ 00453680     ConfigurationHolder.obj
 0002:000066b0       ??_C@_1CA@MMGEJPAL@?$AAD?$AAE?$AAB?$AAU?$AAG?$AA_?$AAP?$AAR?$AAI?$AAV?$AAI?$AAL?$AAE?$AAG?$AAE?$AA?$AA@ 004536b0     ConfigurationHolder.obj
 0002:000066d0       ??_C@_1BM@GGEHJLAB@?$AAC?$AAR?$AAE?$AAA?$AAT?$AAE?$AA_?$AAB?$AAA?$AAC?$AAK?$AAU?$AAP?$AA?$AA@ 004536d0     ConfigurationHolder.obj
 0002:000066ec       ??_C@_1DE@KDGHFIC@?$AAD?$AAL?$AAL?$AA_?$AAI?$AAN?$AAJ?$AAE?$AAC?$AAT?$AAI?$AAO?$AAN?$AA_?$AAA?$AAU?$AAT?$AAO?$AA_?$AAU?$AAN?$AAL?$AAO?$AAA?$AAD?$AA?$AA@ 004536ec     ConfigurationHolder.obj
 0002:00006720       ??_C@_1CO@KALAJJFG@?$AAU?$AAP?$AAD?$AAA?$AAT?$AAE?$AA_?$AAH?$AAE?$AAA?$AAD?$AAE?$AAR?$AA_?$AAC?$AAH?$AAE?$AAC?$AAK?$AAS?$AAU?$AAM?$AA?$AA@ 00453720     ConfigurationHolder.obj
 0002:00006750       ??_C@_1CC@PHHKDKMP@?$AAI?$AAA?$AAT?$AA_?$AAS?$AAE?$AAC?$AAT?$AAI?$AAO?$AAN?$AA_?$AAN?$AAA?$AAM?$AAE?$AA?$AA@ 00453750     ConfigurationHolder.obj
 0002:00006774       ??_C@_1CO@ECDEBGFH@?$AAR?$AAE?$AAM?$AAO?$AAV?$AAE?$AA_?$AAD?$AAO?$AAS?$AA_?$AAH?$AAE?$AAA?$AAD?$AAE?$AAR?$AA_?$AAS?$AAT?$AAU?$AAB?$AA?$AA@ 00453774     ConfigurationHolder.obj
 0002:000067a4       ??_C@_1CI@BGFJJIIC@?$AAI?$AAA?$AAT?$AA_?$AAF?$AAI?$AAX?$AA_?$AAA?$AAN?$AAD?$AA_?$AAO?$AAE?$AAP?$AA_?$AAF?$AAI?$AAX?$AA?$AA@ 004537a4     ConfigurationHolder.obj
 0002:000067cc       ??_C@_1DI@CBEHBDFC@?$AAS?$AAU?$AAS?$AAP?$AAE?$AAN?$AAD?$AA_?$AAP?$AAR?$AAO?$AAC?$AAE?$AAS?$AAS?$AA_?$AAF?$AAO?$AAR?$AA_?$AAD?$AAU?$AAM?$AAP?$AAI?$AAN?$AAG?$AA?$AA@ 004537cc     ConfigurationHolder.obj
 0002:00006804       ??_C@_1DG@CPLEGPL@?$AAO?$AAr?$AAi?$AAg?$AAi?$AAn?$AAa?$AAl?$AAF?$AAi?$AAr?$AAs?$AAt?$AAT?$AAh?$AAu?$AAn?$AAk?$AA_?$AAS?$AAU?$AAP?$AAP?$AAO?$AAR?$AAT?$AA?$AA@ 00453804     ConfigurationHolder.obj
 0002:0000683c       ??_C@_1DA@OAPMDNNE@?$AAU?$AAS?$AAE?$AA_?$AAA?$AAD?$AAV?$AAA?$AAN?$AAC?$AAE?$AAD?$AA_?$AAI?$AAA?$AAT?$AA_?$AAS?$AAE?$AAA?$AAR?$AAC?$AAH?$AA?$AA@ 0045383c     ConfigurationHolder.obj
 0002:0000686c       ??_C@_1CI@EEJMMHBB@?$AAS?$AAC?$AAA?$AAN?$AA_?$AAD?$AAI?$AAR?$AAE?$AAC?$AAT?$AA_?$AAI?$AAM?$AAP?$AAO?$AAR?$AAT?$AAS?$AA?$AA@ 0045386c     ConfigurationHolder.obj
 0002:00006894       ??_C@_1DE@IHJKEFCO@?$AAF?$AAI?$AAX?$AA_?$AAD?$AAI?$AAR?$AAE?$AAC?$AAT?$AA_?$AAI?$AAM?$AAP?$AAO?$AAR?$AAT?$AAS?$AA_?$AAN?$AAO?$AAR?$AAM?$AAA?$AAL?$AA?$AA@ 00453894     ConfigurationHolder.obj
 0002:000068c8       ??_C@_1DK@MHKMGLOJ@?$AAF?$AAI?$AAX?$AA_?$AAD?$AAI?$AAR?$AAE?$AAC?$AAT?$AA_?$AAI?$AAM?$AAP?$AAO?$AAR?$AAT?$AAS?$AA_?$AAU?$AAN?$AAI?$AAV?$AAE?$AAR?$AAS?$AAA?$AAL?$AA?$AA@ 004538c8     ConfigurationHolder.obj
 0002:00006904       ??_C@_1DE@NPFGOBIP@?$AAC?$AAR?$AAE?$AAA?$AAT?$AAE?$AA_?$AAN?$AAE?$AAW?$AA_?$AAI?$AAA?$AAT?$AA_?$AAI?$AAN?$AA_?$AAS?$AAE?$AAC?$AAT?$AAI?$AAO?$AAN?$AA?$AA@ 00453904     ConfigurationHolder.obj
 0002:00006938       ??_C@_1DA@JKHMADOP@?$AAD?$AAO?$AAN?$AAT?$AA_?$AAC?$AAR?$AAE?$AAA?$AAT?$AAE?$AA_?$AAN?$AAE?$AAW?$AA_?$AAS?$AAE?$AAC?$AAT?$AAI?$AAO?$AAN?$AA?$AA@ 00453938     ConfigurationHolder.obj
 0002:00006968       ??_C@_1CM@FHIGOAAB@?$AAA?$AAP?$AAI?$AAS?$AA_?$AAA?$AAL?$AAW?$AAA?$AAY?$AAS?$AA_?$AAF?$AAR?$AAO?$AAM?$AA_?$AAD?$AAI?$AAS?$AAK?$AA?$AA@ 00453968     ConfigurationHolder.obj
 0002:00006994       ??_C@_11LOCGONAA@?$AA?$AA@ 00453994     ConfigurationHolder.obj
 0002:00006998       ??_C@_19NGFMKOON@?$AA?$CF?$AA0?$AA8?$AAX?$AA?$AA@ 00453998     ConfigurationHolder.obj
 0002:000069a4       ??_C@_15EFLNJKHH@?$AA?$CF?$AAu?$AA?$AA@ 004539a4     ConfigurationHolder.obj
 0002:000069ac       ??_C@_13JGCMLPCH@?$AA1?$AA?$AA@ 004539ac     ConfigurationHolder.obj
 0002:000069b0       ??_C@_13COJANIEC@?$AA0?$AA?$AA@ 004539b0     ConfigurationHolder.obj
 0002:000069b4       ?theMap@?1??GetDlgResizeMap@DisassemblerGui@@SAPBU_AtlDlgResizeMap@?$CDialogResize@VDisassemblerGui@@@WTL@@XZ@4QBU345@B 004539b4     DisassemblerGui.obj
 0002:000069ec       ??_C@_1M@ILHOPKA@?$AAE?$AAr?$AAr?$AAo?$AAr?$AA?$AA@ 004539ec     DisassemblerGui.obj
 0002:000069f8       ??_C@_1FE@JBDLABIC@?$AAC?$AAa?$AAn?$AAn?$AAo?$AAt?$AA?5?$AAd?$AAi?$AAs?$AAa?$AAs?$AAs?$AAe?$AAm?$AAb?$AAl?$AAe?$AA?5?$AAm?$AAe?$AAm?$AAo?$AAr?$AAy?$AA?5?$AAa?$AAt?$AA?5?$AAt?$AAh?$AAi@ 004539f8     DisassemblerGui.obj
 0002:00006a4c       ??_C@_1BA@LDPMAPOD@?$AAA?$AAd?$AAd?$AAr?$AAe?$AAs?$AAs?$AA?$AA@ 00453a4c     DisassemblerGui.obj
 0002:00006a5c       ??_C@_19CHLDDIME@?$AAS?$AAi?$AAz?$AAe?$AA?$AA@ 00453a5c     DisassemblerGui.obj
 0002:00006a68       ??_C@_1BA@FDINEIPA@?$AAO?$AAp?$AAc?$AAo?$AAd?$AAe?$AAs?$AA?$AA@ 00453a68     DisassemblerGui.obj
 0002:00006a78       ??_C@_1BK@BOIIFMMI@?$AAI?$AAn?$AAs?$AAt?$AAr?$AAu?$AAc?$AAt?$AAi?$AAo?$AAn?$AAs?$AA?$AA@ 00453a78     DisassemblerGui.obj
 0002:00006a94       ??_C@_1BA@BCPHNIGF@?$AAC?$AAo?$AAm?$AAm?$AAe?$AAn?$AAt?$AA?$AA@ 00453a94     DisassemblerGui.obj
 0002:00006aa4       ??_C@_19MNDKMKJC@?$AA?$CF?$AA0?$AA2?$AAd?$AA?$AA@ 00453aa4     DisassemblerGui.obj
 0002:00006ab0       ??_C@_15MAOEGKJF@?$AA?$CF?$AAS?$AA?$AA@ 00453ab0     DisassemblerGui.obj
 0002:00006ab8       ??_C@_01CLKCMJKC@?5?$AA@   00453ab8     DisassemblerGui.obj
 0002:00006aba       ??_C@_00CNPNBAHC@?$AA@     00453aba     DisassemblerGui.obj
 0002:00006abc       ??_C@_1O@NAGCBAAJ@?$AA?$CF?$AAS?$AA?$CF?$AAS?$AA?$CF?$AAS?$AA?$AA@ 00453abc     DisassemblerGui.obj
 0002:00006acc       ??_C@_1BA@LPGEHOCG@?$AA?9?$AA?$DO?$AA?5?$AA?$CF?$AA0?$AA8?$AAX?$AA?$AA@ 00453acc     DisassemblerGui.obj
 0002:00006adc       ??_C@_1BG@FMNEPFC@?$AA?$CF?$AAs?$AA?5?$AA?9?$AA?$DO?$AA?5?$AA?$CF?$AA0?$AA8?$AAX?$AA?$AA@ 00453adc     DisassemblerGui.obj
 0002:00006af4       ??_C@_1BK@MDABAFJD@?$AA?$CF?$AAs?$AA?5?$AA?$DN?$AA?5?$AA?$CF?$AAs?$AA?4?$AA?$CF?$AA0?$AA4?$AAX?$AA?$AA@ 00453af4     DisassemblerGui.obj
 0002:00006b10       ??_C@_1BG@GDBCCMGC@?$AA?$CF?$AAs?$AA?5?$AA?$DN?$AA?5?$AA?$CF?$AAs?$AA?4?$AA?$CF?$AAS?$AA?$AA@ 00453b10     DisassemblerGui.obj
 0002:00006b28       ??_C@_1BA@LKINKPIO@?$AA?$CF?$AAs?$AA?5?$AA?$DN?$AA?5?$AA?$CF?$AAs?$AA?$AA@ 00453b28     DisassemblerGui.obj
 0002:00006b38       ??_C@_1BE@PNDFOHKG@?$AAS?$AAC?$AAR?$AAO?$AAL?$AAL?$AAB?$AAA?$AAR?$AA?$AA@ 00453b38     DisassemblerGui.obj
 0002:00006b4c       ?Digits@?$CHexEditImpl@V?$CHexEdit@K@@KV?$CEditT@VCWindow@ATL@@@WTL@@V?$CWinTraits@$0FGAAAAAA@$0A@@ATL@@@@2QB_WB 00453b4c     DisassemblerGui.obj
 0002:00006b74       ??_7DisassemblerGui@@6B@   00453b74     DisassemblerGui.obj
 0002:00006b88       ??_7?$CHexEdit@K@@6B@      00453b88     DisassemblerGui.obj
 0002:00006b98       ??_C@_1CK@KBDPMF@?$AAS?$AAc?$AAy?$AAl?$AAl?$AAa?$AAP?$AAl?$AAu?$AAg?$AAi?$AAn?$AAE?$AAx?$AAc?$AAh?$AAa?$AAn?$AAg?$AAe?$AA?$AA@ 00453b98     DllInjectionPlugin.obj
 0002:00006bc4       ??_C@_1CM@MHLEKHGN@?$AAN?$AAo?$AA?5?$AAu?$AAn?$AAr?$AAe?$AAs?$AAo?$AAl?$AAv?$AAe?$AAd?$AA?5?$AAI?$AAm?$AAp?$AAo?$AAr?$AAt?$AAs?$AA?$AA@ 00453bc4     DllInjectionPlugin.obj
 0002:00006bf0       ??_C@_1EA@LBMNHFFM@?$AAP?$AAl?$AAu?$AAg?$AAi?$AAn?$AA?5?$AAi?$AAn?$AAj?$AAe?$AAc?$AAt?$AAi?$AAo?$AAn?$AA?5?$AAw?$AAa?$AAs?$AA?5?$AAs?$AAu?$AAc?$AAc?$AAe?$AAs?$AAs?$AAf?$AAu?$AAl?$AA?$AA@ 00453bf0     DllInjectionPlugin.obj
 0002:00006c30       ??_C@_1DA@KKJKABFG@?$AAP?$AAl?$AAu?$AAg?$AAi?$AAn?$AA?5?$AAu?$AAn?$AAl?$AAo?$AAa?$AAd?$AAi?$AAn?$AAg?$AA?5?$AAf?$AAa?$AAi?$AAl?$AAe?$AAd?$AA?$AA@ 00453c30     DllInjectionPlugin.obj
 0002:00006c60       ??_C@_1DA@JCIFJMMH@?$AAP?$AAl?$AAu?$AAg?$AAi?$AAn?$AA?5?$AAi?$AAn?$AAj?$AAe?$AAc?$AAt?$AAi?$AAo?$AAn?$AA?5?$AAf?$AAa?$AAi?$AAl?$AAe?$AAd?$AA?$AA@ 00453c60     DllInjectionPlugin.obj
 0002:00006c90       ??_C@_1DO@DDENLPML@?$AAS?$AAc?$AAy?$AAl?$AAl?$AAa?$AAI?$AAm?$AAp?$AAr?$AAe?$AAc?$AAP?$AAl?$AAu?$AAg?$AAi?$AAn?$AAE?$AAx?$AAc?$AAh?$AAa?$AAn?$AAg?$AAe?$AAP?$AAa?$AAt?$AAh?$AA?$AA@ 00453c90     DllInjectionPlugin.obj
 0002:00006cd0       ??_C@_1CM@KEIICEID@?$AAP?$AAl?$AAu?$AAg?$AAi?$AAn?$AA?5?$AAw?$AAa?$AAs?$AA?5?$AAs?$AAu?$AAc?$AAc?$AAe?$AAs?$AAs?$AAf?$AAu?$AAl?$AA?$AA@ 00453cd0     DllInjectionPlugin.obj
 0002:00006cfc       ??_C@_1DM@FJLKLAFN@?$AAP?$AAl?$AAu?$AAg?$AAi?$AAn?$AA?5?$AAr?$AAe?$AAp?$AAo?$AAr?$AAt?$AAe?$AAd?$AA?5?$AAU?$AAn?$AAk?$AAn?$AAo?$AAw?$AAn?$AA?5?$AAE?$AAr?$AAr?$AAo?$AAr?$AA?$AA@ 00453cfc     DllInjectionPlugin.obj
 0002:00006d38       ??_C@_1EG@EKPGAOHL@?$AAP?$AAl?$AAu?$AAg?$AAi?$AAn?$AA?5?$AAd?$AAe?$AAt?$AAe?$AAc?$AAt?$AAe?$AAd?$AA?5?$AAu?$AAn?$AAk?$AAn?$AAo?$AAw?$AAn?$AA?5?$AAp?$AAr?$AAo?$AAt?$AAe?$AAc?$AAt?$AAi@ 00453d38     DllInjectionPlugin.obj
 0002:00006d80       ??_C@_1DO@LLJEGBMF@?$AAP?$AAl?$AAu?$AAg?$AAi?$AAn?$AA?5?$AAi?$AAm?$AAp?$AAo?$AAr?$AAt?$AA?5?$AAr?$AAe?$AAs?$AAo?$AAl?$AAv?$AAi?$AAn?$AAg?$AA?5?$AAf?$AAa?$AAi?$AAl?$AAe?$AAd?$AA?$AA@ 00453d80     DllInjectionPlugin.obj
 0002:00006dc0       ??_C@_1DG@NHGAOCDC@?$AAP?$AAl?$AAu?$AAg?$AAi?$AAn?$AA?5?$AAf?$AAi?$AAl?$AAe?$AA?5?$AAm?$AAa?$AAp?$AAp?$AAi?$AAn?$AAg?$AA?5?$AAf?$AAa?$AAi?$AAl?$AAe?$AAd?$AA?$AA@ 00453dc0     DllInjectionPlugin.obj
 0002:00006df8       ??_C@_1DK@CFPDNPKN@?$AAP?$AAl?$AAu?$AAg?$AAi?$AAn?$AA?5?$AAf?$AAa?$AAi?$AAl?$AAe?$AAd?$AA?5?$AAw?$AAi?$AAt?$AAh?$AAo?$AAu?$AAt?$AA?5?$AAr?$AAe?$AAa?$AAs?$AAo?$AAn?$AA?$AA@ 00453df8     DllInjectionPlugin.obj
 0002:00006e34       ??_C@_0CD@HFMLLGML@1GmVrhWwUhwLohaCLP4SKV5kkz8rd16N@ 00453e34     DonateGui.obj
 0002:00006e58       ??_C@_1BK@EMAHKFIE@?$AAW?$AAR?$AAI?$AAT?$AAE?$AAC?$AAO?$AAM?$AAB?$AAI?$AAN?$AAE?$AA?$AA@ 00453e58     DumpMemoryGui.obj
 0002:00006e74       ??_C@_1BA@NEMDBLGC@?$AAN?$AAO?$AAC?$AAA?$AAC?$AAH?$AAE?$AA?$AA@ 00453e74     DumpMemoryGui.obj
 0002:00006e84       ??_C@_1M@CPOLIOAG@?$AAG?$AAU?$AAA?$AAR?$AAD?$AA?$AA@ 00453e84     DumpMemoryGui.obj
 0002:00006e90       ??_C@_1BE@PHDNGFG@?$AAW?$AAR?$AAI?$AAT?$AAE?$AAC?$AAO?$AAP?$AAY?$AA?$AA@ 00453e90     DumpMemoryGui.obj
 0002:00006ea4       ??_C@_1BE@JBKLMJBF@?$AAR?$AAE?$AAA?$AAD?$AAW?$AAR?$AAI?$AAT?$AAE?$AA?$AA@ 00453ea4     DumpMemoryGui.obj
 0002:00006eb8       ??_C@_1BC@CPNDMAGA@?$AAR?$AAE?$AAA?$AAD?$AAO?$AAN?$AAL?$AAY?$AA?$AA@ 00453eb8     DumpMemoryGui.obj
 0002:00006ecc       ??_C@_1BC@EHMJBKCD@?$AAN?$AAO?$AAA?$AAC?$AAC?$AAE?$AAS?$AAS?$AA?$AA@ 00453ecc     DumpMemoryGui.obj
 0002:00006ee0       ??_C@_1CE@FFANDECC@?$AAE?$AAX?$AAE?$AAC?$AAU?$AAT?$AAE?$AA_?$AAW?$AAR?$AAI?$AAT?$AAE?$AAC?$AAO?$AAP?$AAY?$AA?$AA@ 00453ee0     DumpMemoryGui.obj
 0002:00006f04       ??_C@_1CE@MLNFCLGB@?$AAE?$AAX?$AAE?$AAC?$AAU?$AAT?$AAE?$AA_?$AAR?$AAE?$AAA?$AAD?$AAW?$AAR?$AAI?$AAT?$AAE?$AA?$AA@ 00453f04     DumpMemoryGui.obj
 0002:00006f28       ??_C@_1BK@CCMLIPII@?$AAE?$AAX?$AAE?$AAC?$AAU?$AAT?$AAE?$AA_?$AAR?$AAE?$AAA?$AAD?$AA?$AA@ 00453f28     DumpMemoryGui.obj
 0002:00006f44       ??_C@_1BA@KIGPCJOC@?$AAE?$AAX?$AAE?$AAC?$AAU?$AAT?$AAE?$AA?$AA@ 00453f44     DumpMemoryGui.obj
 0002:00006f54       ??_C@_1BA@NKFKCIAN@?$AAP?$AAR?$AAI?$AAV?$AAA?$AAT?$AAE?$AA?$AA@ 00453f54     DumpMemoryGui.obj
 0002:00006f64       ??_C@_1O@NEBANLDG@?$AAM?$AAA?$AAP?$AAP?$AAE?$AAD?$AA?$AA@ 00453f64     DumpMemoryGui.obj
 0002:00006f74       ??_C@_1M@BJAEGIEJ@?$AAI?$AAM?$AAA?$AAG?$AAE?$AA?$AA@ 00453f74     DumpMemoryGui.obj
 0002:00006f80       ??_C@_1BA@MLMPDDHH@?$AAR?$AAE?$AAS?$AAE?$AAR?$AAV?$AAE?$AA?$AA@ 00453f80     DumpMemoryGui.obj
 0002:00006f90       ??_C@_19GLINCHAF@?$AAF?$AAR?$AAE?$AAE?$AA?$AA@ 00453f90     DumpMemoryGui.obj
 0002:00006f9c       ??_C@_1O@OEIPOEOO@?$AAC?$AAO?$AAM?$AAM?$AAI?$AAT?$AA?$AA@ 00453f9c     DumpMemoryGui.obj
 0002:00006fb0       ?theMap@?1??GetDlgResizeMap@DumpMemoryGui@@SAPBU_AtlDlgResizeMap@?$CDialogResize@VDumpMemoryGui@@@WTL@@XZ@4QBU345@B 00453fb0     DumpMemoryGui.obj
 0002:00006ff8       ??_C@_19DDLLJDOO@?$AAF?$AAi?$AAl?$AAe?$AA?$AA@ 00453ff8     DumpMemoryGui.obj
 0002:00007004       ??_C@_1BG@NDCFGPEH@?$AAP?$AAE?$AA?5?$AAS?$AAe?$AAc?$AAt?$AAi?$AAo?$AAn?$AA?$AA@ 00454004     DumpMemoryGui.obj
 0002:0000701c       ??_C@_19BIEPDBPA@?$AAT?$AAy?$AAp?$AAe?$AA?$AA@ 0045401c     DumpMemoryGui.obj
 0002:00007028       ??_C@_1BG@GOGPGFPK@?$AAP?$AAr?$AAo?$AAt?$AAe?$AAc?$AAt?$AAi?$AAo?$AAn?$AA?$AA@ 00454028     DumpMemoryGui.obj
 0002:00007040       ??_C@_1M@LAGHHMEN@?$AAS?$AAt?$AAa?$AAt?$AAe?$AA?$AA@ 00454040     DumpMemoryGui.obj
 0002:0000704c       ??_C@_1BI@PCAJJNCE@?$AAM?$AAa?$AAp?$AAp?$AAe?$AAd?$AA?5?$AAF?$AAi?$AAl?$AAe?$AA?$AA@ 0045404c     DumpMemoryGui.obj
 0002:00007064       ??_C@_17LPHJCAEE@?$AA?5?$AA?$HM?$AA?5?$AA?$AA@ 00454064     DumpMemoryGui.obj
 0002:0000706c       ??_C@_1CE@JMLNHHC@?$AAT?$AAe?$AAx?$AAt?$AAb?$AAo?$AAx?$AA?5?$AAi?$AAs?$AA?5?$AAe?$AAm?$AAp?$AAt?$AAy?$AA?$CB?$AA?$AA@ 0045406c     DumpMemoryGui.obj
 0002:00007090       ??_C@_1EG@PIIMCHII@?$AAR?$AAe?$AAa?$AAd?$AAi?$AAn?$AAg?$AA?5?$AAm?$AAe?$AAm?$AAo?$AAr?$AAy?$AA?5?$AAf?$AAr?$AAo?$AAm?$AA?5?$AAp?$AAr?$AAo?$AAc?$AAe?$AAs?$AAs?$AA?5?$AAf?$AAa?$AAi?$AAl@ 00454090     DumpMemoryGui.obj
 0002:000070d8       ??_C@_13PPFCDPMH@?$AA?$HM?$AA?$AA@ 004540d8     DumpMemoryGui.obj
 0002:000070e0       ??_C@_1FG@JPFCCPCJ@?$AAN?$AAo?$AAt?$AA?5?$AAa?$AA?5?$AAv?$AAa?$AAl?$AAi?$AAd?$AA?5?$AAP?$AAE?$AA?5?$AA?9?$AA?$DO?$AA?5?$AAT?$AAh?$AAi?$AAs?$AA?5?$AAs?$AAh?$AAo?$AAu?$AAl?$AAd?$AA?5?$AAn?$AAe@ 004540e0     DumpMemoryGui.obj
 0002:00007138       ??_C@_1BM@OCLDKCCK@?$AAM?$AAE?$AAM?$AA_?$AA?$CF?$AA0?$AA8?$AAX?$AA_?$AA?$CF?$AA0?$AA8?$AAX?$AA?$AA@ 00454138     DumpMemoryGui.obj
 0002:00007158       ??_7DumpMemoryGui@@6B@     00454158     DumpMemoryGui.obj
 0002:00007168       ?theMap@?1??GetDlgResizeMap@DumpSectionGui@@SAPBU_AtlDlgResizeMap@?$CDialogResize@VDumpSectionGui@@@WTL@@XZ@4QBU345@B 00454168     DumpSectionGui.obj
 0002:00007190       ??_C@_19DINFBLAK@?$AAN?$AAa?$AAm?$AAe?$AA?$AA@ 00454190     DumpSectionGui.obj
 0002:0000719c       ??_C@_1CA@KJMDFFJL@?$AAV?$AAi?$AAr?$AAt?$AAu?$AAa?$AAl?$AA?5?$AAA?$AAd?$AAd?$AAr?$AAe?$AAs?$AAs?$AA?$AA@ 0045419c     DumpSectionGui.obj
 0002:000071bc       ??_C@_1BK@PBFKPMNN@?$AAV?$AAi?$AAr?$AAt?$AAu?$AAa?$AAl?$AA?5?$AAS?$AAi?$AAz?$AAe?$AA?$AA@ 004541bc     DumpSectionGui.obj
 0002:000071d8       ??_C@_1BI@FKDDFHEO@?$AAR?$AAa?$AAw?$AA?5?$AAA?$AAd?$AAd?$AAr?$AAe?$AAs?$AAs?$AA?$AA@ 004541d8     DumpSectionGui.obj
 0002:000071f0       ??_C@_1BC@DCGCAGGP@?$AAR?$AAa?$AAw?$AA?5?$AAS?$AAi?$AAz?$AAe?$AA?$AA@ 004541f0     DumpSectionGui.obj
 0002:00007204       ??_C@_1CA@HLGPGKOE@?$AAC?$AAh?$AAa?$AAr?$AAa?$AAc?$AAt?$AAe?$AAr?$AAi?$AAs?$AAt?$AAi?$AAc?$AAs?$AA?$AA@ 00454204     DumpSectionGui.obj
 0002:00007228       ??_7DumpSectionGui@@6B@    00454228     DumpSectionGui.obj
 0002:00007238       ??_C@_0P@LKABJJMO@IsWow64Process?$AA@ 00454238     FunctionExport.obj
 0002:00007248       ??_C@_1DE@IPMKIBAI@?$AAS?$AAc?$AAy?$AAl?$AAl?$AAa?$AA_?$AAd?$AAi?$AAr?$AAe?$AAc?$AAt?$AA_?$AAi?$AAm?$AAp?$AAo?$AAr?$AAt?$AAs?$AA?4?$AAl?$AAo?$AAg?$AA?$AA@ 00454248     IATReferenceScan.obj
 0002:00007280       ??_C@_1FG@NBOHMPCF@?$AAE?$AAr?$AAr?$AAo?$AAr?$AA?5?$AA?9?$AA?5?$AAC?$AAa?$AAn?$AAn?$AAo?$AAt?$AA?5?$AAf?$AAi?$AAx?$AA?5?$AAI?$AAA?$AAT?$AA?5?$AAr?$AAe?$AAf?$AAe?$AAr?$AAe?$AAn?$AAc?$AAe@ 00454280     IATReferenceScan.obj
 0002:000072d8       ??_C@_1HK@PLEACAAO@?$AA?9?$AA?9?$AA?9?$AA?9?$AA?9?$AA?9?$AA?9?$AA?9?$AA?9?$AA?9?$AA?9?$AA?9?$AA?9?$AA?9?$AA?9?$AA?9?$AA?9?$AA?9?$AA?9?$AA?9?$AA?9?$AA?9?$AA?9?$AA?9?$AA?9?$AA?9?$AA?9?$AA?9?$AA?9?$AA?9?$AA?9?$AA?9@ 004542d8     IATReferenceScan.obj
 0002:00007358       ??_C@_1HG@BKCKLPDD@?$AAI?$AAm?$AAa?$AAg?$AAe?$AAB?$AAa?$AAs?$AAe?$AA?5?$AA?$CF?$AA0?$AA8?$AAX?$AA?5?$AAI?$AAm?$AAa?$AAg?$AAe?$AAS?$AAi?$AAz?$AAe?$AA?5?$AA?$CF?$AA0?$AA8?$AAX?$AA?5?$AAI?$AAA@ 00454358     IATReferenceScan.obj
 0002:000073d0       ??_C@_13CCGINPHD@?$AAU?$AA?$AA@ 004543d0     IATReferenceScan.obj
 0002:000073d4       ??_C@_19CFJHMEML@?$AAC?$AAA?$AAL?$AAL?$AA?$AA@ 004543d4     IATReferenceScan.obj
 0002:000073e0       ??_C@_17FKELOIKD@?$AAJ?$AAM?$AAP?$AA?$AA@ 004543e0     IATReferenceScan.obj
 0002:000073e8       ??_C@_17DICNBPGN@?$AAM?$AAO?$AAV?$AA?$AA@ 004543e8     IATReferenceScan.obj
 0002:000073f0       ??_C@_19GMBNOGOI@?$AAP?$AAU?$AAS?$AAH?$AA?$AA@ 004543f0     IATReferenceScan.obj
 0002:000073fc       ??_C@_17JINCFDLD@?$AAL?$AAE?$AAA?$AA?$AA@ 004543fc     IATReferenceScan.obj
 0002:00007408       ??_C@_1IC@GJKLIEHJ@?$AA?$CF?$AA0?$AA4?$AAd?$AA?5?$AAA?$AAd?$AAd?$AAr?$AAV?$AAA?$AA?5?$AA?$CF?$AA0?$AA8?$AAX?$AA?5?$AAT?$AAy?$AAp?$AAe?$AA?5?$AA?$CF?$AAs?$AA?5?$AAV?$AAa?$AAl?$AAu?$AAe?$AA?5?$AA?$CF@ 00454408     IATReferenceScan.obj
 0002:00007490       ??_C@_1LG@CEDAOFAF@?$AAR?$AAe?$AAl?$AAo?$AAc?$AAa?$AAt?$AAi?$AAo?$AAn?$AA?5?$AAd?$AAi?$AAr?$AAe?$AAc?$AAt?$AA?5?$AAi?$AAm?$AAp?$AAo?$AAr?$AAt?$AAs?$AA?5?$AAf?$AAi?$AAx?$AA?3?$AA?5?$AAB@ 00454490     IATReferenceScan.obj
 0002:00007548       ??_C@_1GG@PIEAOKLG@?$AAE?$AAr?$AAr?$AAo?$AAr?$AA?5?$AA?9?$AA?5?$AAC?$AAa?$AAn?$AAn?$AAo?$AAt?$AA?5?$AAf?$AAi?$AAx?$AA?5?$AAd?$AAi?$AAr?$AAe?$AAc?$AAt?$AA?5?$AAi?$AAm?$AAp?$AAo?$AAr?$AAt@ 00454548     IATReferenceScan.obj
 0002:000075b0       ??_C@_1GM@IKMOGLOE@?$AAI?$AAA?$AAT?$AA?5?$AAS?$AAe?$AAa?$AAr?$AAc?$AAh?$AA?5?$AAA?$AAd?$AAv?$AA?3?$AA?5?$AAF?$AAo?$AAu?$AAn?$AAd?$AA?5?$AA?$CF?$AAd?$AA?5?$AA?$CI?$AA0?$AAx?$AA?$CF?$AAX?$AA?$CJ?$AA?5@ 004545b0     IATSearch.obj
 0002:00007620       ??_C@_1HC@MMLEFPJM@?$AAI?$AAA?$AAT?$AA?5?$AAS?$AAe?$AAa?$AAr?$AAc?$AAh?$AA?5?$AAA?$AAd?$AAv?$AA?3?$AA?5?$AAP?$AAo?$AAs?$AAs?$AAi?$AAb?$AAl?$AAe?$AA?5?$AAI?$AAA?$AAT?$AA?5?$AAf?$AAi?$AAr@ 00454620     IATSearch.obj
 0002:00007694       ??_C@_04IHDBOMEP@?4SCY?$AA@ 00454694     ImportRebuilder.obj
 0002:0000769c       ??_C@_1CG@HDGJAKBE@?$AAo?$AAr?$AAd?$AA?3?$AA?5?$AA?$CF?$AA0?$AA4?$AAX?$AA?5?$AAn?$AAa?$AAm?$AAe?$AA?3?$AA?5?$AA?$CF?$AAS?$AA?$AA@ 0045469c     ImportsHandling.obj
 0002:000076c4       ??_C@_1BE@FOEGGGEN@?$AAo?$AAr?$AAd?$AA?3?$AA?5?$AA?$CF?$AA0?$AA4?$AAX?$AA?$AA@ 004546c4     ImportsHandling.obj
 0002:000076d8       ??_C@_1CM@NIMMEAEI@?$AA?5?$AAr?$AAv?$AAa?$AA?3?$AA?5?$AA?$CF?$AA0?$AA8?$AAX?$AA?5?$AAm?$AAo?$AAd?$AA?3?$AA?5?$AA?$CF?$AAs?$AA?5?$AA?$CF?$AAs?$AA?$AA@ 004546d8     ImportsHandling.obj
 0002:00007704       ??_C@_1CK@OPAKMBDG@?$AA?5?$AAr?$AAv?$AAa?$AA?3?$AA?5?$AA?$CF?$AA0?$AA8?$AAX?$AA?5?$AAp?$AAt?$AAr?$AA?3?$AA?5?$AA?$CF?$AA0?$AA8?$AAX?$AA?$AA@ 00454704     ImportsHandling.obj
 0002:00007730       ??_C@_1CK@NHEMHLNP@?$AA?$CF?$AAs?$AA?5?$AA?$CI?$AA?$CF?$AAd?$AA?$CJ?$AA?5?$AAF?$AAT?$AAh?$AAu?$AAn?$AAk?$AA?3?$AA?5?$AA?$CF?$AA0?$AA8?$AAX?$AA?$AA@ 00454730     ImportsHandling.obj
 0002:0000775c       ??_C@_13FNCBLAIF@?$AAa?$AA?$AA@ 0045475c     Logger.obj
 0002:00007760       ??_C@_02PCIJFNDE@?$AN?6?$AA@ 00454760     Logger.obj
 0002:00007764       ??_C@_15JNBOKNOG@?$AA?$AN?$AA?6?$AA?$AA@ 00454764     Logger.obj
 0002:00007770       ??_7FileLog@@6B@           00454770     Logger.obj
 0002:00007780       ??_C@_1CI@BBJOACGG@?$AAH?$AAK?$AAE?$AAY?$AA_?$AAC?$AAU?$AAR?$AAR?$AAE?$AAN?$AAT?$AA_?$AAC?$AAO?$AAN?$AAF?$AAI?$AAG?$AA?$AA@ 00454780     main.obj
 0002:000077a8       ??_C@_1BM@HAGMMHIA@?$AAH?$AAK?$AAE?$AAY?$AA_?$AAD?$AAY?$AAN?$AA_?$AAD?$AAA?$AAT?$AAA?$AA?$AA@ 004547a8     main.obj
 0002:000077c4       ??_C@_1CM@KHNNAOIC@?$AAH?$AAK?$AAE?$AAY?$AA_?$AAP?$AAE?$AAR?$AAF?$AAO?$AAR?$AAM?$AAA?$AAN?$AAC?$AAE?$AA_?$AAD?$AAA?$AAT?$AAA?$AA?$AA@ 004547c4     main.obj
 0002:000077f0       ??_C@_1BG@BGODANIO@?$AAH?$AAK?$AAE?$AAY?$AA_?$AAU?$AAS?$AAE?$AAR?$AAS?$AA?$AA@ 004547f0     main.obj
 0002:00007808       ??_C@_1CG@GFBEANJL@?$AAH?$AAK?$AAE?$AAY?$AA_?$AAL?$AAO?$AAC?$AAA?$AAL?$AA_?$AAM?$AAA?$AAC?$AAH?$AAI?$AAN?$AAE?$AA?$AA@ 00454808     main.obj
 0002:00007830       ??_C@_1CE@HLHNCBPM@?$AAH?$AAK?$AAE?$AAY?$AA_?$AAC?$AAU?$AAR?$AAR?$AAE?$AAN?$AAT?$AA_?$AAU?$AAS?$AAE?$AAR?$AA?$AA@ 00454830     main.obj
 0002:00007854       ??_C@_1CE@PACHPJFI@?$AAH?$AAK?$AAE?$AAY?$AA_?$AAC?$AAL?$AAA?$AAS?$AAS?$AAE?$AAS?$AA_?$AAR?$AAO?$AAO?$AAT?$AA?$AA@ 00454854     main.obj
 0002:00007878       ??_C@_19OFICIBHH@?$AAH?$AAK?$AAC?$AAC?$AA?$AA@ 00454878     main.obj
 0002:00007884       ??_C@_19GFFAIJHG@?$AAH?$AAK?$AAD?$AAD?$AA?$AA@ 00454884     main.obj
 0002:00007890       ??_C@_19PNBHMJPL@?$AAH?$AAK?$AAP?$AAD?$AA?$AA@ 00454890     main.obj
 0002:0000789c       ??_C@_17PJOJPMPB@?$AAH?$AAK?$AAU?$AA?$AA@ 0045489c     main.obj
 0002:000078a4       ??_C@_19PEALEEJB@?$AAH?$AAK?$AAL?$AAM?$AA?$AA@ 004548a4     main.obj
 0002:000078b0       ??_C@_19JAPAIJDE@?$AAH?$AAK?$AAC?$AAU?$AA?$AA@ 004548b0     main.obj
 0002:000078bc       ??_C@_19NCHLBIN@?$AAH?$AAK?$AAC?$AAR?$AA?$AA@ 004548bc     main.obj
 0002:000078c8       ??_C@_1BK@BIGILECK@?$AAA?$AAd?$AAv?$AAa?$AAp?$AAi?$AA3?$AA2?$AA?4?$AAd?$AAl?$AAl?$AA?$AA@ 004548c8     main.obj
 0002:000078e4       ??_C@_0BA@LILAPHGE@RegDeleteKeyExW?$AA@ 004548e4     main.obj
 0002:000078f8       ?map@?1??HKeyFromString@CRegParser@ATL@@KAPAUHKEY__@@PA_W@Z@4QBUkeymap@?1??123@KAPAU4@0@Z@B 004548f8     main.obj
 0002:00007968       ??_C@_1EA@NHKLICFA@?$AAH?$AAK?$AAC?$AAU?$AA?$AN?$AA?6?$AA?$HL?$AA?7?$AAS?$AAo?$AAf?$AAt?$AAw?$AAa?$AAr?$AAe?$AA?$AN?$AA?6?$AA?7?$AA?$HL?$AA?$AN?$AA?6?$AA?7?$AA?7?$AAC?$AAl?$AAa?$AAs?$AAs?$AAe?$AAs?$AA?$AA@ 00454968     main.obj
 0002:000079a8       ??_C@_1BE@LJOLIMEM@?$AA?$AN?$AA?6?$AA?7?$AA?$HN?$AA?$AN?$AA?6?$AA?$HN?$AA?$AN?$AA?6?$AA?$AA@ 004549a8     main.obj
 0002:000079bc       ??_C@_1O@MNLDABAF@?$AAM?$AAo?$AAd?$AAu?$AAl?$AAe?$AA?$AA@ 004549bc     main.obj
 0002:000079cc       ??_C@_1BG@JBACFMF@?$AAM?$AAo?$AAd?$AAu?$AAl?$AAe?$AA_?$AAR?$AAa?$AAw?$AA?$AA@ 004549cc     main.obj
 0002:000079e4       ??_C@_1BC@KAILKFFG@?$AAR?$AAE?$AAG?$AAI?$AAS?$AAT?$AAR?$AAY?$AA?$AA@ 004549e4     main.obj
 0002:000079f8       ??_C@_1BA@KDMGPDJH@?$AAu?$AAn?$AAk?$AAn?$AAo?$AAw?$AAn?$AA?$AA@ 004549f8     main.obj
 0002:00007a08       ??_C@_1EI@DFGJONLO@?$AAE?$AAx?$AAc?$AAe?$AAp?$AAt?$AAi?$AAo?$AAn?$AA?$CB?$AA?5?$AAP?$AAl?$AAe?$AAa?$AAs?$AAe?$AA?5?$AAr?$AAe?$AAp?$AAo?$AAr?$AAt?$AA?5?$AAi?$AAt?$AA?$CB?$AA?5?$AAO?$AAS?$AA?3@ 00454a08     main.obj
 0002:00007a50       ??_C@_1BAK@GFEPGJJJ@?$AAE?$AAx?$AAc?$AAe?$AAp?$AAt?$AAi?$AAo?$AAn?$AAC?$AAo?$AAd?$AAe?$AA?5?$AA?$CF?$AA0?$AA8?$AAX?$AA?$AN?$AA?6?$AAE?$AAx?$AAc?$AAe?$AAp?$AAt?$AAi?$AAo?$AAn?$AAF?$AAl?$AAa@ 00454a50     main.obj
 0002:00007b60       ??_C@_1LC@JMICDIHL@?$AAe?$AAa?$AAx?$AA?$DN?$AA0?$AAx?$AA?$CF?$AAp?$AA?0?$AA?5?$AAe?$AAb?$AAx?$AA?$DN?$AA0?$AAx?$AA?$CF?$AAp?$AA?0?$AA?5?$AAe?$AAd?$AAx?$AA?$DN?$AA0?$AAx?$AA?$CF?$AAp?$AA?0?$AA?5?$AAe?$AAc@ 00454b60     main.obj
 0002:00007c14       ??_C@_1M@PPPPCDEP@?$AAA?$AAP?$AAP?$AAI?$AAD?$AA?$AA@ 00454c14     main.obj
 0002:00007c24       ??_7CComModule@ATL@@6B@    00454c24     main.obj
 0002:00007c50       ??_7CRegObject@ATL@@6B@    00454c50     main.obj
 0002:00007c6c       ??_7CMessageLoop@WTL@@6B@  00454c6c     main.obj
 0002:00007c78       ??_7CAppModule@WTL@@6B@    00454c78     main.obj
 0002:00007ca0       __GUID_00000146_0000_0000_c000_000000000046 00454ca0     main.obj
 0002:00007cb0       ?theMap@?1??GetDlgResizeMap@MainGui@@SAPBU_AtlDlgResizeMap@?$CDialogResize@VMainGui@@@WTL@@XZ@4QBU345@B 00454cb0     MainGui.obj
 0002:00007d80       ??_C@_1BO@LHCMKFAI@?$AA?$CF?$AA0?$AA4?$AAd?$AA?5?$AA?9?$AA?5?$AA?$CF?$AAs?$AA?5?$AA?9?$AA?5?$AA?$CF?$AAs?$AA?$AA@ 00454d80     MainGui.obj
 0002:00007da0       ??_C@_1DC@PBMNCDDD@?$AA?9?$AA?$DO?$AA?$DO?$AA?$DO?$AA?5?$AAM?$AAo?$AAd?$AAu?$AAl?$AAe?$AA?5?$AA?$CF?$AAs?$AA?5?$AAs?$AAe?$AAl?$AAe?$AAc?$AAt?$AAe?$AAd?$AA?4?$AA?$AA@ 00454da0     MainGui.obj
 0002:00007dd8       ??_C@_1FI@BNOFBONG@?$AAI?$AAm?$AAa?$AAg?$AAe?$AAb?$AAa?$AAs?$AAe?$AA?3?$AA?5?$AA?$CF?$AA0?$AA8?$AAX?$AA?5?$AAS?$AAi?$AAz?$AAe?$AA?3?$AA?5?$AA?$CF?$AA0?$AA8?$AAX?$AA?5?$AAE?$AAn?$AAt?$AAr?$AAy@ 00454dd8     MainGui.obj
 0002:00007e30       ??_C@_1O@FLFGJCGH@?$AAS?$AAc?$AAy?$AAl?$AAl?$AAa?$AA?$AA@ 00454e30     MainGui.obj
 0002:00007e40       ??_C@_1GI@CAIFHGCB@?$AAO?$AAp?$AAe?$AAr?$AAa?$AAt?$AAi?$AAn?$AAg?$AA?5?$AAS?$AAy?$AAs?$AAt?$AAe?$AAm?$AA?5?$AAi?$AAs?$AA?5?$AAn?$AAo?$AAt?$AA?5?$AAs?$AAu?$AAp?$AAp?$AAo?$AAr?$AAt?$AAe@ 00454e40     MainGui.obj
 0002:00007ea8       ??_C@_1BI@NIHBLACF@?$AAI?$AAn?$AAf?$AAo?$AAr?$AAm?$AAa?$AAt?$AAi?$AAo?$AAn?$AA?$AA@ 00454ea8     MainGui.obj
 0002:00007ec0       ??_C@_1BBI@BKMHJPIK@?$AAP?$AAr?$AAo?$AAc?$AAe?$AAs?$AAs?$AA?5?$AAi?$AAs?$AA?5?$AAs?$AAu?$AAs?$AAp?$AAe?$AAn?$AAd?$AAe?$AAd?$AA?4?$AA?5?$AAD?$AAo?$AA?5?$AAy?$AAo?$AAu?$AA?5?$AAw?$AAa?$AAn@ 00454ec0     MainGui.obj
 0002:00007fd8       ??_C@_1BK@IMEIHDKC@?$AA?7?$AAI?$AAm?$AAp?$AAo?$AAr?$AAt?$AAs?$AA?3?$AA?5?$AA?$CF?$AAu?$AA?$AA@ 00454fd8     MainGui.obj
 0002:00007ff4       ??_C@_1BK@EHFDNBMP@?$AA?7?$AAI?$AAn?$AAv?$AAa?$AAl?$AAi?$AAd?$AA?3?$AA?5?$AA?$CF?$AAu?$AA?$AA@ 00454ff4     MainGui.obj
 0002:00008010       ??_C@_1CC@BKDFKEAF@?$AA?7?$AAI?$AAm?$AAa?$AAg?$AAe?$AAb?$AAa?$AAs?$AAe?$AA?3?$AA?5?$AA?$CF?$AA0?$AA8?$AAX?$AA?$AA@ 00455010     MainGui.obj
 0002:00008034       ??_C@_1DE@PJJNKLE@?$AAC?$AAa?$AAn?$AA?8?$AAt?$AA?5?$AAr?$AAe?$AAa?$AAd?$AA?5?$AAm?$AAe?$AAm?$AAo?$AAr?$AAy?$AA?5?$AAa?$AAt?$AA?5?$AA?$CF?$AA0?$AA8?$AAX?$AA?$AA@ 00455034     MainGui.obj
 0002:00008068       ??_C@_1BA@KPPLMDID@?$AAF?$AAa?$AAi?$AAl?$AAu?$AAr?$AAe?$AA?$AA@ 00455068     MainGui.obj
 0002:00008078       ??_C@_1BK@HNNFFOCN@?$AAA?$AAn?$AAa?$AAl?$AAy?$AAz?$AAi?$AAn?$AAg?$AA?5?$AA?$CF?$AAs?$AA?$AA@ 00455078     MainGui.obj
 0002:00008098       ??_C@_1EG@HHILMNLI@?$AAE?$AAr?$AAr?$AAo?$AAr?$AA?3?$AA?5?$AAC?$AAa?$AAn?$AAn?$AAo?$AAt?$AA?5?$AAo?$AAp?$AAe?$AAn?$AA?5?$AAp?$AAr?$AAo?$AAc?$AAe?$AAs?$AAs?$AA?5?$AAh?$AAa?$AAn?$AAd?$AAl@ 00455098     MainGui.obj
 0002:000080e0       ??_C@_1CM@HKPJPOPJ@?$AAL?$AAo?$AAa?$AAd?$AAi?$AAn?$AAg?$AA?5?$AAm?$AAo?$AAd?$AAu?$AAl?$AAe?$AAs?$AA?5?$AAd?$AAo?$AAn?$AAe?$AA?4?$AA?$AA@ 004550e0     MainGui.obj
 0002:0000810c       ??_C@_1DG@BEBJFPCE@?$AAI?$AAm?$AAa?$AAg?$AAe?$AAb?$AAa?$AAs?$AAe?$AA?3?$AA?5?$AA?$CF?$AA0?$AA8?$AAX?$AA?5?$AAS?$AAi?$AAz?$AAe?$AA?3?$AA?5?$AA?$CF?$AA0?$AA8?$AAX?$AA?$AA@ 0045510c     MainGui.obj
 0002:00008144       ??_C@_1DI@IFDAEHI@?$AAL?$AAo?$AAa?$AAd?$AAi?$AAn?$AAg?$AA?5?$AAt?$AAr?$AAe?$AAe?$AA?5?$AAf?$AAi?$AAl?$AAe?$AA?5?$AAf?$AAa?$AAi?$AAl?$AAe?$AAd?$AA?5?$AA?$CF?$AAs?$AA?$AA@ 00455144     MainGui.obj
 0002:0000817c       ??_C@_1DE@PEELJCMD@?$AAL?$AAo?$AAa?$AAd?$AAi?$AAn?$AAg?$AA?5?$AAt?$AAr?$AAe?$AAe?$AA?5?$AAf?$AAi?$AAl?$AAe?$AA?5?$AAf?$AAa?$AAi?$AAl?$AAe?$AAd?$AA?4?$AA?$AA@ 0045517c     MainGui.obj
 0002:000081b0       ??_C@_1CI@BCMCIJNM@?$AAL?$AAo?$AAa?$AAd?$AAe?$AAd?$AA?5?$AAt?$AAr?$AAe?$AAe?$AA?5?$AAf?$AAi?$AAl?$AAe?$AA?5?$AA?$CF?$AAs?$AA?$AA@ 004551b0     MainGui.obj
 0002:000081d8       ??_C@_1BK@FIMEOEIE@?$AA?9?$AA?$DO?$AA?5?$AAO?$AAE?$AAP?$AA?3?$AA?5?$AA?$CF?$AA0?$AA8?$AAX?$AA?$AA@ 004551d8     MainGui.obj
 0002:000081f4       ??_C@_1CM@BODBHKPC@?$AA?9?$AA?$DO?$AA?5?$AAI?$AAA?$AAT?$AA?3?$AA?5?$AA?$CF?$AA0?$AA8?$AAX?$AA?5?$AAS?$AAi?$AAz?$AAe?$AA?3?$AA?5?$AA?$CF?$AAX?$AA?$AA@ 004551f4     MainGui.obj
 0002:00008220       ??_C@_17CAPCPOIM@?$AAx?$AAm?$AAl?$AA?$AA@ 00455220     MainGui.obj
 0002:00008228       ??_C@_1DG@KECPDANK@?$AAS?$AAa?$AAv?$AAi?$AAn?$AAg?$AA?5?$AAt?$AAr?$AAe?$AAe?$AA?5?$AAf?$AAi?$AAl?$AAe?$AA?5?$AAf?$AAa?$AAi?$AAl?$AAe?$AAd?$AA?5?$AA?$CF?$AAs?$AA?$AA@ 00455228     MainGui.obj
 0002:00008260       ??_C@_1DC@JBIJHDFK@?$AAS?$AAa?$AAv?$AAi?$AAn?$AAg?$AA?5?$AAt?$AAr?$AAe?$AAe?$AA?5?$AAf?$AAi?$AAl?$AAe?$AA?5?$AAf?$AAa?$AAi?$AAl?$AAe?$AAd?$AA?4?$AA?$AA@ 00455260     MainGui.obj
 0002:00008294       ??_C@_1CG@CJJOEBGA@?$AAS?$AAa?$AAv?$AAe?$AAd?$AA?5?$AAt?$AAr?$AAe?$AAe?$AA?5?$AAf?$AAi?$AAl?$AAe?$AA?5?$AA?$CF?$AAs?$AA?$AA@ 00455294     MainGui.obj
 0002:000082c0       ??_C@_1GM@JOLALHIA@?$AAI?$AAA?$AAT?$AA?5?$AAS?$AAe?$AAa?$AAr?$AAc?$AAh?$AA?5?$AAA?$AAd?$AAv?$AA?3?$AA?5?$AAI?$AAA?$AAT?$AA?5?$AAV?$AAA?$AA?5?$AA?$CF?$AA0?$AA8?$AAX?$AA?5?$AAR?$AAV?$AAA?$AA?5@ 004552c0     MainGui.obj
 0002:00008330       ??_C@_1FG@FIJKCENN@?$AAI?$AAA?$AAT?$AA?5?$AAS?$AAe?$AAa?$AAr?$AAc?$AAh?$AA?5?$AAA?$AAd?$AAv?$AA?3?$AA?5?$AAI?$AAA?$AAT?$AA?5?$AAn?$AAo?$AAt?$AA?5?$AAf?$AAo?$AAu?$AAn?$AAd?$AA?5?$AAa?$AAt@ 00455330     MainGui.obj
 0002:00008388       ??_C@_1GM@CDDGMGLO@?$AAI?$AAA?$AAT?$AA?5?$AAS?$AAe?$AAa?$AAr?$AAc?$AAh?$AA?5?$AAN?$AAo?$AAr?$AA?3?$AA?5?$AAI?$AAA?$AAT?$AA?5?$AAV?$AAA?$AA?5?$AA?$CF?$AA0?$AA8?$AAX?$AA?5?$AAR?$AAV?$AAA?$AA?5@ 00455388     MainGui.obj
 0002:000083f8       ??_C@_1FG@MNAFJBLC@?$AAI?$AAA?$AAT?$AA?5?$AAS?$AAe?$AAa?$AAr?$AAc?$AAh?$AA?5?$AAN?$AAo?$AAr?$AA?3?$AA?5?$AAI?$AAA?$AAT?$AA?5?$AAn?$AAo?$AAt?$AA?5?$AAf?$AAo?$AAu?$AAn?$AAd?$AA?5?$AAa?$AAt@ 004553f8     MainGui.obj
 0002:00008450       ??_C@_1MM@MPLOAHIK@?$AAR?$AAe?$AAs?$AAu?$AAl?$AAt?$AA?5?$AAo?$AAf?$AA?5?$AAa?$AAd?$AAv?$AAa?$AAn?$AAc?$AAe?$AAd?$AA?5?$AAa?$AAn?$AAd?$AA?5?$AAn?$AAo?$AAr?$AAm?$AAa?$AAl?$AA?5?$AAs?$AAe@ 00455450     MainGui.obj
 0002:00008520       ??_C@_1IO@PNDCIJOE@?$AAD?$AAI?$AAR?$AAE?$AAC?$AAT?$AA?5?$AAI?$AAM?$AAP?$AAO?$AAR?$AAT?$AAS?$AA?5?$AA?9?$AA?5?$AAF?$AAo?$AAu?$AAn?$AAd?$AA?5?$AA?$CF?$AAd?$AA?5?$AAp?$AAo?$AAs?$AAs?$AAi?$AAb@ 00455520     MainGui.obj
 0002:000085b0       ??_C@_1GI@JPHKLELA@?$AAD?$AAI?$AAR?$AAE?$AAC?$AAT?$AA?5?$AAI?$AAM?$AAP?$AAO?$AAR?$AAT?$AAS?$AA?5?$AA?9?$AA?5?$AAF?$AAo?$AAu?$AAn?$AAd?$AA?5?$AA?$CF?$AAd?$AA?5?$AAa?$AAd?$AAd?$AAi?$AAt?$AAi@ 004555b0     MainGui.obj
 0002:00008618       ??_C@_1HE@DHBPOKCL@?$AAD?$AAI?$AAR?$AAE?$AAC?$AAT?$AA?5?$AAI?$AAM?$AAP?$AAO?$AAR?$AAT?$AAS?$AA?5?$AA?9?$AA?5?$AAO?$AAl?$AAd?$AA?5?$AAI?$AAA?$AAT?$AA?5?$AAs?$AAi?$AAz?$AAe?$AA?5?$AA0?$AAx@ 00455618     MainGui.obj
 0002:00008690       ??_C@_1BLC@FENHMJOD@?$AAD?$AAi?$AAr?$AAe?$AAc?$AAt?$AA?5?$AAI?$AAm?$AAp?$AAo?$AAr?$AAt?$AAs?$AA?5?$AAf?$AAo?$AAu?$AAn?$AAd?$AA?4?$AA?5?$AAI?$AA?5?$AAc?$AAa?$AAn?$AA?5?$AAp?$AAa?$AAt?$AAc@ 00455690     MainGui.obj
 0002:00008848       ??_C@_1FM@OJJJKNLJ@?$AAD?$AAI?$AAR?$AAE?$AAC?$AAT?$AA?5?$AAI?$AAM?$AAP?$AAO?$AAR?$AAT?$AAS?$AA?5?$AA?9?$AA?5?$AAP?$AAa?$AAt?$AAc?$AAh?$AAe?$AAd?$AA?$CB?$AA?5?$AAP?$AAl?$AAe?$AAa?$AAs?$AAe@ 00455848     MainGui.obj
 0002:000088a8       ??_C@_1HI@NFMNPJGO@?$AAW?$AAA?$AAR?$AAN?$AAI?$AAN?$AAG?$AA?$CB?$AA?5?$AAI?$AAA?$AAT?$AA?5?$AAi?$AAs?$AA?5?$AAn?$AAo?$AAt?$AA?5?$AAi?$AAn?$AAs?$AAi?$AAd?$AAe?$AA?5?$AAt?$AAh?$AAe?$AA?5?$AAP@ 004558a8     MainGui.obj
 0002:00008920       ??_C@_17LBOLAHJL@?$AAt?$AAx?$AAt?$AA?$AA@ 00455920     MainGui.obj
 0002:00008928       ??_C@_1BO@GPGEPOBL@?$AAS?$AAc?$AAy?$AAl?$AAl?$AAa?$AA?5?$AAP?$AAl?$AAu?$AAg?$AAi?$AAn?$AAs?$AA?$AA@ 00455928     MainGui.obj
 0002:00008948       ??_C@_1BO@PAFDGOKI@?$AAI?$AAm?$AAp?$AAR?$AAE?$AAC?$AA?5?$AAP?$AAl?$AAu?$AAg?$AAi?$AAn?$AAs?$AA?$AA@ 00455948     MainGui.obj
 0002:00008968       ??_C@_17EAEGCEML@?$AAm?$AAe?$AAm?$AA?$AA@ 00455968     MainGui.obj
 0002:00008970       ??_C@_1CK@DJCCIADC@?$AAM?$AAe?$AAm?$AAo?$AAr?$AAy?$AA?5?$AAd?$AAu?$AAm?$AAp?$AA?5?$AAs?$AAa?$AAv?$AAe?$AAd?$AA?5?$AA?$CF?$AAs?$AA?$AA@ 00455970     MainGui.obj
 0002:000089a0       ??_C@_1FA@IHLNPIPN@?$AAE?$AAr?$AAr?$AAo?$AAr?$AA?$CB?$AA?5?$AAC?$AAa?$AAn?$AAn?$AAo?$AAt?$AA?5?$AAw?$AAr?$AAi?$AAt?$AAe?$AA?5?$AAm?$AAe?$AAm?$AAo?$AAr?$AAy?$AA?5?$AAd?$AAu?$AAm?$AAp?$AA?5@ 004559a0     MainGui.obj
 0002:000089f0       ??_C@_17MALKAJEN@?$AAd?$AAl?$AAl?$AA?$AA@ 004559f0     MainGui.obj
 0002:000089f8       ??_C@_17OJFPAGNE@?$AAe?$AAx?$AAe?$AA?$AA@ 004559f8     MainGui.obj
 0002:00008a00       ??_C@_1CA@FCBBCFFF@?$AAD?$AAu?$AAm?$AAp?$AA?5?$AAs?$AAu?$AAc?$AAc?$AAe?$AAs?$AAs?$AA?5?$AA?$CF?$AAs?$AA?$AA@ 00455a00     MainGui.obj
 0002:00008a20       ??_C@_1DE@BPJLMFPN@?$AAE?$AAr?$AAr?$AAo?$AAr?$AA?3?$AA?5?$AAC?$AAa?$AAn?$AAn?$AAo?$AAt?$AA?5?$AAd?$AAu?$AAm?$AAp?$AA?5?$AAi?$AAm?$AAa?$AAg?$AAe?$AA?4?$AA?$AA@ 00455a20     MainGui.obj
 0002:00008a54       ??_C@_1CG@LBFMBDMG@?$AAC?$AAa?$AAn?$AAn?$AAo?$AAt?$AA?5?$AAd?$AAu?$AAm?$AAp?$AA?5?$AAi?$AAm?$AAa?$AAg?$AAe?$AA?4?$AA?$AA@ 00455a54     MainGui.obj
 0002:00008a80       ??_C@_1KM@JFFPAEPN@?$AAE?$AAr?$AAr?$AAo?$AAr?$AA?3?$AA?5?$AAI?$AAn?$AAv?$AAa?$AAl?$AAi?$AAd?$AA?5?$AAP?$AAE?$AA?5?$AAf?$AAi?$AAl?$AAe?$AA?5?$AAo?$AAr?$AA?5?$AAi?$AAn?$AAv?$AAa?$AAl?$AAi@ 00455a80     MainGui.obj
 0002:00008b2c       ??_C@_1DO@MFGNMGKB@?$AAC?$AAr?$AAe?$AAa?$AAt?$AAi?$AAn?$AAg?$AA?5?$AAb?$AAa?$AAc?$AAk?$AAu?$AAp?$AA?5?$AAf?$AAi?$AAl?$AAe?$AA?5?$AAf?$AAa?$AAi?$AAl?$AAe?$AAd?$AA?5?$AA?$CF?$AAs?$AA?$AA@ 00455b2c     MainGui.obj
 0002:00008b6c       ??_C@_1DO@FADNJAOE@?$AAT?$AAh?$AAi?$AAs?$AA?5?$AAi?$AAs?$AA?5?$AAn?$AAo?$AAt?$AA?5?$AAa?$AA?5?$AAv?$AAa?$AAl?$AAi?$AAd?$AA?5?$AAP?$AAE?$AA?5?$AAf?$AAi?$AAl?$AAe?$AA?5?$AA?$CF?$AAs?$AA?$AA@ 00455b6c     MainGui.obj
 0002:00008bac       ??_C@_1CK@FPKNNKLK@?$AAN?$AAo?$AAt?$AA?5?$AAa?$AA?5?$AAv?$AAa?$AAl?$AAi?$AAd?$AA?5?$AAP?$AAE?$AA?5?$AAf?$AAi?$AAl?$AAe?$AA?4?$AA?$AA@ 00455bac     MainGui.obj
 0002:00008bd8       ??_C@_1DM@KLKELLCG@?$AAG?$AAe?$AAn?$AAe?$AAr?$AAa?$AAt?$AAi?$AAn?$AAg?$AA?5?$AAP?$AAE?$AA?5?$AAh?$AAe?$AAa?$AAd?$AAe?$AAr?$AA?5?$AAc?$AAh?$AAe?$AAc?$AAk?$AAs?$AAu?$AAm?$AA?$AA@ 00455bd8     MainGui.obj
 0002:00008c18       ??_C@_1EM@IDHFDLCD@?$AAG?$AAe?$AAn?$AAe?$AAr?$AAa?$AAt?$AAi?$AAn?$AAg?$AA?5?$AAP?$AAE?$AA?5?$AAh?$AAe?$AAa?$AAd?$AAe?$AAr?$AA?5?$AAc?$AAh?$AAe?$AAc?$AAk?$AAs?$AAu?$AAm?$AA?5?$AAF?$AAA@ 00455c18     MainGui.obj
 0002:00008c64       ??_C@_1CG@OALHDGHC@?$AAR?$AAe?$AAb?$AAu?$AAi?$AAl?$AAd?$AA?5?$AAs?$AAu?$AAc?$AAc?$AAe?$AAs?$AAs?$AA?5?$AA?$CF?$AAs?$AA?$AA@ 00455c64     MainGui.obj
 0002:00008c90       ??_C@_1GK@ECFCKIFP@?$AA?9?$AA?$DO?$AA?5?$AAO?$AAl?$AAd?$AA?5?$AAf?$AAi?$AAl?$AAe?$AA?5?$AAs?$AAi?$AAz?$AAe?$AA?5?$AA0?$AAx?$AA?$CF?$AA0?$AA8?$AAX?$AA?5?$AAn?$AAe?$AAw?$AA?5?$AAf?$AAi?$AAl?$AAe@ 00455c90     MainGui.obj
 0002:00008d00       ??_C@_1EI@NHIFFHJ@?$AAR?$AAe?$AAb?$AAu?$AAi?$AAl?$AAd?$AA?5?$AAf?$AAa?$AAi?$AAl?$AAe?$AAd?$AA?0?$AA?5?$AAc?$AAa?$AAn?$AAn?$AAo?$AAt?$AA?5?$AAs?$AAa?$AAv?$AAe?$AA?5?$AAf?$AAi?$AAl?$AAe@ 00455d00     MainGui.obj
 0002:00008d48       ??_C@_1EE@DJBGJMKC@?$AAR?$AAe?$AAb?$AAu?$AAi?$AAl?$AAd?$AA?5?$AAf?$AAa?$AAi?$AAl?$AAe?$AAd?$AA?4?$AA?5?$AAC?$AAa?$AAn?$AAn?$AAo?$AAt?$AA?5?$AAs?$AAa?$AAv?$AAe?$AA?5?$AAf?$AAi?$AAl?$AAe@ 00455d48     MainGui.obj
 0002:00008d90       ??_C@_1EI@CKCKCCPG@?$AAR?$AAe?$AAb?$AAu?$AAi?$AAl?$AAd?$AA?5?$AAf?$AAa?$AAi?$AAl?$AAe?$AAd?$AA?0?$AA?5?$AAc?$AAa?$AAn?$AAn?$AAo?$AAt?$AA?5?$AAr?$AAe?$AAa?$AAd?$AA?5?$AAf?$AAi?$AAl?$AAe@ 00455d90     MainGui.obj
 0002:00008dd8       ??_C@_1EE@BDGNENG@?$AAR?$AAe?$AAb?$AAu?$AAi?$AAl?$AAd?$AA?5?$AAf?$AAa?$AAi?$AAl?$AAe?$AAd?$AA?4?$AA?5?$AAC?$AAa?$AAn?$AAn?$AAo?$AAt?$AA?5?$AAr?$AAe?$AAa?$AAd?$AA?5?$AAf?$AAi?$AAl?$AAe@ 00455dd8     MainGui.obj
 0002:00008e1c       ??_C@_1CG@MKNIHKKJ@?$AAN?$AAo?$AAt?$AAh?$AAi?$AAn?$AAg?$AA?5?$AAt?$AAo?$AA?5?$AAr?$AAe?$AAb?$AAu?$AAi?$AAl?$AAd?$AA?$AA@ 00455e1c     MainGui.obj
 0002:00008e44       ??_C@_19LAAKIGID@?$AA_?$AAS?$AAC?$AAY?$AA?$AA@ 00455e44     MainGui.obj
 0002:00008e50       ??_C@_1DE@HKBGINIB@?$AAI?$AAm?$AAp?$AAo?$AAr?$AAt?$AA?5?$AAR?$AAe?$AAb?$AAu?$AAi?$AAl?$AAd?$AA?5?$AAs?$AAu?$AAc?$AAc?$AAe?$AAs?$AAs?$AA?5?$AA?$CF?$AAs?$AA?$AA@ 00455e50     MainGui.obj
 0002:00008e84       ??_C@_1DC@ODMEEHHM@?$AAI?$AAm?$AAp?$AAo?$AAr?$AAt?$AA?5?$AAR?$AAe?$AAb?$AAu?$AAi?$AAl?$AAd?$AA?5?$AAf?$AAa?$AAi?$AAl?$AAe?$AAd?$AA?5?$AA?$CF?$AAs?$AA?$AA@ 00455e84     MainGui.obj
 0002:00008eb8       ??_C@_1CM@CJJANMBP@?$AAI?$AAm?$AAp?$AAo?$AAr?$AAt?$AA?5?$AAR?$AAe?$AAb?$AAu?$AAi?$AAl?$AAd?$AA?5?$AAf?$AAa?$AAi?$AAl?$AAe?$AAd?$AA?$AA@ 00455eb8     MainGui.obj
 0002:00008ee8       ??_C@_1EA@PFBDLALF@?$AAD?$AAL?$AAL?$AA?5?$AAu?$AAn?$AAl?$AAo?$AAa?$AAd?$AAi?$AAn?$AAg?$AA?5?$AAf?$AAa?$AAi?$AAl?$AAe?$AAd?$AA?0?$AA?5?$AAt?$AAa?$AAr?$AAg?$AAe?$AAt?$AA?5?$AA?$CF?$AAs?$AA?$AA@ 00455ee8     MainGui.obj
 0002:00008f28       ??_C@_1FA@FCJODEDK@?$AAD?$AAL?$AAL?$AA?5?$AAI?$AAn?$AAj?$AAe?$AAc?$AAt?$AAi?$AAo?$AAn?$AA?5?$AAw?$AAa?$AAs?$AA?5?$AAs?$AAu?$AAc?$AAc?$AAe?$AAs?$AAs?$AAf?$AAu?$AAl?$AA?0?$AA?5?$AAt?$AAa@ 00455f28     MainGui.obj
 0002:00008f78       ??_C@_1EA@HBNJCDBK@?$AAD?$AAL?$AAL?$AA?5?$AAI?$AAn?$AAj?$AAe?$AAc?$AAt?$AAi?$AAo?$AAn?$AA?5?$AAf?$AAa?$AAi?$AAl?$AAe?$AAd?$AA?0?$AA?5?$AAt?$AAa?$AAr?$AAg?$AAe?$AAt?$AA?5?$AA?$CF?$AAs?$AA?$AA@ 00455f78     MainGui.obj
 0002:00008fb8       ??_C@_1DO@KGKDLMPM@?$AAE?$AAr?$AAr?$AAo?$AAr?$AA?3?$AA?5?$AAC?$AAa?$AAn?$AAn?$AAo?$AAt?$AA?5?$AAs?$AAu?$AAs?$AAp?$AAe?$AAn?$AAd?$AA?5?$AAp?$AAr?$AAo?$AAc?$AAe?$AAs?$AAs?$AA?4?$AA?$AA@ 00455fb8     MainGui.obj
 0002:00008ff8       ??_C@_1GO@DKOHNIJN@?$AAS?$AAu?$AAs?$AAp?$AAe?$AAn?$AAd?$AAi?$AAn?$AAg?$AA?5?$AAp?$AAr?$AAo?$AAc?$AAe?$AAs?$AAs?$AA?5?$AAs?$AAu?$AAc?$AAc?$AAe?$AAs?$AAs?$AAf?$AAu?$AAl?$AA?0?$AA?5?$AAp@ 00455ff8     MainGui.obj
 0002:00009068       ??_C@_1FM@DEPOLAOP@?$AAI?$AAA?$AAT?$AA?5?$AAf?$AAo?$AAu?$AAn?$AAd?$AA?3?$AA?$AN?$AA?6?$AA?$AN?$AA?6?$AAS?$AAt?$AAa?$AAr?$AAt?$AA?3?$AA?5?$AA?$CF?$AA0?$AA8?$AAX?$AA?$AN?$AA?6?$AAS?$AAi?$AAz?$AAe?$AA?3@ 00456068     MainGui.obj
 0002:000090c4       ??_C@_1BE@DMDEBELF@?$AAI?$AAA?$AAT?$AA?5?$AAf?$AAo?$AAu?$AAn?$AAd?$AA?$AA@ 004560c4     MainGui.obj
 0002:000090d8       ??_C@_1BE@EEJAKAH@?$AA_?$AAd?$AAu?$AAm?$AAp?$AA?4?$AAd?$AAl?$AAl?$AA?$AA@ 004560d8     MainGui.obj
 0002:000090ec       ??_C@_1BE@CNKMAFJO@?$AA_?$AAd?$AAu?$AAm?$AAp?$AA?4?$AAe?$AAx?$AAe?$AA?$AA@ 004560ec     MainGui.obj
 0002:00009100       ??_C@_0BM@NMJKDPPO@invalid?5vector?$DMT?$DO?5subscript?$AA@ 00456100     MainGui.obj
 0002:0000911c       ??_C@_1CG@JPMAJDKP@?$AAm?$AAs?$AAc?$AAt?$AAl?$AAs?$AA_?$AAs?$AAt?$AAa?$AAt?$AAu?$AAs?$AAb?$AAa?$AAr?$AA3?$AA2?$AA?$AA@ 0045611c     MainGui.obj
 0002:00009148       ??_7CMessageFilter@WTL@@6B@ 00456148     MainGui.obj
 0002:00009150       ??_7CMultiSelectTreeViewCtrl@@6B@ 00456150     MainGui.obj
 0002:00009164       ??_7MainGui@@6B?$CDialogImpl@VMainGui@@VCWindow@ATL@@@ATL@@@ 00456164     MainGui.obj
 0002:00009178       ??_7MainGui@@6BCMessageFilter@WTL@@@ 00456178     MainGui.obj
 0002:00009180       ??_7AboutGui@@6B@          00456180     MainGui.obj
 0002:00009194       ??_7DonateGui@@6B@         00456194     MainGui.obj
 0002:000091a8       ??_7OptionsGui@@6B@        004561a8     MainGui.obj
 0002:000091b8       ??_C@_0BB@KGGDNLNO@NtCreateThreadEx?$AA@ 004561b8     NativeWinApi.obj
 0002:000091cc       ??_C@_0BC@MDCBEKCC@NtDuplicateObject?$AA@ 004561cc     NativeWinApi.obj
 0002:000091e0       ??_C@_0O@JGCNKEPA@NtOpenProcess?$AA@ 004561e0     NativeWinApi.obj
 0002:000091f0       ??_C@_0N@EJDHLIH@NtOpenThread?$AA@ 004561f0     NativeWinApi.obj
 0002:00009200       ??_C@_0O@IFMDHOMC@NtQueryObject?$AA@ 00456200     NativeWinApi.obj
 0002:00009210       ??_C@_0BH@DLPGICA@NtQueryInformationFile?$AA@ 00456210     NativeWinApi.obj
 0002:00009228       ??_C@_0BK@EGDDIFMK@NtQueryInformationProcess?$AA@ 00456228     NativeWinApi.obj
 0002:00009244       ??_C@_0BJ@HKKELGGC@NtQueryInformationThread?$AA@ 00456244     NativeWinApi.obj
 0002:00009260       ??_C@_0BJ@NDLOPGCH@NtQuerySystemInformation?$AA@ 00456260     NativeWinApi.obj
 0002:0000927c       ??_C@_0BF@MJPACJIK@NtQueryVirtualMemory?$AA@ 0045627c     NativeWinApi.obj
 0002:00009294       ??_C@_0BA@PNNBPCAM@NtResumeProcess?$AA@ 00456294     NativeWinApi.obj
 0002:000092a4       ??_C@_0P@JDJEHDNH@NtResumeThread?$AA@ 004562a4     NativeWinApi.obj
 0002:000092b4       ??_C@_0BH@KPLDILJD@NtSetInformationThread?$AA@ 004562b4     NativeWinApi.obj
 0002:000092cc       ??_C@_0BB@ELOHAJKJ@NtSuspendProcess?$AA@ 004562cc     NativeWinApi.obj
 0002:000092e0       ??_C@_0BD@LGANCOHC@NtTerminateProcess?$AA@ 004562e0     NativeWinApi.obj
 0002:000092f4       ??_C@_0BJ@NAAOCCIC@NtOpenSymbolicLinkObject?$AA@ 004562f4     NativeWinApi.obj
 0002:00009310       ??_C@_0BK@FFOGOCND@NtQuerySymbolicLinkObject?$AA@ 00456310     NativeWinApi.obj
 0002:0000932c       ??_C@_0BG@NFNCIOML@RtlNtStatusToDosError?$AA@ 0045632c     NativeWinApi.obj
 0002:00009344       ??_C@_07EGJLEIEB@NtClose?$AA@ 00456344     NativeWinApi.obj
 0002:00009350       ?theMap@?1??GetDlgResizeMap@PickApiGui@@SAPBU_AtlDlgResizeMap@?$CDialogResize@VPickApiGui@@@WTL@@XZ@4QBU345@B 00456350     PickApiGui.obj
 0002:00009398       ??_C@_1M@FGGOMJIH@?$AA?$CD?$AA?$CF?$AA0?$AA4?$AAX?$AA?$AA@ 00456398     PickApiGui.obj
 0002:000093a8       ??_7PickApiGui@@6B@        004563a8     PickApiGui.obj
 0002:000093b8       ?theMap@?1??GetDlgResizeMap@PickDllGui@@SAPBU_AtlDlgResizeMap@?$CDialogResize@VPickDllGui@@@WTL@@XZ@4QBU345@B 004563b8     PickDllGui.obj
 0002:000093d8       ??_C@_1BE@OAIGADCK@?$AAI?$AAm?$AAa?$AAg?$AAe?$AAB?$AAa?$AAs?$AAe?$AA?$AA@ 004563d8     PickDllGui.obj
 0002:000093ec       ??_C@_1BE@NMAAKDIB@?$AAI?$AAm?$AAa?$AAg?$AAe?$AAS?$AAi?$AAz?$AAe?$AA?$AA@ 004563ec     PickDllGui.obj
 0002:00009400       ??_C@_19NHABCBNP@?$AAP?$AAa?$AAt?$AAh?$AA?$AA@ 00456400     PickDllGui.obj
 0002:00009410       ??_7PickDllGui@@6B@        00456410     PickDllGui.obj
 0002:00009420       ??_C@_0BC@PPICJDA@ScyllaPluginNameW?$AA@ 00456420     PluginLoader.obj
 0002:00009434       ??_C@_0BC@BDGAJMOH@ScyllaPluginNameA?$AA@ 00456434     PluginLoader.obj
 0002:00009448       ??_C@_05ILLBNNOP@Trace?$AA@ 00456448     PluginLoader.obj
 0002:00009450       ??_C@_19PAKAKPNB@?$AA?4?$AAb?$AAa?$AAk?$AA?$AA@ 00456450     ProcessAccessHelp.obj
 0002:0000945c       ??_C@_1CC@DMDJMJLM@?$AAS?$AAe?$AAD?$AAe?$AAb?$AAu?$AAg?$AAP?$AAr?$AAi?$AAv?$AAi?$AAl?$AAe?$AAg?$AAe?$AA?$AA@ 0045645c     ProcessLister.obj
 0002:00009480       ??_C@_1BK@FFELDFED@?$AAU?$AAn?$AAk?$AAn?$AAo?$AAw?$AAn?$AA?5?$AAp?$AAa?$AAt?$AAh?$AA?$AA@ 00456480     ProcessLister.obj
 0002:0000949c       ??_C@_1BG@NNINIFNH@?$AAS?$AAc?$AAy?$AAl?$AAl?$AAa?$AA?4?$AAi?$AAn?$AAi?$AA?$AA@ 0045649c     Scylla.obj
 0002:000094b8       ??_7ListboxLog@@6B@        004564b8     Scylla.obj
 0002:000094c8       ??_C@_0BE@HLKFLAJF@GetNativeSystemInfo?$AA@ 004564c8     SystemInformation.obj
 0002:000094dc       ??_C@_03HLLJOCDO@1?40?$AA@ 004564dc     TreeImportExport.obj
 0002:000094e0       ??_C@_06JJLAMBGK@target?$AA@ 004564e0     TreeImportExport.obj
 0002:000094e8       ??_C@_1FA@ICINJGBB@?$AAL?$AAo?$AAa?$AAd?$AA?5?$AAT?$AAr?$AAe?$AAe?$AA?5?$AA?3?$AA?3?$AA?5?$AAE?$AAr?$AAr?$AAo?$AAr?$AA?5?$AAp?$AAa?$AAr?$AAs?$AAi?$AAn?$AAg?$AA?5?$AAx?$AAm?$AAl?$AA?5?$AA?$CF@ 004564e8     TreeImportExport.obj
 0002:00009538       ??_C@_06BHCDDFL@oep_va?$AA@ 00456538     TreeImportExport.obj
 0002:00009540       ??_C@_06MLDOCLH@iat_va?$AA@ 00456540     TreeImportExport.obj
 0002:00009548       ??_C@_08KJDIGCGD@iat_size?$AA@ 00456548     TreeImportExport.obj
 0002:00009554       ??_C@_08BABJIOEM@filename?$AA@ 00456554     TreeImportExport.obj
 0002:00009560       ??_C@_15JJPIMNBO@?$AAr?$AAb?$AA?$AA@ 00456560     TreeImportExport.obj
 0002:00009568       ??_C@_15MJDFFMKN@?$AAw?$AAb?$AA?$AA@ 00456568     TreeImportExport.obj
 0002:00009570       ??_C@_06BIEEJMKO@module?$AA@ 00456570     TreeImportExport.obj
 0002:00009578       ??_C@_0BA@JPBBNJAM@first_thunk_rva?$AA@ 00456578     TreeImportExport.obj
 0002:00009588       ??_C@_0N@HMECECNC@import_valid?$AA@ 00456588     TreeImportExport.obj
 0002:00009598       ??_C@_04MEMAJGDJ@name?$AA@ 00456598     TreeImportExport.obj
 0002:000095a0       ??_C@_07LEACAOHP@ordinal?$AA@ 004565a0     TreeImportExport.obj
 0002:000095a8       ??_C@_04NPKLNGDP@hint?$AA@ 004565a8     TreeImportExport.obj
 0002:000095b0       ??_C@_07HPAMBIHD@suspect?$AA@ 004565b0     TreeImportExport.obj
 0002:000095b8       ??_C@_0P@GJBBLENC@import_invalid?$AA@ 004565b8     TreeImportExport.obj
 0002:000095c8       ??_C@_07LPOEONIJ@iat_rva?$AA@ 004565c8     TreeImportExport.obj
 0002:000095d0       ??_C@_0L@GHGKDCGG@address_va?$AA@ 004565d0     TreeImportExport.obj
 0002:000095dc       ??_C@_01HIHLOKLC@1?$AA@    004565dc     TreeImportExport.obj
 0002:000095e0       ??_C@_01GBGANLPD@0?$AA@    004565e0     TreeImportExport.obj
 0002:000095e4       ??_C@_04JIMNDDED@?$CF08X?$AA@ 004565e4     TreeImportExport.obj
 0002:000095ec       ??_C@_04JBNHMKCH@?$CF04X?$AA@ 004565ec     TreeImportExport.obj
 0002:000095f4       __real@4f800000            004565f4      CIL library: CIL module
 0002:000095f8       __real@40800000            004565f8      CIL library: CIL module
 0002:00009600       __load_config_used         00456600     LIBCMT:loadcfg.obj
 0002:00009648       ??_R4TiXmlBase@@6B@        00456648     tinyxml:tinyxml.obj
 0002:0000965c       ??_R4TiXmlAttribute@@6B@   0045665c     tinyxml:tinyxml.obj
 0002:00009670       ??_R3TiXmlAttribute@@8     00456670     tinyxml:tinyxml.obj
 0002:00009680       ??_R2TiXmlAttribute@@8     00456680     tinyxml:tinyxml.obj
 0002:0000968c       ??_R1A@?0A@EA@TiXmlAttribute@@8 0045668c     tinyxml:tinyxml.obj
 0002:000096a8       ??_R4TiXmlNode@@6B@        004566a8     tinyxml:tinyxml.obj
 0002:000096bc       ??_R4TiXmlComment@@6B@     004566bc     tinyxml:tinyxml.obj
 0002:000096d0       ??_R3TiXmlComment@@8       004566d0     tinyxml:tinyxml.obj
 0002:000096e0       ??_R2TiXmlComment@@8       004566e0     tinyxml:tinyxml.obj
 0002:000096f0       ??_R1A@?0A@EA@TiXmlComment@@8 004566f0     tinyxml:tinyxml.obj
 0002:0000970c       ??_R4TiXmlDeclaration@@6B@ 0045670c     tinyxml:tinyxml.obj
 0002:00009720       ??_R3TiXmlDeclaration@@8   00456720     tinyxml:tinyxml.obj
 0002:00009730       ??_R2TiXmlDeclaration@@8   00456730     tinyxml:tinyxml.obj
 0002:00009740       ??_R1A@?0A@EA@TiXmlDeclaration@@8 00456740     tinyxml:tinyxml.obj
 0002:0000975c       ??_R4TiXmlText@@6B@        0045675c     tinyxml:tinyxml.obj
 0002:00009770       ??_R3TiXmlText@@8          00456770     tinyxml:tinyxml.obj
 0002:00009780       ??_R2TiXmlText@@8          00456780     tinyxml:tinyxml.obj
 0002:00009790       ??_R1A@?0A@EA@TiXmlText@@8 00456790     tinyxml:tinyxml.obj
 0002:000097ac       ??_R4TiXmlUnknown@@6B@     004567ac     tinyxml:tinyxml.obj
 0002:000097c0       ??_R3TiXmlUnknown@@8       004567c0     tinyxml:tinyxml.obj
 0002:000097d0       ??_R2TiXmlUnknown@@8       004567d0     tinyxml:tinyxml.obj
 0002:000097e0       ??_R1A@?0A@EA@TiXmlUnknown@@8 004567e0     tinyxml:tinyxml.obj
 0002:000097fc       ??_R4TiXmlElement@@6B@     004567fc     tinyxml:tinyxml.obj
 0002:00009810       ??_R3TiXmlElement@@8       00456810     tinyxml:tinyxml.obj
 0002:00009820       ??_R2TiXmlElement@@8       00456820     tinyxml:tinyxml.obj
 0002:00009830       ??_R1A@?0A@EA@TiXmlElement@@8 00456830     tinyxml:tinyxml.obj
 0002:0000984c       ??_R4type_info@@6B@        0045684c     LIBCMT:typinfo.obj
 0002:00009860       ??_R3type_info@@8          00456860     LIBCMT:typinfo.obj
 0002:00009870       ??_R2type_info@@8          00456870     LIBCMT:typinfo.obj
 0002:00009878       ??_R1A@?0A@EA@type_info@@8 00456878     LIBCMT:typinfo.obj
 0002:00009894       ??_R4exception@std@@6B@    00456894     LIBCMT:stdexcpt.obj
 0002:000098a8       ??_R4bad_exception@std@@6B@ 004568a8     LIBCMT:frame.obj
 0002:000098bc       ??_R3bad_exception@std@@8  004568bc     LIBCMT:frame.obj
 0002:000098cc       ??_R2bad_exception@std@@8  004568cc     LIBCMT:frame.obj
 0002:000098d8       ??_R1A@?0A@EA@bad_exception@std@@8 004568d8     LIBCMT:frame.obj
 0002:000098f4       ??_R4out_of_range@std@@6B@ 004568f4     ApiReader.obj
 0002:00009908       ??_R3out_of_range@std@@8   00456908     ApiReader.obj
 0002:00009918       ??_R2out_of_range@std@@8   00456918     ApiReader.obj
 0002:00009928       ??_R1A@?0A@EA@out_of_range@std@@8 00456928     ApiReader.obj
 0002:00009944       ??_R4length_error@std@@6B@ 00456944     ApiReader.obj
 0002:00009958       ??_R3length_error@std@@8   00456958     ApiReader.obj
 0002:00009968       ??_R2length_error@std@@8   00456968     ApiReader.obj
 0002:00009978       ??_R1A@?0A@EA@length_error@std@@8 00456978     ApiReader.obj
 0002:00009994       ??_R4logic_error@std@@6B@  00456994     ApiReader.obj
 0002:000099a8       ??_R3logic_error@std@@8    004569a8     ApiReader.obj
 0002:000099b8       ??_R2logic_error@std@@8    004569b8     ApiReader.obj
 0002:000099c4       ??_R1A@?0A@EA@logic_error@std@@8 004569c4     ApiReader.obj
 0002:000099e0       ??_R4bad_alloc@std@@6B@    004569e0     ApiReader.obj
 0002:000099f4       ??_R3bad_alloc@std@@8      004569f4     ApiReader.obj
 0002:00009a04       ??_R2bad_alloc@std@@8      00456a04     ApiReader.obj
 0002:00009a10       ??_R1A@?0A@EA@exception@std@@8 00456a10     ApiReader.obj
 0002:00009a2c       ??_R3exception@std@@8      00456a2c     ApiReader.obj
 0002:00009a3c       ??_R2exception@std@@8      00456a3c     ApiReader.obj
 0002:00009a44       ??_R1A@?0A@EA@bad_alloc@std@@8 00456a44     ApiReader.obj
 0002:00009a60       ??_R4?$CHexEdit@K@@6B@     00456a60     DisassemblerGui.obj
 0002:00009a74       ??_R3?$CHexEdit@K@@8       00456a74     DisassemblerGui.obj
 0002:00009a84       ??_R2?$CHexEdit@K@@8       00456a84     DisassemblerGui.obj
 0002:00009aa8       ??_R1A@?0A@EA@?$CHexEditImpl@V?$CHexEdit@K@@KV?$CEditT@VCWindow@ATL@@@WTL@@V?$CWinTraits@$0FGAAAAAA@$0A@@ATL@@@@8 00456aa8     DisassemblerGui.obj
 0002:00009ac4       ??_R3?$CHexEditImpl@V?$CHexEdit@K@@KV?$CEditT@VCWindow@ATL@@@WTL@@V?$CWinTraits@$0FGAAAAAA@$0A@@ATL@@@@8 00456ac4     DisassemblerGui.obj
 0002:00009ad4       ??_R2?$CHexEditImpl@V?$CHexEdit@K@@KV?$CEditT@VCWindow@ATL@@@WTL@@V?$CWinTraits@$0FGAAAAAA@$0A@@ATL@@@@8 00456ad4     DisassemblerGui.obj
 0002:00009af4       ??_R1A@?0A@EA@?$CWindowImpl@V?$CHexEdit@K@@V?$CEditT@VCWindow@ATL@@@WTL@@V?$CWinTraits@$0FGAAAAAA@$0A@@ATL@@@ATL@@8 00456af4     DisassemblerGui.obj
 0002:00009b10       ??_R3?$CWindowImpl@V?$CHexEdit@K@@V?$CEditT@VCWindow@ATL@@@WTL@@V?$CWinTraits@$0FGAAAAAA@$0A@@ATL@@@ATL@@8 00456b10     DisassemblerGui.obj
 0002:00009b20       ??_R2?$CWindowImpl@V?$CHexEdit@K@@V?$CEditT@VCWindow@ATL@@@WTL@@V?$CWinTraits@$0FGAAAAAA@$0A@@ATL@@@ATL@@8 00456b20     DisassemblerGui.obj
 0002:00009b3c       ??_R1A@?0A@EA@?$CWindowImplBaseT@V?$CEditT@VCWindow@ATL@@@WTL@@V?$CWinTraits@$0FGAAAAAA@$0A@@ATL@@@ATL@@8 00456b3c     DisassemblerGui.obj
 0002:00009b58       ??_R3?$CWindowImplBaseT@V?$CEditT@VCWindow@ATL@@@WTL@@V?$CWinTraits@$0FGAAAAAA@$0A@@ATL@@@ATL@@8 00456b58     DisassemblerGui.obj
 0002:00009b68       ??_R2?$CWindowImplBaseT@V?$CEditT@VCWindow@ATL@@@WTL@@V?$CWinTraits@$0FGAAAAAA@$0A@@ATL@@@ATL@@8 00456b68     DisassemblerGui.obj
 0002:00009b80       ??_R1A@?0A@EA@?$CWindowImplRoot@V?$CEditT@VCWindow@ATL@@@WTL@@@ATL@@8 00456b80     DisassemblerGui.obj
 0002:00009b9c       ??_R3?$CWindowImplRoot@V?$CEditT@VCWindow@ATL@@@WTL@@@ATL@@8 00456b9c     DisassemblerGui.obj
 0002:00009bac       ??_R2?$CWindowImplRoot@V?$CEditT@VCWindow@ATL@@@WTL@@@ATL@@8 00456bac     DisassemblerGui.obj
 0002:00009bc0       ??_R13?0A@EA@?$CEditT@VCWindow@ATL@@@WTL@@8 00456bc0     DisassemblerGui.obj
 0002:00009bdc       ??_R3?$CEditT@VCWindow@ATL@@@WTL@@8 00456bdc     DisassemblerGui.obj
 0002:00009bec       ??_R2?$CEditT@VCWindow@ATL@@@WTL@@8 00456bec     DisassemblerGui.obj
 0002:00009bf8       ??_R1A@?0A@EA@?$CEditT@VCWindow@ATL@@@WTL@@8 00456bf8     DisassemblerGui.obj
 0002:00009c14       ??_R1A@?0A@EA@?$CHexEdit@K@@8 00456c14     DisassemblerGui.obj
 0002:00009c30       ??_R4DisassemblerGui@@6B@  00456c30     DisassemblerGui.obj
 0002:00009c44       ??_R3DisassemblerGui@@8    00456c44     DisassemblerGui.obj
 0002:00009c54       ??_R2DisassemblerGui@@8    00456c54     DisassemblerGui.obj
 0002:00009c78       ??_R1CA@?0A@EA@?$CDialogResize@VDisassemblerGui@@@WTL@@8 00456c78     DisassemblerGui.obj
 0002:00009c94       ??_R3?$CDialogResize@VDisassemblerGui@@@WTL@@8 00456c94     DisassemblerGui.obj
 0002:00009ca4       ??_R2?$CDialogResize@VDisassemblerGui@@@WTL@@8 00456ca4     DisassemblerGui.obj
 0002:00009cac       ??_R1A@?0A@EA@?$CDialogResize@VDisassemblerGui@@@WTL@@8 00456cac     DisassemblerGui.obj
 0002:00009cc8       ??_R1CA@?0A@EA@?$CWinDataExchange@VDisassemblerGui@@@WTL@@8 00456cc8     DisassemblerGui.obj
 0002:00009ce4       ??_R3?$CWinDataExchange@VDisassemblerGui@@@WTL@@8 00456ce4     DisassemblerGui.obj
 0002:00009cf4       ??_R2?$CWinDataExchange@VDisassemblerGui@@@WTL@@8 00456cf4     DisassemblerGui.obj
 0002:00009cfc       ??_R1A@?0A@EA@?$CWinDataExchange@VDisassemblerGui@@@WTL@@8 00456cfc     DisassemblerGui.obj
 0002:00009d18       ??_R1A@?0A@EA@?$CDialogImpl@VDisassemblerGui@@VCWindow@ATL@@@ATL@@8 00456d18     DisassemblerGui.obj
 0002:00009d34       ??_R3?$CDialogImpl@VDisassemblerGui@@VCWindow@ATL@@@ATL@@8 00456d34     DisassemblerGui.obj
 0002:00009d44       ??_R2?$CDialogImpl@VDisassemblerGui@@VCWindow@ATL@@@ATL@@8 00456d44     DisassemblerGui.obj
 0002:00009d5c       ??_R1A@?0A@EA@?$CDialogImplBaseT@VCWindow@ATL@@@ATL@@8 00456d5c     DisassemblerGui.obj
 0002:00009d78       ??_R3?$CDialogImplBaseT@VCWindow@ATL@@@ATL@@8 00456d78     DisassemblerGui.obj
 0002:00009d88       ??_R2?$CDialogImplBaseT@VCWindow@ATL@@@ATL@@8 00456d88     DisassemblerGui.obj
 0002:00009d9c       ??_R1A@?0A@EA@?$CWindowImplRoot@VCWindow@ATL@@@ATL@@8 00456d9c     DisassemblerGui.obj
 0002:00009db8       ??_R3?$CWindowImplRoot@VCWindow@ATL@@@ATL@@8 00456db8     DisassemblerGui.obj
 0002:00009dc8       ??_R2?$CWindowImplRoot@VCWindow@ATL@@@ATL@@8 00456dc8     DisassemblerGui.obj
 0002:00009dd8       ??_R1A@?0A@EA@CMessageMap@ATL@@8 00456dd8     DisassemblerGui.obj
 0002:00009df4       ??_R3CMessageMap@ATL@@8    00456df4     DisassemblerGui.obj
 0002:00009e04       ??_R2CMessageMap@ATL@@8    00456e04     DisassemblerGui.obj
 0002:00009e0c       ??_R13?0A@EA@CWindow@ATL@@8 00456e0c     DisassemblerGui.obj
 0002:00009e28       ??_R3CWindow@ATL@@8        00456e28     DisassemblerGui.obj
 0002:00009e38       ??_R2CWindow@ATL@@8        00456e38     DisassemblerGui.obj
 0002:00009e40       ??_R1A@?0A@EA@CWindow@ATL@@8 00456e40     DisassemblerGui.obj
 0002:00009e5c       ??_R1A@?0A@EA@DisassemblerGui@@8 00456e5c     DisassemblerGui.obj
 0002:00009e78       ??_R4DumpMemoryGui@@6B@    00456e78     DumpMemoryGui.obj
 0002:00009e8c       ??_R3DumpMemoryGui@@8      00456e8c     DumpMemoryGui.obj
 0002:00009e9c       ??_R2DumpMemoryGui@@8      00456e9c     DumpMemoryGui.obj
 0002:00009ec0       ??_R1CA@?0A@EA@?$CDialogResize@VDumpMemoryGui@@@WTL@@8 00456ec0     DumpMemoryGui.obj
 0002:00009edc       ??_R3?$CDialogResize@VDumpMemoryGui@@@WTL@@8 00456edc     DumpMemoryGui.obj
 0002:00009eec       ??_R2?$CDialogResize@VDumpMemoryGui@@@WTL@@8 00456eec     DumpMemoryGui.obj
 0002:00009ef4       ??_R1A@?0A@EA@?$CDialogResize@VDumpMemoryGui@@@WTL@@8 00456ef4     DumpMemoryGui.obj
 0002:00009f10       ??_R1CA@?0A@EA@?$CWinDataExchange@VDumpMemoryGui@@@WTL@@8 00456f10     DumpMemoryGui.obj
 0002:00009f2c       ??_R3?$CWinDataExchange@VDumpMemoryGui@@@WTL@@8 00456f2c     DumpMemoryGui.obj
 0002:00009f3c       ??_R2?$CWinDataExchange@VDumpMemoryGui@@@WTL@@8 00456f3c     DumpMemoryGui.obj
 0002:00009f44       ??_R1A@?0A@EA@?$CWinDataExchange@VDumpMemoryGui@@@WTL@@8 00456f44     DumpMemoryGui.obj
 0002:00009f60       ??_R1A@?0A@EA@?$CDialogImpl@VDumpMemoryGui@@VCWindow@ATL@@@ATL@@8 00456f60     DumpMemoryGui.obj
 0002:00009f7c       ??_R3?$CDialogImpl@VDumpMemoryGui@@VCWindow@ATL@@@ATL@@8 00456f7c     DumpMemoryGui.obj
 0002:00009f8c       ??_R2?$CDialogImpl@VDumpMemoryGui@@VCWindow@ATL@@@ATL@@8 00456f8c     DumpMemoryGui.obj
 0002:00009fa4       ??_R1A@?0A@EA@DumpMemoryGui@@8 00456fa4     DumpMemoryGui.obj
 0002:00009fc0       ??_R4DumpSectionGui@@6B@   00456fc0     DumpSectionGui.obj
 0002:00009fd4       ??_R3DumpSectionGui@@8     00456fd4     DumpSectionGui.obj
 0002:00009fe4       ??_R2DumpSectionGui@@8     00456fe4     DumpSectionGui.obj
 0002:0000a008       ??_R1CA@?0A@EA@?$CDialogResize@VDumpSectionGui@@@WTL@@8 00457008     DumpSectionGui.obj
 0002:0000a024       ??_R3?$CDialogResize@VDumpSectionGui@@@WTL@@8 00457024     DumpSectionGui.obj
 0002:0000a034       ??_R2?$CDialogResize@VDumpSectionGui@@@WTL@@8 00457034     DumpSectionGui.obj
 0002:0000a03c       ??_R1A@?0A@EA@?$CDialogResize@VDumpSectionGui@@@WTL@@8 0045703c     DumpSectionGui.obj
 0002:0000a058       ??_R1CA@?0A@EA@?$CWinDataExchange@VDumpSectionGui@@@WTL@@8 00457058     DumpSectionGui.obj
 0002:0000a074       ??_R3?$CWinDataExchange@VDumpSectionGui@@@WTL@@8 00457074     DumpSectionGui.obj
 0002:0000a084       ??_R2?$CWinDataExchange@VDumpSectionGui@@@WTL@@8 00457084     DumpSectionGui.obj
 0002:0000a08c       ??_R1A@?0A@EA@?$CWinDataExchange@VDumpSectionGui@@@WTL@@8 0045708c     DumpSectionGui.obj
 0002:0000a0a8       ??_R1A@?0A@EA@?$CDialogImpl@VDumpSectionGui@@VCWindow@ATL@@@ATL@@8 004570a8     DumpSectionGui.obj
 0002:0000a0c4       ??_R3?$CDialogImpl@VDumpSectionGui@@VCWindow@ATL@@@ATL@@8 004570c4     DumpSectionGui.obj
 0002:0000a0d4       ??_R2?$CDialogImpl@VDumpSectionGui@@VCWindow@ATL@@@ATL@@8 004570d4     DumpSectionGui.obj
 0002:0000a0ec       ??_R1A@?0A@EA@DumpSectionGui@@8 004570ec     DumpSectionGui.obj
 0002:0000a108       ??_R4FileLog@@6B@          00457108     Logger.obj
 0002:0000a11c       ??_R3FileLog@@8            0045711c     Logger.obj
 0002:0000a12c       ??_R2FileLog@@8            0045712c     Logger.obj
 0002:0000a138       ??_R1A@?0A@EA@FileLog@@8   00457138     Logger.obj
 0002:0000a154       ??_R3Logger@@8             00457154     Logger.obj
 0002:0000a164       ??_R2Logger@@8             00457164     Logger.obj
 0002:0000a16c       ??_R1A@?0A@EA@Logger@@8    0045716c     Logger.obj
 0002:0000a188       ??_R4CAppModule@WTL@@6B@   00457188     main.obj
 0002:0000a19c       ??_R3CAppModule@WTL@@8     0045719c     main.obj
 0002:0000a1ac       ??_R2CAppModule@WTL@@8     004571ac     main.obj
 0002:0000a1c4       ??_R1A@?0A@EA@CAppModule@WTL@@8 004571c4     main.obj
 0002:0000a1e0       ??_R4CMessageLoop@WTL@@6B@ 004571e0     main.obj
 0002:0000a1f4       ??_R3CMessageLoop@WTL@@8   004571f4     main.obj
 0002:0000a204       ??_R2CMessageLoop@WTL@@8   00457204     main.obj
 0002:0000a20c       ??_R1A@?0A@EA@CMessageLoop@WTL@@8 0045720c     main.obj
 0002:0000a228       ??_R4CRegObject@ATL@@6B@   00457228     main.obj
 0002:0000a23c       ??_R3CRegObject@ATL@@8     0045723c     main.obj
 0002:0000a24c       ??_R2CRegObject@ATL@@8     0045724c     main.obj
 0002:0000a25c       ??_R1A@?0A@EA@IRegistrarBase@@8 0045725c     main.obj
 0002:0000a278       ??_R3IRegistrarBase@@8     00457278     main.obj
 0002:0000a288       ??_R2IRegistrarBase@@8     00457288     main.obj
 0002:0000a294       ??_R1A@?0A@EA@IUnknown@@8  00457294     main.obj
 0002:0000a2b0       ??_R3IUnknown@@8           004572b0     main.obj
 0002:0000a2c0       ??_R2IUnknown@@8           004572c0     main.obj
 0002:0000a2c8       ??_R1A@?0A@EA@CRegObject@ATL@@8 004572c8     main.obj
 0002:0000a2e4       ??_R4CComModule@ATL@@6B@   004572e4     main.obj
 0002:0000a2f8       ??_R3CComModule@ATL@@8     004572f8     main.obj
 0002:0000a308       ??_R2CComModule@ATL@@8     00457308     main.obj
 0002:0000a31c       ??_R1A@?0A@EA@?$CAtlModuleT@VCComModule@ATL@@@ATL@@8 0045731c     main.obj
 0002:0000a338       ??_R3?$CAtlModuleT@VCComModule@ATL@@@ATL@@8 00457338     main.obj
 0002:0000a348       ??_R2?$CAtlModuleT@VCComModule@ATL@@@ATL@@8 00457348     main.obj
 0002:0000a358       ??_R1A@?0A@EA@CAtlModule@ATL@@8 00457358     main.obj
 0002:0000a374       ??_R3CAtlModule@ATL@@8     00457374     main.obj
 0002:0000a384       ??_R2CAtlModule@ATL@@8     00457384     main.obj
 0002:0000a390       ??_R13?0A@EA@_ATL_MODULE70@ATL@@8 00457390     main.obj
 0002:0000a3ac       ??_R3_ATL_MODULE70@ATL@@8  004573ac     main.obj
 0002:0000a3bc       ??_R2_ATL_MODULE70@ATL@@8  004573bc     main.obj
 0002:0000a3c4       ??_R1A@?0A@EA@_ATL_MODULE70@ATL@@8 004573c4     main.obj
 0002:0000a3e0       ??_R1A@?0A@EA@CComModule@ATL@@8 004573e0     main.obj
 0002:0000a3fc       ??_R4OptionsGui@@6B@       004573fc     MainGui.obj
 0002:0000a410       ??_R3OptionsGui@@8         00457410     MainGui.obj
 0002:0000a420       ??_R2OptionsGui@@8         00457420     MainGui.obj
 0002:0000a440       ??_R1CA@?0A@EA@?$CWinDataExchange@VOptionsGui@@@WTL@@8 00457440     MainGui.obj
 0002:0000a45c       ??_R3?$CWinDataExchange@VOptionsGui@@@WTL@@8 0045745c     MainGui.obj
 0002:0000a46c       ??_R2?$CWinDataExchange@VOptionsGui@@@WTL@@8 0045746c     MainGui.obj
 0002:0000a474       ??_R1A@?0A@EA@?$CWinDataExchange@VOptionsGui@@@WTL@@8 00457474     MainGui.obj
 0002:0000a490       ??_R1A@?0A@EA@?$CDialogImpl@VOptionsGui@@VCWindow@ATL@@@ATL@@8 00457490     MainGui.obj
 0002:0000a4ac       ??_R3?$CDialogImpl@VOptionsGui@@VCWindow@ATL@@@ATL@@8 004574ac     MainGui.obj
 0002:0000a4bc       ??_R2?$CDialogImpl@VOptionsGui@@VCWindow@ATL@@@ATL@@8 004574bc     MainGui.obj
 0002:0000a4d4       ??_R1A@?0A@EA@OptionsGui@@8 004574d4     MainGui.obj
 0002:0000a4f0       ??_R4DonateGui@@6B@        004574f0     MainGui.obj
 0002:0000a504       ??_R3DonateGui@@8          00457504     MainGui.obj
 0002:0000a514       ??_R2DonateGui@@8          00457514     MainGui.obj
 0002:0000a534       ??_R1CA@?0A@EA@?$CWinDataExchange@VDonateGui@@@WTL@@8 00457534     MainGui.obj
 0002:0000a550       ??_R3?$CWinDataExchange@VDonateGui@@@WTL@@8 00457550     MainGui.obj
 0002:0000a560       ??_R2?$CWinDataExchange@VDonateGui@@@WTL@@8 00457560     MainGui.obj
 0002:0000a568       ??_R1A@?0A@EA@?$CWinDataExchange@VDonateGui@@@WTL@@8 00457568     MainGui.obj
 0002:0000a584       ??_R1A@?0A@EA@?$CDialogImpl@VDonateGui@@VCWindow@ATL@@@ATL@@8 00457584     MainGui.obj
 0002:0000a5a0       ??_R3?$CDialogImpl@VDonateGui@@VCWindow@ATL@@@ATL@@8 004575a0     MainGui.obj
 0002:0000a5b0       ??_R2?$CDialogImpl@VDonateGui@@VCWindow@ATL@@@ATL@@8 004575b0     MainGui.obj
 0002:0000a5c8       ??_R1A@?0A@EA@DonateGui@@8 004575c8     MainGui.obj
 0002:0000a5e4       ??_R4AboutGui@@6B@         004575e4     MainGui.obj
 0002:0000a5f8       ??_R3AboutGui@@8           004575f8     MainGui.obj
 0002:0000a608       ??_R2AboutGui@@8           00457608     MainGui.obj
 0002:0000a628       ??_R1CA@?0A@EA@?$CWinDataExchange@VAboutGui@@@WTL@@8 00457628     MainGui.obj
 0002:0000a644       ??_R3?$CWinDataExchange@VAboutGui@@@WTL@@8 00457644     MainGui.obj
 0002:0000a654       ??_R2?$CWinDataExchange@VAboutGui@@@WTL@@8 00457654     MainGui.obj
 0002:0000a65c       ??_R1A@?0A@EA@?$CWinDataExchange@VAboutGui@@@WTL@@8 0045765c     MainGui.obj
 0002:0000a678       ??_R1A@?0A@EA@?$CDialogImpl@VAboutGui@@VCWindow@ATL@@@ATL@@8 00457678     MainGui.obj
 0002:0000a694       ??_R3?$CDialogImpl@VAboutGui@@VCWindow@ATL@@@ATL@@8 00457694     MainGui.obj
 0002:0000a6a4       ??_R2?$CDialogImpl@VAboutGui@@VCWindow@ATL@@@ATL@@8 004576a4     MainGui.obj
 0002:0000a6bc       ??_R1A@?0A@EA@AboutGui@@8  004576bc     MainGui.obj
 0002:0000a6d8       ??_R4MainGui@@6BCMessageFilter@WTL@@@ 004576d8     MainGui.obj
 0002:0000a6ec       ??_R4MainGui@@6B?$CDialogImpl@VMainGui@@VCWindow@ATL@@@ATL@@@ 004576ec     MainGui.obj
 0002:0000a700       ??_R3MainGui@@8            00457700     MainGui.obj
 0002:0000a710       ??_R2MainGui@@8            00457710     MainGui.obj
 0002:0000a738       ??_R1CA@?0A@EA@CMessageFilter@WTL@@8 00457738     MainGui.obj
 0002:0000a754       ??_R1CE@?0A@EA@?$CDialogResize@VMainGui@@@WTL@@8 00457754     MainGui.obj
 0002:0000a770       ??_R3?$CDialogResize@VMainGui@@@WTL@@8 00457770     MainGui.obj
 0002:0000a780       ??_R2?$CDialogResize@VMainGui@@@WTL@@8 00457780     MainGui.obj
 0002:0000a788       ??_R1A@?0A@EA@?$CDialogResize@VMainGui@@@WTL@@8 00457788     MainGui.obj
 0002:0000a7a4       ??_R1CE@?0A@EA@?$CWinDataExchange@VMainGui@@@WTL@@8 004577a4     MainGui.obj
 0002:0000a7c0       ??_R3?$CWinDataExchange@VMainGui@@@WTL@@8 004577c0     MainGui.obj
 0002:0000a7d0       ??_R2?$CWinDataExchange@VMainGui@@@WTL@@8 004577d0     MainGui.obj
 0002:0000a7d8       ??_R1A@?0A@EA@?$CWinDataExchange@VMainGui@@@WTL@@8 004577d8     MainGui.obj
 0002:0000a7f4       ??_R1A@?0A@EA@?$CDialogImpl@VMainGui@@VCWindow@ATL@@@ATL@@8 004577f4     MainGui.obj
 0002:0000a810       ??_R3?$CDialogImpl@VMainGui@@VCWindow@ATL@@@ATL@@8 00457810     MainGui.obj
 0002:0000a820       ??_R2?$CDialogImpl@VMainGui@@VCWindow@ATL@@@ATL@@8 00457820     MainGui.obj
 0002:0000a838       ??_R1A@?0A@EA@MainGui@@8   00457838     MainGui.obj
 0002:0000a854       ??_R4CMultiSelectTreeViewCtrl@@6B@ 00457854     MainGui.obj
 0002:0000a868       ??_R3CMultiSelectTreeViewCtrl@@8 00457868     MainGui.obj
 0002:0000a878       ??_R2CMultiSelectTreeViewCtrl@@8 00457878     MainGui.obj
 0002:0000a8a4       ??_R1A@?0A@EA@?$CMultiSelectTreeViewImpl@VCMultiSelectTreeViewCtrl@@V?$CTreeViewCtrlExT@VCWindow@ATL@@@WTL@@V?$CWinTraitsOR@$0CA@$0A@V?$CWinTraits@$0FGAAAAAA@$0A@@ATL@@@ATL@@@@8 004578a4     MainGui.obj
 0002:0000a8c0       ??_R3?$CMultiSelectTreeViewImpl@VCMultiSelectTreeViewCtrl@@V?$CTreeViewCtrlExT@VCWindow@ATL@@@WTL@@V?$CWinTraitsOR@$0CA@$0A@V?$CWinTraits@$0FGAAAAAA@$0A@@ATL@@@ATL@@@@8 004578c0     MainGui.obj
 0002:0000a8d0       ??_R2?$CMultiSelectTreeViewImpl@VCMultiSelectTreeViewCtrl@@V?$CTreeViewCtrlExT@VCWindow@ATL@@@WTL@@V?$CWinTraitsOR@$0CA@$0A@V?$CWinTraits@$0FGAAAAAA@$0A@@ATL@@@ATL@@@@8 004578d0     MainGui.obj
 0002:0000a8f8       ??_R1CE@?0A@EA@?$CCustomDraw@VCMultiSelectTreeViewCtrl@@@WTL@@8 004578f8     MainGui.obj
 0002:0000a914       ??_R3?$CCustomDraw@VCMultiSelectTreeViewCtrl@@@WTL@@8 00457914     MainGui.obj
 0002:0000a924       ??_R2?$CCustomDraw@VCMultiSelectTreeViewCtrl@@@WTL@@8 00457924     MainGui.obj
 0002:0000a92c       ??_R1A@?0A@EA@?$CCustomDraw@VCMultiSelectTreeViewCtrl@@@WTL@@8 0045792c     MainGui.obj
 0002:0000a948       ??_R1A@?0A@EA@?$CWindowImpl@VCMultiSelectTreeViewCtrl@@V?$CTreeViewCtrlExT@VCWindow@ATL@@@WTL@@V?$CWinTraitsOR@$0CA@$0A@V?$CWinTraits@$0FGAAAAAA@$0A@@ATL@@@ATL@@@ATL@@8 00457948     MainGui.obj
 0002:0000a964       ??_R3?$CWindowImpl@VCMultiSelectTreeViewCtrl@@V?$CTreeViewCtrlExT@VCWindow@ATL@@@WTL@@V?$CWinTraitsOR@$0CA@$0A@V?$CWinTraits@$0FGAAAAAA@$0A@@ATL@@@ATL@@@ATL@@8 00457964     MainGui.obj
 0002:0000a974       ??_R2?$CWindowImpl@VCMultiSelectTreeViewCtrl@@V?$CTreeViewCtrlExT@VCWindow@ATL@@@WTL@@V?$CWinTraitsOR@$0CA@$0A@V?$CWinTraits@$0FGAAAAAA@$0A@@ATL@@@ATL@@@ATL@@8 00457974     MainGui.obj
 0002:0000a994       ??_R1A@?0A@EA@?$CWindowImplBaseT@V?$CTreeViewCtrlExT@VCWindow@ATL@@@WTL@@V?$CWinTraitsOR@$0CA@$0A@V?$CWinTraits@$0FGAAAAAA@$0A@@ATL@@@ATL@@@ATL@@8 00457994     MainGui.obj
 0002:0000a9b0       ??_R3?$CWindowImplBaseT@V?$CTreeViewCtrlExT@VCWindow@ATL@@@WTL@@V?$CWinTraitsOR@$0CA@$0A@V?$CWinTraits@$0FGAAAAAA@$0A@@ATL@@@ATL@@@ATL@@8 004579b0     MainGui.obj
 0002:0000a9c0       ??_R2?$CWindowImplBaseT@V?$CTreeViewCtrlExT@VCWindow@ATL@@@WTL@@V?$CWinTraitsOR@$0CA@$0A@V?$CWinTraits@$0FGAAAAAA@$0A@@ATL@@@ATL@@@ATL@@8 004579c0     MainGui.obj
 0002:0000a9dc       ??_R1A@?0A@EA@?$CWindowImplRoot@V?$CTreeViewCtrlExT@VCWindow@ATL@@@WTL@@@ATL@@8 004579dc     MainGui.obj
 0002:0000a9f8       ??_R3?$CWindowImplRoot@V?$CTreeViewCtrlExT@VCWindow@ATL@@@WTL@@@ATL@@8 004579f8     MainGui.obj
 0002:0000aa08       ??_R2?$CWindowImplRoot@V?$CTreeViewCtrlExT@VCWindow@ATL@@@WTL@@@ATL@@8 00457a08     MainGui.obj
 0002:0000aa20       ??_R13?0A@EA@?$CTreeViewCtrlT@VCWindow@ATL@@@WTL@@8 00457a20     MainGui.obj
 0002:0000aa3c       ??_R13?0A@EA@?$CTreeViewCtrlExT@VCWindow@ATL@@@WTL@@8 00457a3c     MainGui.obj
 0002:0000aa58       ??_R3?$CTreeViewCtrlExT@VCWindow@ATL@@@WTL@@8 00457a58     MainGui.obj
 0002:0000aa68       ??_R2?$CTreeViewCtrlExT@VCWindow@ATL@@@WTL@@8 00457a68     MainGui.obj
 0002:0000aa78       ??_R1A@?0A@EA@?$CTreeViewCtrlT@VCWindow@ATL@@@WTL@@8 00457a78     MainGui.obj
 0002:0000aa94       ??_R3?$CTreeViewCtrlT@VCWindow@ATL@@@WTL@@8 00457a94     MainGui.obj
 0002:0000aaa4       ??_R2?$CTreeViewCtrlT@VCWindow@ATL@@@WTL@@8 00457aa4     MainGui.obj
 0002:0000aab0       ??_R1A@?0A@EA@?$CTreeViewCtrlExT@VCWindow@ATL@@@WTL@@8 00457ab0     MainGui.obj
 0002:0000aacc       ??_R1A@?0A@EA@CMultiSelectTreeViewCtrl@@8 00457acc     MainGui.obj
 0002:0000aae8       ??_R4CMessageFilter@WTL@@6B@ 00457ae8     MainGui.obj
 0002:0000aafc       ??_R3CMessageFilter@WTL@@8 00457afc     MainGui.obj
 0002:0000ab0c       ??_R2CMessageFilter@WTL@@8 00457b0c     MainGui.obj
 0002:0000ab14       ??_R1A@?0A@EA@CMessageFilter@WTL@@8 00457b14     MainGui.obj
 0002:0000ab30       ??_R4PickApiGui@@6B@       00457b30     PickApiGui.obj
 0002:0000ab44       ??_R3PickApiGui@@8         00457b44     PickApiGui.obj
 0002:0000ab54       ??_R2PickApiGui@@8         00457b54     PickApiGui.obj
 0002:0000ab78       ??_R1CA@?0A@EA@?$CDialogResize@VPickApiGui@@@WTL@@8 00457b78     PickApiGui.obj
 0002:0000ab94       ??_R3?$CDialogResize@VPickApiGui@@@WTL@@8 00457b94     PickApiGui.obj
 0002:0000aba4       ??_R2?$CDialogResize@VPickApiGui@@@WTL@@8 00457ba4     PickApiGui.obj
 0002:0000abac       ??_R1A@?0A@EA@?$CDialogResize@VPickApiGui@@@WTL@@8 00457bac     PickApiGui.obj
 0002:0000abc8       ??_R1CA@?0A@EA@?$CWinDataExchange@VPickApiGui@@@WTL@@8 00457bc8     PickApiGui.obj
 0002:0000abe4       ??_R3?$CWinDataExchange@VPickApiGui@@@WTL@@8 00457be4     PickApiGui.obj
 0002:0000abf4       ??_R2?$CWinDataExchange@VPickApiGui@@@WTL@@8 00457bf4     PickApiGui.obj
 0002:0000abfc       ??_R1A@?0A@EA@?$CWinDataExchange@VPickApiGui@@@WTL@@8 00457bfc     PickApiGui.obj
 0002:0000ac18       ??_R1A@?0A@EA@?$CDialogImpl@VPickApiGui@@VCWindow@ATL@@@ATL@@8 00457c18     PickApiGui.obj
 0002:0000ac34       ??_R3?$CDialogImpl@VPickApiGui@@VCWindow@ATL@@@ATL@@8 00457c34     PickApiGui.obj
 0002:0000ac44       ??_R2?$CDialogImpl@VPickApiGui@@VCWindow@ATL@@@ATL@@8 00457c44     PickApiGui.obj
 0002:0000ac5c       ??_R1A@?0A@EA@PickApiGui@@8 00457c5c     PickApiGui.obj
 0002:0000ac78       ??_R4PickDllGui@@6B@       00457c78     PickDllGui.obj
 0002:0000ac8c       ??_R3PickDllGui@@8         00457c8c     PickDllGui.obj
 0002:0000ac9c       ??_R2PickDllGui@@8         00457c9c     PickDllGui.obj
 0002:0000acc0       ??_R1CA@?0A@EA@?$CDialogResize@VPickDllGui@@@WTL@@8 00457cc0     PickDllGui.obj
 0002:0000acdc       ??_R3?$CDialogResize@VPickDllGui@@@WTL@@8 00457cdc     PickDllGui.obj
 0002:0000acec       ??_R2?$CDialogResize@VPickDllGui@@@WTL@@8 00457cec     PickDllGui.obj
 0002:0000acf4       ??_R1A@?0A@EA@?$CDialogResize@VPickDllGui@@@WTL@@8 00457cf4     PickDllGui.obj
 0002:0000ad10       ??_R1CA@?0A@EA@?$CWinDataExchange@VPickDllGui@@@WTL@@8 00457d10     PickDllGui.obj
 0002:0000ad2c       ??_R3?$CWinDataExchange@VPickDllGui@@@WTL@@8 00457d2c     PickDllGui.obj
 0002:0000ad3c       ??_R2?$CWinDataExchange@VPickDllGui@@@WTL@@8 00457d3c     PickDllGui.obj
 0002:0000ad44       ??_R1A@?0A@EA@?$CWinDataExchange@VPickDllGui@@@WTL@@8 00457d44     PickDllGui.obj
 0002:0000ad60       ??_R1A@?0A@EA@?$CDialogImpl@VPickDllGui@@VCWindow@ATL@@@ATL@@8 00457d60     PickDllGui.obj
 0002:0000ad7c       ??_R3?$CDialogImpl@VPickDllGui@@VCWindow@ATL@@@ATL@@8 00457d7c     PickDllGui.obj
 0002:0000ad8c       ??_R2?$CDialogImpl@VPickDllGui@@VCWindow@ATL@@@ATL@@8 00457d8c     PickDllGui.obj
 0002:0000ada4       ??_R1A@?0A@EA@PickDllGui@@8 00457da4     PickDllGui.obj
 0002:0000adc0       ??_R4ListboxLog@@6B@       00457dc0     Scylla.obj
 0002:0000add4       ??_R3ListboxLog@@8         00457dd4     Scylla.obj
 0002:0000ade4       ??_R2ListboxLog@@8         00457de4     Scylla.obj
 0002:0000adf0       ??_R1A@?0A@EA@ListboxLog@@8 00457df0     Scylla.obj
 0002:0000ae0c       ??_R4TiXmlDocument@@6B@    00457e0c     TreeImportExport.obj
 0002:0000ae20       ??_R3TiXmlDocument@@8      00457e20     TreeImportExport.obj
 0002:0000ae30       ??_R2TiXmlDocument@@8      00457e30     TreeImportExport.obj
 0002:0000ae40       ??_R1A@?0A@EA@TiXmlNode@@8 00457e40     TreeImportExport.obj
 0002:0000ae5c       ??_R3TiXmlNode@@8          00457e5c     TreeImportExport.obj
 0002:0000ae6c       ??_R2TiXmlNode@@8          00457e6c     TreeImportExport.obj
 0002:0000ae78       ??_R1A@?0A@EA@TiXmlBase@@8 00457e78     TreeImportExport.obj
 0002:0000ae94       ??_R3TiXmlBase@@8          00457e94     TreeImportExport.obj
 0002:0000aea4       ??_R2TiXmlBase@@8          00457ea4     TreeImportExport.obj
 0002:0000aeac       ??_R1A@?0A@EA@TiXmlDocument@@8 00457eac     TreeImportExport.obj
 0002:0000aed0       ___safe_se_handler_table   00457ed0     <linker-defined>
 0002:0000b0d4       ___rtc_iaa                 004580d4     LIBCMT:_initsect_.obj
 0002:0000b0d8       ___rtc_izz                 004580d8     LIBCMT:_initsect_.obj
 0002:0000b0dc       ___rtc_taa                 004580dc     LIBCMT:_initsect_.obj
 0002:0000b0e0       ___rtc_tzz                 004580e0     LIBCMT:_initsect_.obj
 0002:0000b9a4       __TI2?AVbad_exception@std@@ 004589a4     LIBCMT:frame.obj
 0002:0000b9b4       __CTA2?AVbad_exception@std@@ 004589b4     LIBCMT:frame.obj
 0002:0000b9c0       __CT??_R0?AVbad_exception@std@@@8??0bad_exception@std@@QAE@ABV01@@Z12 004589c0     LIBCMT:frame.obj
 0002:0000bb84       __CT??_R0?AVlength_error@std@@@8??0length_error@std@@QAE@ABV01@@Z40 00458b84     ApiReader.obj
 0002:0000bba0       __CT??_R0?AVlogic_error@std@@@8??0logic_error@std@@QAE@ABV01@@Z40 00458ba0     ApiReader.obj
 0002:0000bbbc       __CT??_R0?AVexception@std@@@8??0exception@std@@QAE@ABV01@@Z12 00458bbc     ApiReader.obj
 0002:0000bbd8       __CTA3?AVlength_error@std@@ 00458bd8     ApiReader.obj
 0002:0000bbe8       __TI3?AVlength_error@std@@ 00458be8     ApiReader.obj
 0002:0000bbf8       __CT??_R0?AVout_of_range@std@@@8??0out_of_range@std@@QAE@ABV01@@Z40 00458bf8     ApiReader.obj
 0002:0000bc14       __CTA3?AVout_of_range@std@@ 00458c14     ApiReader.obj
 0002:0000bc24       __TI3?AVout_of_range@std@@ 00458c24     ApiReader.obj
 0002:0000bc34       __CT??_R0?AVbad_alloc@std@@@8??0bad_alloc@std@@QAE@ABV01@@Z12 00458c34     ApiReader.obj
 0002:0000bc50       __CTA2?AVbad_alloc@std@@   00458c50     ApiReader.obj
 0002:0000bc5c       __TI2?AVbad_alloc@std@@    00458c5c     ApiReader.obj
 0002:0000bc6c       __CT??_R0?AVCAtlException@ATL@@@84 00458c6c     DisassemblerGui.obj
 0002:0000bc88       __CTA1?AVCAtlException@ATL@@ 00458c88     DisassemblerGui.obj
 0002:0000bc90       __TI1?AVCAtlException@ATL@@ 00458c90     DisassemblerGui.obj
 0002:0000d8f0       ___pobjMapEntryFirst       0045a8f0     AboutGui.obj
 0002:0000d8f4       ___pobjMapEntryLast        0045a8f4     AboutGui.obj
 0002:0000d8f8       __IMPORT_DESCRIPTOR_KERNEL32 0045a8f8     kernel32:KERNEL32.dll
 0002:0000d90c       __IMPORT_DESCRIPTOR_USER32 0045a90c     user32:USER32.dll
 0002:0000d920       __IMPORT_DESCRIPTOR_GDI32  0045a920     gdi32:GDI32.dll
 0002:0000d934       __IMPORT_DESCRIPTOR_COMDLG32 0045a934     comdlg32:COMDLG32.dll
 0002:0000d948       __IMPORT_DESCRIPTOR_ADVAPI32 0045a948     advapi32:ADVAPI32.dll
 0002:0000d95c       __IMPORT_DESCRIPTOR_SHELL32 0045a95c     shell32:SHELL32.dll
 0002:0000d970       __IMPORT_DESCRIPTOR_ole32  0045a970     ole32:ole32.dll
 0002:0000d984       __IMPORT_DESCRIPTOR_OLEAUT32 0045a984     oleaut32:OLEAUT32.dll
 0002:0000d998       __IMPORT_DESCRIPTOR_SHLWAPI 0045a998     shlwapi:SHLWAPI.dll
 0002:0000d9ac       __IMPORT_DESCRIPTOR_COMCTL32 0045a9ac     comctl32:COMCTL32.dll
 0002:0000d9c0       __IMPORT_DESCRIPTOR_PSAPI  0045a9c0     Psapi:PSAPI.DLL
 0002:0000d9d4       __IMPORT_DESCRIPTOR_imagehlp 0045a9d4     Imagehlp:imagehlp.dll
 0002:0000d9e8       __NULL_IMPORT_DESCRIPTOR   0045a9e8     kernel32:KERNEL32.dll
 0003:00000828       __REGISTERTORCLASS         0045c828     diStorm:operands.obj
 0003:00000a78       _II_MOVSXD                 0045ca78     diStorm:insts.obj
 0003:00000a7c       _II_NOP                    0045ca7c     diStorm:insts.obj
 0003:00000a80       _II_PAUSE                  0045ca80     diStorm:insts.obj
 0003:00000a84       _II_WAIT                   0045ca84     diStorm:insts.obj
 0003:00000a88       _II_RDRAND                 0045ca88     diStorm:insts.obj
 0003:00000a8c       _II_3DNOW                  0045ca8c     diStorm:insts.obj
 0003:00000a90       _FlagsTable                0045ca90     diStorm:insts.obj
 0003:00000c20       _Table_0F                  0045cc20     diStorm:insts.obj
 0003:00000c24       _Table_0F_0F               0045cc24     diStorm:insts.obj
 0003:00000c28       _Table_0F_38               0045cc28     diStorm:insts.obj
 0003:00000c2c       _Table_0F_3A               0045cc2c     diStorm:insts.obj
 0003:00000c30       _InstInfos                 0045cc30     diStorm:insts.obj
 0003:00001fa0       _InstInfosEx               0045dfa0     diStorm:insts.obj
 0003:00003180       _InstructionsTree          0045f180     diStorm:insts.obj
 0003:00005cf0       _InstSharedInfoTable       00461cf0     diStorm:insts.obj
 0003:000069b8       _CmpMnemonicOffsets        004629b8     diStorm:insts.obj
 0003:000069c8       _VCmpMnemonicOffsets       004629c8     diStorm:insts.obj
 0003:00006a08       ?condenseWhiteSpace@TiXmlBase@@0_NA 00462a08     tinyxml:tinyxml.obj
 0003:00006a0c       ??_R0?AVTiXmlAttribute@@@8 00462a0c     tinyxml:tinyxml.obj
 0003:00006a2c       ??_R0?AVTiXmlComment@@@8   00462a2c     tinyxml:tinyxml.obj
 0003:00006a48       ??_R0?AVTiXmlDeclaration@@@8 00462a48     tinyxml:tinyxml.obj
 0003:00006a68       ??_R0?AVTiXmlText@@@8      00462a68     tinyxml:tinyxml.obj
 0003:00006a80       ??_R0?AVTiXmlUnknown@@@8   00462a80     tinyxml:tinyxml.obj
 0003:00006a9c       ??_R0?AVTiXmlElement@@@8   00462a9c     tinyxml:tinyxml.obj
 0003:00006ab8       ?entity@TiXmlBase@@0PAUEntity@1@A 00462ab8     tinyxml:tinyxmlparser.obj
 0003:00006af8       ?errorString@TiXmlBase@@1PAPBDA 00462af8     tinyxml:tinyxmlerror.obj
 0003:00006b44       ??_R0?AVtype_info@@@8      00462b44     LIBCMT:typinfo.obj
 0003:00006b64       ___app_type                00462b64     LIBCMT:wwincrt0.obj
 0003:00006b70       ___security_cookie         00462b70     LIBCMT:gs_cookie.obj
 0003:00006b74       ___security_cookie_complement 00462b74     LIBCMT:gs_cookie.obj
 0003:00006b80       __fltused                  00462b80     LIBCMT:_fpinit_.obj
 0003:00006b84       __ldused                   00462b84     LIBCMT:_fpinit_.obj
 0003:00006d10       ___initialmbcinfo          00462d10     LIBCMT:mbctype.obj
 0003:00006f30       __mbctype                  00462f30     LIBCMT:mbctype.obj
 0003:00007038       __mbcasemap                00463038     LIBCMT:mbctype.obj
 0003:00007138       ___ptmbcinfo               00463138     LIBCMT:mbctype.obj
 0003:00007234       ___globallocalestatus      00463234     LIBCMT:glstatus.obj
 0003:00007238       ___clocalestr              00463238     LIBCMT:nlsdata2.obj
 0003:00007240       ___initiallocinfo          00463240     LIBCMT:nlsdata2.obj
 0003:00007318       ___ptlocinfo               00463318     LIBCMT:nlsdata2.obj
 0003:0000731c       ___lc_clike                0046331c     LIBCMT:nlsdata2.obj
 0003:00007320       ___initiallocalestructinfo 00463320     LIBCMT:nlsdata2.obj
 0003:00007328       ___flsindex                00463328     LIBCMT:tidtable.obj
 0003:0000732c       ___getvalueindex           0046332c     LIBCMT:tidtable.obj
 0003:00007330       __aexit_rtn                00463330     LIBCMT:crt0dat.obj
 0003:00007334       __amblksiz                 00463334     LIBCMT:heapinit.obj
 0003:00007510       __iob                      00463510     LIBCMT:_file.obj
 0003:00007790       ___nullstring              00463790     LIBCMT:output.obj
 0003:00007794       ___wnullstring             00463794     LIBCMT:output.obj
 0003:00007798       ___badioinfo               00463798     LIBCMT:ioinit.obj
 0003:000077d8       ___abort_behavior          004637d8     LIBCMT:abort.obj
 0003:000077dc       __First_FPE_Indx           004637dc     LIBCMT:winxfltr.obj
 0003:000077e0       __Num_FPE                  004637e0     LIBCMT:winxfltr.obj
 0003:000077e4       __XcptActTabSize           004637e4     LIBCMT:winxfltr.obj
 0003:000077e8       __XcptActTabCount          004637e8     LIBCMT:winxfltr.obj
 0003:000077f0       ??_R0?AVbad_exception@std@@@8 004637f0     LIBCMT:frame.obj
 0003:00007810       __lookuptrailbytes         00463810     LIBCMT:read.obj
 0003:00007910       __cfltcvt_tab              00463910     LIBCMT:cmiscdat.obj
 0003:00007938       __pctype                   00463938     LIBCMT:ctype.obj
 0003:0000793c       __pwctype                  0046393c     LIBCMT:ctype.obj
 0003:00007940       ___lc_time_c               00463940     LIBCMT:strftime.obj
 0003:000079f8       ___lc_time_curr            004639f8     LIBCMT:strftime.obj
 0003:000079fc       ___lconv_static_decimal    004639fc     LIBCMT:lconv.obj
 0003:00007a00       ___lconv_c                 00463a00     LIBCMT:lconv.obj
 0003:00007a30       ___lconv                   00463a30     LIBCMT:lconv.obj
 0003:00007a34       ___mb_cur_max              00463a34     LIBCMT:nlsdata1.obj
 0003:00007a38       ___decimal_point           00463a38     LIBCMT:nlsdata1.obj
 0003:00007a3c       ___decimal_point_length    00463a3c     LIBCMT:nlsdata1.obj
 0003:00007a40       __NLG_Destination          00463a40     LIBCMT:exsup.obj
 0003:00007a80       __pow10pos                 00463a80     LIBCMT:_constpow_.obj
 0003:00007be0       __pow10neg                 00463be0     LIBCMT:_constpow_.obj
 0003:00007d40       __timezone                 00463d40     LIBCMT:timeset.obj
 0003:00007d44       __daylight                 00463d44     LIBCMT:timeset.obj
 0003:00007d48       __dstbias                  00463d48     LIBCMT:timeset.obj
 0003:00007dd0       __tzname                   00463dd0     LIBCMT:timeset.obj
 0003:00007e00       __lpdays                   00463e00     LIBCMT:days.obj
 0003:00007e34       __days                     00463e34     LIBCMT:days.obj
 0003:00007e68       __coninpfh                 00463e68     LIBCMT:initcon.obj
 0003:00007e6c       __confh                    00463e6c     LIBCMT:initcon.obj
 0003:00007e8c       ?rcDefault@CWindow@ATL@@2UtagRECT@@A 00463e8c     AboutGui.obj
 0003:00007ee8       ?MemoryStateValues@DumpMemoryGui@@0PAPB_WA 00463ee8     DumpMemoryGui.obj
 0003:00007ef4       ?MemoryTypeValues@DumpMemoryGui@@0PAPB_WA 00463ef4     DumpMemoryGui.obj
 0003:00007f00       ?MemoryProtectionValues@DumpMemoryGui@@0PAPB_WA 00463f00     DumpMemoryGui.obj
 0003:00007f34       ?FILE_MAPPING_NAME@DllInjectionPlugin@@2PB_WB 00463f34     DllInjectionPlugin.obj
 0003:00007f4c       ?minApiAddress@ApiReader@@2KA 00463f4c     ApiReader.obj
 0003:00007f58       ?directImportLog@IATReferenceScan@@2VFileLog@@A 00463f58     IATReferenceScan.obj
 0003:00008168       ?debugLog@Scylla@@2VFileLog@@A 00464168     Scylla.obj
 0003:00008374       ?windowLog@Scylla@@2VListboxLog@@A 00464374     Scylla.obj
 0003:0000837c       ??_R0?AVlength_error@std@@@8 0046437c     ApiReader.obj
 0003:0000839c       ??_R0?AVlogic_error@std@@@8 0046439c     ApiReader.obj
 0003:000083bc       ??_R0?AVexception@std@@@8  004643bc     ApiReader.obj
 0003:000083d8       ??_R0?AVout_of_range@std@@@8 004643d8     ApiReader.obj
 0003:000083f8       ??_R0?AVbad_alloc@std@@@8  004643f8     ApiReader.obj
 0003:00008414       ??_R0?AV?$CEditT@VCWindow@ATL@@@WTL@@@8 00464414     DisassemblerGui.obj
 0003:00008440       ??_R0?AV?$CWindowImplRoot@V?$CEditT@VCWindow@ATL@@@WTL@@@ATL@@@8 00464440     DisassemblerGui.obj
 0003:00008488       ??_R0?AV?$CWindowImplBaseT@V?$CEditT@VCWindow@ATL@@@WTL@@V?$CWinTraits@$0FGAAAAAA@$0A@@ATL@@@ATL@@@8 00464488     DisassemblerGui.obj
 0003:000084f0       ??_R0?AV?$CWindowImpl@V?$CHexEdit@K@@V?$CEditT@VCWindow@ATL@@@WTL@@V?$CWinTraits@$0FGAAAAAA@$0A@@ATL@@@ATL@@@8 004644f0     DisassemblerGui.obj
 0003:00008568       ??_R0?AV?$CHexEditImpl@V?$CHexEdit@K@@KV?$CEditT@VCWindow@ATL@@@WTL@@V?$CWinTraits@$0FGAAAAAA@$0A@@ATL@@@@@8 00464568     DisassemblerGui.obj
 0003:000085d8       ??_R0?AV?$CHexEdit@K@@@8   004645d8     DisassemblerGui.obj
 0003:000085f4       ??_R0?AV?$CDialogResize@VDisassemblerGui@@@WTL@@@8 004645f4     DisassemblerGui.obj
 0003:0000862c       ??_R0?AV?$CWinDataExchange@VDisassemblerGui@@@WTL@@@8 0046462c     DisassemblerGui.obj
 0003:00008664       ??_R0?AVCMessageMap@ATL@@@8 00464664     DisassemblerGui.obj
 0003:00008684       ??_R0?AVCWindow@ATL@@@8    00464684     DisassemblerGui.obj
 0003:000086a0       ??_R0?AV?$CWindowImplRoot@VCWindow@ATL@@@ATL@@@8 004646a0     DisassemblerGui.obj
 0003:000086d4       ??_R0?AV?$CDialogImplBaseT@VCWindow@ATL@@@ATL@@@8 004646d4     DisassemblerGui.obj
 0003:00008708       ??_R0?AV?$CDialogImpl@VDisassemblerGui@@VCWindow@ATL@@@ATL@@@8 00464708     DisassemblerGui.obj
 0003:0000874c       ??_R0?AVDisassemblerGui@@@8 0046474c     DisassemblerGui.obj
 0003:0000876c       ??_R0?AVCAtlException@ATL@@@8 0046476c     DisassemblerGui.obj
 0003:0000878c       ??_R0?AV?$CDialogResize@VDumpMemoryGui@@@WTL@@@8 0046478c     DumpMemoryGui.obj
 0003:000087c0       ??_R0?AV?$CWinDataExchange@VDumpMemoryGui@@@WTL@@@8 004647c0     DumpMemoryGui.obj
 0003:000087f8       ??_R0?AV?$CDialogImpl@VDumpMemoryGui@@VCWindow@ATL@@@ATL@@@8 004647f8     DumpMemoryGui.obj
 0003:00008838       ??_R0?AVDumpMemoryGui@@@8  00464838     DumpMemoryGui.obj
 0003:00008854       ??_R0?AV?$CDialogResize@VDumpSectionGui@@@WTL@@@8 00464854     DumpSectionGui.obj
 0003:00008888       ??_R0?AV?$CWinDataExchange@VDumpSectionGui@@@WTL@@@8 00464888     DumpSectionGui.obj
 0003:000088c0       ??_R0?AV?$CDialogImpl@VDumpSectionGui@@VCWindow@ATL@@@ATL@@@8 004648c0     DumpSectionGui.obj
 0003:00008900       ??_R0?AVDumpSectionGui@@@8 00464900     DumpSectionGui.obj
 0003:00008920       ??_R0?AVFileLog@@@8        00464920     Logger.obj
 0003:00008938       ??_R0?AVLogger@@@8         00464938     Logger.obj
 0003:00008950       ??_R0?AVCAppModule@WTL@@@8 00464950     main.obj
 0003:00008970       ??_R0?AVCMessageLoop@WTL@@@8 00464970     main.obj
 0003:00008990       ??_R0?AUIUnknown@@@8       00464990     main.obj
 0003:000089a8       ??_R0?AUIRegistrarBase@@@8 004649a8     main.obj
 0003:000089c8       ??_R0?AVCRegObject@ATL@@@8 004649c8     main.obj
 0003:000089e8       ??_R0?AU_ATL_MODULE70@ATL@@@8 004649e8     main.obj
 0003:00008a08       ??_R0?AVCAtlModule@ATL@@@8 00464a08     main.obj
 0003:00008a28       ??_R0?AV?$CAtlModuleT@VCComModule@ATL@@@ATL@@@8 00464a28     main.obj
 0003:00008a5c       ??_R0?AVCComModule@ATL@@@8 00464a5c     main.obj
 0003:00008a7c       ??_R0?AV?$CWinDataExchange@VOptionsGui@@@WTL@@@8 00464a7c     MainGui.obj
 0003:00008ab0       ??_R0?AV?$CDialogImpl@VOptionsGui@@VCWindow@ATL@@@ATL@@@8 00464ab0     MainGui.obj
 0003:00008aec       ??_R0?AVOptionsGui@@@8     00464aec     MainGui.obj
 0003:00008b08       ??_R0?AV?$CWinDataExchange@VDonateGui@@@WTL@@@8 00464b08     MainGui.obj
 0003:00008b3c       ??_R0?AV?$CDialogImpl@VDonateGui@@VCWindow@ATL@@@ATL@@@8 00464b3c     MainGui.obj
 0003:00008b78       ??_R0?AVDonateGui@@@8      00464b78     MainGui.obj
 0003:00008b90       ??_R0?AV?$CWinDataExchange@VAboutGui@@@WTL@@@8 00464b90     MainGui.obj
 0003:00008bc4       ??_R0?AV?$CDialogImpl@VAboutGui@@VCWindow@ATL@@@ATL@@@8 00464bc4     MainGui.obj
 0003:00008c00       ??_R0?AVAboutGui@@@8       00464c00     MainGui.obj
 0003:00008c18       ??_R0?AV?$CDialogResize@VMainGui@@@WTL@@@8 00464c18     MainGui.obj
 0003:00008c48       ??_R0?AV?$CWinDataExchange@VMainGui@@@WTL@@@8 00464c48     MainGui.obj
 0003:00008c78       ??_R0?AV?$CDialogImpl@VMainGui@@VCWindow@ATL@@@ATL@@@8 00464c78     MainGui.obj
 0003:00008cb4       ??_R0?AVMainGui@@@8        00464cb4     MainGui.obj
 0003:00008ccc       ??_R0?AV?$CCustomDraw@VCMultiSelectTreeViewCtrl@@@WTL@@@8 00464ccc     MainGui.obj
 0003:00008d08       ??_R0?AV?$CTreeViewCtrlT@VCWindow@ATL@@@WTL@@@8 00464d08     MainGui.obj
 0003:00008d3c       ??_R0?AV?$CTreeViewCtrlExT@VCWindow@ATL@@@WTL@@@8 00464d3c     MainGui.obj
 0003:00008d70       ??_R0?AV?$CWindowImplRoot@V?$CTreeViewCtrlExT@VCWindow@ATL@@@WTL@@@ATL@@@8 00464d70     MainGui.obj
 0003:00008dc0       ??_R0?AV?$CWindowImplBaseT@V?$CTreeViewCtrlExT@VCWindow@ATL@@@WTL@@V?$CWinTraitsOR@$0CA@$0A@V?$CWinTraits@$0FGAAAAAA@$0A@@ATL@@@ATL@@@ATL@@@8 00464dc0     MainGui.obj
 0003:00008e50       ??_R0?AV?$CWindowImpl@VCMultiSelectTreeViewCtrl@@V?$CTreeViewCtrlExT@VCWindow@ATL@@@WTL@@V?$CWinTraitsOR@$0CA@$0A@V?$CWinTraits@$0FGAAAAAA@$0A@@ATL@@@ATL@@@ATL@@@8 00464e50     MainGui.obj
 0003:00008ef8       ??_R0?AV?$CMultiSelectTreeViewImpl@VCMultiSelectTreeViewCtrl@@V?$CTreeViewCtrlExT@VCWindow@ATL@@@WTL@@V?$CWinTraitsOR@$0CA@$0A@V?$CWinTraits@$0FGAAAAAA@$0A@@ATL@@@ATL@@@@@8 00464ef8     MainGui.obj
 0003:00008fa8       ??_R0?AVCMultiSelectTreeViewCtrl@@@8 00464fa8     MainGui.obj
 0003:00008fd0       ??_R0?AVCMessageFilter@WTL@@@8 00464fd0     MainGui.obj
 0003:00008ff4       ??_R0?AV?$CDialogResize@VPickApiGui@@@WTL@@@8 00464ff4     PickApiGui.obj
 0003:00009024       ??_R0?AV?$CWinDataExchange@VPickApiGui@@@WTL@@@8 00465024     PickApiGui.obj
 0003:00009058       ??_R0?AV?$CDialogImpl@VPickApiGui@@VCWindow@ATL@@@ATL@@@8 00465058     PickApiGui.obj
 0003:00009094       ??_R0?AVPickApiGui@@@8     00465094     PickApiGui.obj
 0003:000090b0       ??_R0?AV?$CDialogResize@VPickDllGui@@@WTL@@@8 004650b0     PickDllGui.obj
 0003:000090e0       ??_R0?AV?$CWinDataExchange@VPickDllGui@@@WTL@@@8 004650e0     PickDllGui.obj
 0003:00009114       ??_R0?AV?$CDialogImpl@VPickDllGui@@VCWindow@ATL@@@ATL@@@8 00465114     PickDllGui.obj
 0003:00009150       ??_R0?AVPickDllGui@@@8     00465150     PickDllGui.obj
 0003:0000916c       ??_R0?AVListboxLog@@@8     0046516c     Scylla.obj
 0003:00009188       ??_R0?AVTiXmlBase@@@8      00465188     TreeImportExport.obj
 0003:000091a0       ??_R0?AVTiXmlNode@@@8      004651a0     TreeImportExport.obj
 0003:000091b8       ??_R0?AVTiXmlDocument@@@8  004651b8     TreeImportExport.obj
 0003:000091e0       ?nullrep_@TiXmlString@@0URep@1@A 004651e0     tinyxml:tinystr.obj
 0003:000091ec       ?_AtlBaseModule@ATL@@3VCAtlBaseModule@1@A 004651ec     atls:atlbase.obj
 0003:00009224       ?__AtlThunkPool@@3PAT_SLIST_HEADER@@A 00465224     atls:atlthunk.obj
 0003:00009228       ?__AtlInterlockedPushEntrySList@@3P6GPAU_SINGLE_LIST_ENTRY@@PAT_SLIST_HEADER@@PAU1@@ZA 00465228     atls:atlthunk.obj
 0003:0000922c       ?__AtlInterlockedPopEntrySList@@3P6GPAU_SINGLE_LIST_ENTRY@@PAT_SLIST_HEADER@@@ZA 0046522c     atls:atlthunk.obj
 0003:00009230       ?_AtlComModule@ATL@@3VCAtlComModule@1@A 00465230     atls:atlcommodule.obj
 0003:00009258       ?_AtlWinModule@ATL@@3VCAtlWinModule@1@A 00465258     atls:atlwinmodule.obj
 0003:00009284       ___pInvalidArgHandler      00465284     LIBCMT:invarg.obj
 0003:00009298       __aenvptr                  00465298     LIBCMT:wwincrt0.obj
 0003:0000929c       __wenvptr                  0046529c     LIBCMT:wwincrt0.obj
 0003:000092a0       ___error_mode              004652a0     LIBCMT:wwincrt0.obj
 0003:000092a4       ___fastflag                004652a4     LIBCMT:_fpinit_.obj
 0003:000092a8       __adjust_fdiv              004652a8     LIBCMT:_fpinit_.obj
 0003:000095d4       ?__pInconsistency@@3P6AXXZA 004655d4     LIBCMT:hooks.obj
 0003:000095e4       ___mbulinfo                004655e4     LIBCMT:mbctype.obj
 0003:000095f0       ___mbcodepage              004655f0     LIBCMT:mbctype.obj
 0003:000095f4       ___ismbcodepage            004655f4     LIBCMT:mbctype.obj
 0003:000095f8       ___mblcid                  004655f8     LIBCMT:mbctype.obj
 0003:000095fc       ___locale_changed          004655fc     LIBCMT:setlocal.obj
 0003:00009600       ___lc_handle               00465600     LIBCMT:nlsdata2.obj
 0003:00009618       ___lc_codepage             00465618     LIBCMT:nlsdata2.obj
 0003:0000961c       ___lc_collate_cp           0046561c     LIBCMT:nlsdata2.obj
 0003:00009620       _gpFlsAlloc                00465620     LIBCMT:tidtable.obj
 0003:00009624       _gpFlsGetValue             00465624     LIBCMT:tidtable.obj
 0003:00009628       _gpFlsSetValue             00465628     LIBCMT:tidtable.obj
 0003:0000962c       _gpFlsFree                 0046562c     LIBCMT:tidtable.obj
 0003:00009630       __maxwait                  00465630     LIBCMT:crtheap.obj
 0003:00009634       __umaskval                 00465634     LIBCMT:crt0dat.obj
 0003:00009638       ___argc                    00465638     LIBCMT:crt0dat.obj
 0003:0000963c       ___argv                    0046563c     LIBCMT:crt0dat.obj
 0003:00009640       ___wargv                   00465640     LIBCMT:crt0dat.obj
 0003:00009644       __environ                  00465644     LIBCMT:crt0dat.obj
 0003:00009648       ___initenv                 00465648     LIBCMT:crt0dat.obj
 0003:0000964c       __wenviron                 0046564c     LIBCMT:crt0dat.obj
 0003:00009650       ___winitenv                00465650     LIBCMT:crt0dat.obj
 0003:00009654       __pgmptr                   00465654     LIBCMT:crt0dat.obj
 0003:00009658       __wpgmptr                  00465658     LIBCMT:crt0dat.obj
 0003:0000965c       __exitflag                 0046565c     LIBCMT:crt0dat.obj
 0003:00009660       __C_Termination_Done       00465660     LIBCMT:crt0dat.obj
 0003:00009664       __C_Exit_Done              00465664     LIBCMT:crt0dat.obj
 0003:00009668       ?_pnhHeap@@3P6AHI@ZA       00465668     LIBCMT:handler.obj
 0003:0000966c       __crtheap                  0046566c     LIBCMT:heapinit.obj
 0003:000097c0       ___sbh_pHeaderDefer        004657c0     LIBCMT:sbheap.obj
 0003:00009adc       __newmode                  00465adc     LIBCMT:_newmode.obj
 0003:00009ae0       __cflush                   00465ae0     LIBCMT:_file.obj
 0003:00009ae4       __stdbuf                   00465ae4     LIBCMT:_sftbuf.obj
 0003:00009af4       ___pPurecall               00465af4     LIBCMT:inithelp.obj
 0003:00009d1c       ?pArgList@UnDecorator@@0PAVReplicator@@A 00465d1c     LIBCMT:undname.obj
 0003:00009d20       ?pZNameList@UnDecorator@@0PAVReplicator@@A 00465d20     LIBCMT:undname.obj
 0003:00009d24       ?pTemplateArgList@UnDecorator@@0PAVReplicator@@A 00465d24     LIBCMT:undname.obj
 0003:00009d28       ?gName@UnDecorator@@0PBDB  00465d28     LIBCMT:undname.obj
 0003:00009d2c       ?name@UnDecorator@@0PBDB   00465d2c     LIBCMT:undname.obj
 0003:00009d30       ?outputString@UnDecorator@@0PADA 00465d30     LIBCMT:undname.obj
 0003:00009d34       ?maxStringLength@UnDecorator@@0HA 00465d34     LIBCMT:undname.obj
 0003:00009d38       ?disableFlags@UnDecorator@@0KA 00465d38     LIBCMT:undname.obj
 0003:00009d3c       ?m_pGetParameter@UnDecorator@@0P6APADJ@ZA 00465d3c     LIBCMT:undname.obj
 0003:00009d40       ?fExplicitTemplateParams@UnDecorator@@0_NA 00465d40     LIBCMT:undname.obj
 0003:00009d41       ?fGetTemplateArgumentList@UnDecorator@@0_NA 00465d41     LIBCMT:undname.obj
 0003:00009d48       ___lconv_static_null       00465d48     LIBCMT:lconv.obj
 0003:00009d80       __commode                  00465d80     LIBCMT:ncommode.obj
 0003:00009d84       __outputformat             00465d84     LIBCMT:outputformat.obj
 0003:00009e40       __fmode                    00465e40     LIBCMT:txtmode.obj
 0003:00009e44       ?m_bInitFailed@CAtlBaseModule@ATL@@2_NA 00465e44     AboutGui.obj
 0003:00009e45       ?_AtlRegisterPerUser@ATL@@3_NA 00465e45     AboutGui.obj
 0003:00009e48       ?_pAtlModule@ATL@@3PAVCAtlModule@1@A 00465e48     AboutGui.obj
 0003:00009e4c       ?_pModule@ATL@@3PAVCComModule@1@A 00465e4c     AboutGui.obj
 0003:00009e50       ?moduleThunkList@ApiReader@@2PAV?$map@KVImportModuleThunk@@U?$less@K@std@@V?$allocator@U?$pair@$$CBKVImportModuleThunk@@@std@@@3@@std@@A 00465e50     ApiReader.obj
 0003:00009e54       ?oldFilter@@3P6GJPAU_EXCEPTION_POINTERS@@@ZA 00465e54     main.obj
 0003:00009e58       ?protectionString@DumpMemoryGui@@0PA_WA 00465e58     DumpMemoryGui.obj
 0003:00009f20       ?fileHeaderFromDisk@ProcessAccessHelp@@2PAEA 00465f20     ProcessAccessHelp.obj
 0003:0000a6f0       ?selectedModule@ProcessAccessHelp@@2PAVModuleInfo@@A 004666f0     ProcessAccessHelp.obj
 0003:0000a6f8       ?decodedInstructions@ProcessAccessHelp@@2PAU_DecodedInst@@A 004666f8     ProcessAccessHelp.obj
 0003:00012a38       ?decomposerResult@ProcessAccessHelp@@2PAU_DInst@@A 0046ea38     ProcessAccessHelp.obj
 0003:00015c38       ?maxApiAddress@ApiReader@@2KA 00471c38     ApiReader.obj
 0003:00015c3c       ?hProcess@DllInjectionPlugin@@2PAXA 00471c3c     DllInjectionPlugin.obj
 0003:00015c40       ?pMainGui@@3PAVMainGui@@A  00471c40     main.obj
 0003:00015c44       ?IsDllMode@@3_NA           00471c44     main.obj
 0003:00015c48       ?NtCreateThreadEx@NativeWinApi@@2P6GJPAPAXKPAX1P6GK1@Z1HK111@ZA 00471c48     NativeWinApi.obj
 0003:00015c4c       ?NtDuplicateObject@NativeWinApi@@2P6GJPAX00PAPAXKEK@ZA 00471c4c     NativeWinApi.obj
 0003:00015c50       ?NtOpenProcess@NativeWinApi@@2P6GJPAPAXKPAXPAU_CLIENT_ID@@@ZA 00471c50     NativeWinApi.obj
 0003:00015c54       ?NtOpenThread@NativeWinApi@@2P6GJPAPAXKPAU_OBJECT_ATTRIBUTES@@PAU_CLIENT_ID@@@ZA 00471c54     NativeWinApi.obj
 0003:00015c58       ?NtQueryObject@NativeWinApi@@2P6GJPAXW4_OBJECT_INFORMATION_CLASS@@0KPAK@ZA 00471c58     NativeWinApi.obj
 0003:00015c5c       ?NtQueryInformationFile@NativeWinApi@@2P6GJPAXPAU_IO_STATUS_BLOCK@@0KW4_FILE_INFORMATION_CLASS@@@ZA 00471c5c     NativeWinApi.obj
 0003:00015c60       ?NtQueryInformationProcess@NativeWinApi@@2P6GJPAXW4_PROCESSINFOCLASS@@0KPAK@ZA 00471c60     NativeWinApi.obj
 0003:00015c64       ?NtQueryInformationThread@NativeWinApi@@2P6GJPAXW4_THREADINFOCLASS@@0KPAK@ZA 00471c64     NativeWinApi.obj
 0003:00015c68       ?NtQuerySystemInformation@NativeWinApi@@2P6GJW4_SYSTEM_INFORMATION_CLASS@@PAXKPAK@ZA 00471c68     NativeWinApi.obj
 0003:00015c6c       ?NtQueryVirtualMemory@NativeWinApi@@2P6GJPAX0W4_MEMORY_INFORMATION_CLASS@@0KPAK@ZA 00471c6c     NativeWinApi.obj
 0003:00015c70       ?NtResumeProcess@NativeWinApi@@2P6GJPAX@ZA 00471c70     NativeWinApi.obj
 0003:00015c74       ?NtResumeThread@NativeWinApi@@2P6GJPAXPAK@ZA 00471c74     NativeWinApi.obj
 0003:00015c78       ?NtSetInformationThread@NativeWinApi@@2P6GJPAXW4_THREADINFOCLASS@@0K@ZA 00471c78     NativeWinApi.obj
 0003:00015c7c       ?NtSuspendProcess@NativeWinApi@@2P6GJPAX@ZA 00471c7c     NativeWinApi.obj
 0003:00015c80       ?NtTerminateProcess@NativeWinApi@@2P6GJPAXJ@ZA 00471c80     NativeWinApi.obj
 0003:00015c84       ?NtOpenSymbolicLinkObject@NativeWinApi@@2P6GJPAPAXKPAU_OBJECT_ATTRIBUTES@@@ZA 00471c84     NativeWinApi.obj
 0003:00015c88       ?NtQuerySymbolicLinkObject@NativeWinApi@@2P6GJPAXPAU_UNICODE_STRING@@PAK@ZA 00471c88     NativeWinApi.obj
 0003:00015c8c       ?RtlNtStatusToDosError@NativeWinApi@@2P6GKJ@ZA 00471c8c     NativeWinApi.obj
 0003:00015c90       ?NtClose@NativeWinApi@@2P6GJPAX@ZA 00471c90     NativeWinApi.obj
 0003:00015c94       ?hProcess@ProcessAccessHelp@@2PAXA 00471c94     ProcessAccessHelp.obj
 0003:00015c98       ?targetImageBase@ProcessAccessHelp@@2KA 00471c98     ProcessAccessHelp.obj
 0003:00015c9c       ?targetSizeOfImage@ProcessAccessHelp@@2KA 00471c9c     ProcessAccessHelp.obj
 0003:00015ca0       ?maxValidAddress@ProcessAccessHelp@@2KA 00471ca0     ProcessAccessHelp.obj
 0003:00015ca4       ?decomposerInstructionsCount@ProcessAccessHelp@@2IA 00471ca4     ProcessAccessHelp.obj
 0003:00015ca8       ?decomposerCi@ProcessAccessHelp@@2U_CodeInfo@@A 00471ca8     ProcessAccessHelp.obj
 0003:00015cc8       ?decodedInstructionsCount@ProcessAccessHelp@@2IA 00471cc8     ProcessAccessHelp.obj
 0003:00015ccc       ?_IsWow64Process@ProcessLister@@2P6GHPAXPAH@ZA 00471ccc     ProcessLister.obj
 0003:00015cd0       ?currenOS@SystemInformation@@2W4OPERATING_SYSTEM@@A 00471cd0     SystemInformation.obj
 0003:00015cd8       ?apiList@ApiReader@@2V?$hash_multimap@KPAVApiInfo@@V?$hash_compare@KU?$less@K@std@@@stdext@@V?$allocator@U?$pair@$$CBKPAVApiInfo@@@std@@@std@@@stdext@@A 00471cd8     ApiReader.obj
 0003:00015d20       ?_Module@@3VCAppModule@WTL@@A 00471d20     main.obj
 0003:00015d5c       ?moduleList@ProcessAccessHelp@@2V?$vector@VModuleInfo@@V?$allocator@VModuleInfo@@@std@@@std@@A 00471d5c     ProcessAccessHelp.obj
 0003:00015d74       ?ownModuleList@ProcessAccessHelp@@2V?$vector@VModuleInfo@@V?$allocator@VModuleInfo@@@std@@@std@@A 00471d74     ProcessAccessHelp.obj
 0003:00015d8c       ?processLister@Scylla@@2VProcessLister@@A 00471d8c     Scylla.obj
 0003:00015da8       ?plugins@Scylla@@2VPluginLoader@@A 00471da8     Scylla.obj
 0003:000163f0       ?config@Scylla@@2VConfigurationHolder@@A 004723f0     Scylla.obj
 0003:00016618       ??_B?1??VTFromRegType@CRegParser@ATL@@KAHPB_WAAG@Z@51 00472618     main.obj
 0003:0001661c       ?bInitialized@?5??DeleteSubKey@CRegKey@ATL@@QAEJPB_W@Z@4_NA 0047261c     main.obj
 0003:00016620       ?pfnRegDeleteKeyEx@?5??DeleteSubKey@CRegKey@ATL@@QAEJPB_W@Z@4P6GJPAUHKEY__@@0KK@ZA 00472620     main.obj
 0003:00016624       ?map@?1??VTFromRegType@CRegParser@ATL@@KAHPB_WAAG@Z@4QBUtypemap@?1??123@KAH01@Z@B 00472624     main.obj
 0003:000169d0       ___sse2_available          004729d0     <common>
 0003:000169d4       __nhandle                  004729d4     <common>
 0003:000169e0       ___pioinfo                 004729e0     <common>
 0003:00016ae0       ___piob                    00472ae0     <common>
 0003:00016b00       __bufin                    00472b00     <common>
 0003:00017b00       __nstream                  00473b00     <common>
 0003:00017b04       ___sbh_cntHeaderList       00473b04     <common>
 0003:00017b08       ___sbh_pHeaderList         00473b08     <common>
 0003:00017b0c       ___sbh_threshold           00473b0c     <common>
 0003:00017b10       ___sbh_pHeaderScan         00473b10     <common>
 0003:00017b14       ___sbh_sizeHeaderList      00473b14     <common>
 0003:00017b18       ___sbh_indGroupDefer       00473b18     <common>
 0003:00017b1c       ___active_heap             00473b1c     <common>
 0003:00017b20       __debugger_hook_dummy      00473b20     <common>
 0003:00017b24       ___env_initialized         00473b24     <common>
 0003:00017b28       ___onexitend               00473b28     <common>
 0003:00017b2c       ___onexitbegin             00473b2c     <common>
 0003:00017b30       ___mbctype_initialized     00473b30     <common>
 0003:00017b34       ___dyn_tls_init_callback   00473b34     <common>
 0003:00017b38       __wcmdln                   00473b38     <common>

 entry point at        0001:000391b4

 Static symbols

 0001:000032a4       __catch$??0?$_Tree@V?$_Tmap_traits@KVImportThunk@@U?$less@K@std@@V?$allocator@U?$pair@$$CBKVImportThunk@@@std@@@3@$0A@@std@@@std@@QAE@ABV01@@Z$0 004042a4 f i  CIL library: CIL module
 0001:000046e2       __catch$?_Buynode@?$_Tree@V?$_Tmap_traits@KVImportModuleThunk@@U?$less@K@std@@V?$allocator@U?$pair@$$CBKVImportModuleThunk@@@std@@@3@$0A@@std@@@std@@IAEPAU_Node@?$_Tree_nod@V?$_Tmap_traits@KVImportModuleThunk@@U?$less@K@std@@V?$allocator@U?$pair@$$CBKVImportModuleThunk@@@std@@@3@$0A@@std@@@2@PAU342@00ABU?$pair@$$CBKVImportModuleThunk@@@2@D@Z$0 004056e2 f i  CIL library: CIL module
 0001:000047af       __catch$?_Copy@?$basic_string@DU?$char_traits@D@std@@V?$allocator@D@2@@std@@IAEXII@Z$0 004057af f i  CIL library: CIL module
 0001:0000483e       __catch$?_Copy@?$basic_string@DU?$char_traits@D@std@@V?$allocator@D@2@@std@@IAEXII@Z$1 0040583e f i  CIL library: CIL module
 0001:00004c74       __catch$?_Copy@?$_Tree@V?$_Tmap_traits@KVImportThunk@@U?$less@K@std@@V?$allocator@U?$pair@$$CBKVImportThunk@@@std@@@3@$0A@@std@@@std@@IAEPAU_Node@?$_Tree_nod@V?$_Tmap_traits@KVImportThunk@@U?$less@K@std@@V?$allocator@U?$pair@$$CBKVImportThunk@@@std@@@3@$0A@@std@@@2@PAU342@0@Z$0 00405c74 f i  CIL library: CIL module
 0001:00005960       __catch$?_Insert_n@?$vector@U_List_position@?$_Hash@V?$_Hmap_traits@KPAVApiInfo@@V?$hash_compare@KU?$less@K@std@@@stdext@@V?$allocator@U?$pair@$$CBKPAVApiInfo@@@std@@@std@@$00@stdext@@@stdext@@V?$allocator@U_List_position@?$_Hash@V?$_Hmap_traits@KPAVApiInfo@@V?$hash_compare@KU?$less@K@std@@@stdext@@V?$allocator@U?$pair@$$CBKPAVApiInfo@@@std@@@std@@$00@stdext@@@stdext@@@std@@@std@@IAEXV?$_Vector_const_iterator@U_List_position@?$_Hash@V?$_Hmap_traits@KPAVApiInfo@@V?$hash_compare@KU?$less@K@std@@@stdext@@V?$allocator@U?$pair@$$CBKPAVApiInfo@@@std@@@std@@$00@stdext@@@stdext@@V?$allocator@U_List_position@?$_Hash@V?$_Hmap_traits@KPAVApiInfo@@V?$hash_compare@KU?$less@K@std@@@stdext@@V?$allocator@U?$pair@$$CBKPAVApiInfo@@@std@@@std@@$00@stdext@@@stdext@@@std@@@2@IABU_List_position@?$_Hash@V?$_Hmap_traits@KPAVApiInfo@@V?$hash_compare@KU?$less@K@std@@@stdext@@V?$allocator@U?$pair@$$CBKPAVApiInfo@@@std@@@std@@$00@stdext@@@stdext@@@Z$0 00406960 f i  CIL library: CIL module
 0001:0000596c       __catch$?_Insert_n@?$vector@U_List_position@?$_Hash@V?$_Hmap_traits@KPAVApiInfo@@V?$hash_compare@KU?$less@K@std@@@stdext@@V?$allocator@U?$pair@$$CBKPAVApiInfo@@@std@@@std@@$00@stdext@@@stdext@@V?$allocator@U_List_position@?$_Hash@V?$_Hmap_traits@KPAVApiInfo@@V?$hash_compare@KU?$less@K@std@@@stdext@@V?$allocator@U?$pair@$$CBKPAVApiInfo@@@std@@@std@@$00@stdext@@@stdext@@@std@@@std@@IAEXV?$_Vector_const_iterator@U_List_position@?$_Hash@V?$_Hmap_traits@KPAVApiInfo@@V?$hash_compare@KU?$less@K@std@@@stdext@@V?$allocator@U?$pair@$$CBKPAVApiInfo@@@std@@@std@@$00@stdext@@@stdext@@V?$allocator@U_List_position@?$_Hash@V?$_Hmap_traits@KPAVApiInfo@@V?$hash_compare@KU?$less@K@std@@@stdext@@V?$allocator@U?$pair@$$CBKPAVApiInfo@@@std@@@std@@$00@stdext@@@stdext@@@std@@@2@IABU_List_position@?$_Hash@V?$_Hmap_traits@KPAVApiInfo@@V?$hash_compare@KU?$less@K@std@@@stdext@@V?$allocator@U?$pair@$$CBKPAVApiInfo@@@std@@@std@@$00@stdext@@@stdext@@@Z$2 0040696c f i  CIL library: CIL module
 0001:00007a30       __catch$?reserve@?$vector@VHardDisk@@V?$allocator@VHardDisk@@@std@@@std@@QAEXI@Z$0 00408a30 f i  CIL library: CIL module
 0001:00007ed9       __catch$?_Insert_n@?$vector@VHardDisk@@V?$allocator@VHardDisk@@@std@@@std@@IAEXV?$_Vector_const_iterator@VHardDisk@@V?$allocator@VHardDisk@@@std@@@2@IABVHardDisk@@@Z$0 00408ed9 f i  CIL library: CIL module
 0001:00007ee8       __catch$?_Insert_n@?$vector@VHardDisk@@V?$allocator@VHardDisk@@@std@@@std@@IAEXV?$_Vector_const_iterator@VHardDisk@@V?$allocator@VHardDisk@@@std@@@2@IABVHardDisk@@@Z$2 00408ee8 f i  CIL library: CIL module
 0001:0000a579       __catch$?_Insert_n@?$vector@VDisassemblerAddressComment@@V?$allocator@VDisassemblerAddressComment@@@std@@@std@@IAEXV?$_Vector_const_iterator@VDisassemblerAddressComment@@V?$allocator@VDisassemblerAddressComment@@@std@@@2@IABVDisassemblerAddressComment@@@Z$0 0040b579 f i  CIL library: CIL module
 0001:0000a588       __catch$?_Insert_n@?$vector@VDisassemblerAddressComment@@V?$allocator@VDisassemblerAddressComment@@@std@@@std@@IAEXV?$_Vector_const_iterator@VDisassemblerAddressComment@@V?$allocator@VDisassemblerAddressComment@@@std@@@2@IABVDisassemblerAddressComment@@@Z$2 0040b588 f i  CIL library: CIL module
 0001:0000e5dc       __catch$?reserve@?$vector@VMemory@@V?$allocator@VMemory@@@std@@@std@@QAEXI@Z$0 0040f5dc f i  CIL library: CIL module
 0001:0000eb02       __catch$?_Insert_n@?$vector@VMemory@@V?$allocator@VMemory@@@std@@@std@@IAEXV?$_Vector_const_iterator@VMemory@@V?$allocator@VMemory@@@std@@@2@IABVMemory@@@Z$0 0040fb02 f i  CIL library: CIL module
 0001:0000eb11       __catch$?_Insert_n@?$vector@VMemory@@V?$allocator@VMemory@@@std@@@std@@IAEXV?$_Vector_const_iterator@VMemory@@V?$allocator@VMemory@@@std@@@2@IABVMemory@@@Z$2 0040fb11 f i  CIL library: CIL module
 0001:00010659       __catch$?reserve@?$vector@VPeSection@@V?$allocator@VPeSection@@@std@@@std@@QAEXI@Z$0 00411659 f i  CIL library: CIL module
 0001:00010aa7       __catch$?_Insert_n@?$vector@VPeSection@@V?$allocator@VPeSection@@@std@@@std@@IAEXV?$_Vector_const_iterator@VPeSection@@V?$allocator@VPeSection@@@std@@@2@IABVPeSection@@@Z$0 00411aa7 f i  CIL library: CIL module
 0001:00010ab3       __catch$?_Insert_n@?$vector@VPeSection@@V?$allocator@VPeSection@@@std@@@std@@IAEXV?$_Vector_const_iterator@VPeSection@@V?$allocator@VPeSection@@@std@@@2@IABVPeSection@@@Z$2 00411ab3 f i  CIL library: CIL module
 0001:00012c2d       __catch$?reserve@?$vector@VIATReference@@V?$allocator@VIATReference@@@std@@@std@@QAEXI@Z$0 00413c2d f i  CIL library: CIL module
 0001:0001341f       __catch$?_Insert_n@?$vector@VIATReference@@V?$allocator@VIATReference@@@std@@@std@@IAEXV?$_Vector_const_iterator@VIATReference@@V?$allocator@VIATReference@@@std@@@2@IABVIATReference@@@Z$0 0041441f f i  CIL library: CIL module
 0001:0001342b       __catch$?_Insert_n@?$vector@VIATReference@@V?$allocator@VIATReference@@@std@@@std@@IAEXV?$_Vector_const_iterator@VIATReference@@V?$allocator@VIATReference@@@std@@@2@IABVIATReference@@@Z$2 0041442b f i  CIL library: CIL module
 0001:00018953       __catch$?_Copy@?$_Tree@V?$_Tmap_traits@KVImportModuleThunk@@U?$less@K@std@@V?$allocator@U?$pair@$$CBKVImportModuleThunk@@@std@@@3@$0A@@std@@@std@@IAEPAU_Node@?$_Tree_nod@V?$_Tmap_traits@KVImportModuleThunk@@U?$less@K@std@@V?$allocator@U?$pair@$$CBKVImportModuleThunk@@@std@@@3@$0A@@std@@@2@PAU342@0@Z$0 00419953 f i  CIL library: CIL module
 0001:00019ac0       __catch$?_Insert_n@?$vector@U_List_position@?$_Hash@V?$_Hmap_traits@PAU_TREEITEM@@UTreeItemData@ImportsHandling@@V?$hash_compare@PAU_TREEITEM@@U?$less@PAU_TREEITEM@@@std@@@stdext@@V?$allocator@U?$pair@QAU_TREEITEM@@UTreeItemData@ImportsHandling@@@std@@@std@@$0A@@stdext@@@stdext@@V?$allocator@U_List_position@?$_Hash@V?$_Hmap_traits@PAU_TREEITEM@@UTreeItemData@ImportsHandling@@V?$hash_compare@PAU_TREEITEM@@U?$less@PAU_TREEITEM@@@std@@@stdext@@V?$allocator@U?$pair@QAU_TREEITEM@@UTreeItemData@ImportsHandling@@@std@@@std@@$0A@@stdext@@@stdext@@@std@@@std@@IAEXV?$_Vector_const_iterator@U_List_position@?$_Hash@V?$_Hmap_traits@PAU_TREEITEM@@UTreeItemData@ImportsHandling@@V?$hash_compare@PAU_TREEITEM@@U?$less@PAU_TREEITEM@@@std@@@stdext@@V?$allocator@U?$pair@QAU_TREEITEM@@UTreeItemData@ImportsHandling@@@std@@@std@@$0A@@stdext@@@stdext@@V?$allocator@U_List_position@?$_Hash@V?$_Hmap_traits@PAU_TREEITEM@@UTreeItemData@ImportsHandling@@V?$hash_compare@PAU_TREEITEM@@U?$less@PAU_TREEITEM@@@std@@@stdext@@V?$allocator@U?$pair@QAU_TREEITEM@@UTreeItemData@ImportsHandling@@@std@@@std@@$0A@@stdext@@@stdext@@@std@@@2@IABU_List_position@?$_Hash@V?$_Hmap_traits@PAU_TREEITEM@@UTreeItemData@ImportsHandling@@V?$hash_compare@PAU_TREEITEM@@U?$less@PAU_TREEITEM@@@std@@@stdext@@V?$allocator@U?$pair@QAU_TREEITEM@@UTreeItemData@ImportsHandling@@@std@@@std@@$0A@@stdext@@@stdext@@@Z$0 0041aac0 f i  CIL library: CIL module
 0001:00019acc       __catch$?_Insert_n@?$vector@U_List_position@?$_Hash@V?$_Hmap_traits@PAU_TREEITEM@@UTreeItemData@ImportsHandling@@V?$hash_compare@PAU_TREEITEM@@U?$less@PAU_TREEITEM@@@std@@@stdext@@V?$allocator@U?$pair@QAU_TREEITEM@@UTreeItemData@ImportsHandling@@@std@@@std@@$0A@@stdext@@@stdext@@V?$allocator@U_List_position@?$_Hash@V?$_Hmap_traits@PAU_TREEITEM@@UTreeItemData@ImportsHandling@@V?$hash_compare@PAU_TREEITEM@@U?$less@PAU_TREEITEM@@@std@@@stdext@@V?$allocator@U?$pair@QAU_TREEITEM@@UTreeItemData@ImportsHandling@@@std@@@std@@$0A@@stdext@@@stdext@@@std@@@std@@IAEXV?$_Vector_const_iterator@U_List_position@?$_Hash@V?$_Hmap_traits@PAU_TREEITEM@@UTreeItemData@ImportsHandling@@V?$hash_compare@PAU_TREEITEM@@U?$less@PAU_TREEITEM@@@std@@@stdext@@V?$allocator@U?$pair@QAU_TREEITEM@@UTreeItemData@ImportsHandling@@@std@@@std@@$0A@@stdext@@@stdext@@V?$allocator@U_List_position@?$_Hash@V?$_Hmap_traits@PAU_TREEITEM@@UTreeItemData@ImportsHandling@@V?$hash_compare@PAU_TREEITEM@@U?$less@PAU_TREEITEM@@@std@@@stdext@@V?$allocator@U?$pair@QAU_TREEITEM@@UTreeItemData@ImportsHandling@@@std@@@std@@$0A@@stdext@@@stdext@@@std@@@2@IABU_List_position@?$_Hash@V?$_Hmap_traits@PAU_TREEITEM@@UTreeItemData@ImportsHandling@@V?$hash_compare@PAU_TREEITEM@@U?$less@PAU_TREEITEM@@@std@@@stdext@@V?$allocator@U?$pair@QAU_TREEITEM@@UTreeItemData@ImportsHandling@@@std@@@std@@$0A@@stdext@@@stdext@@@Z$2 0041aacc f i  CIL library: CIL module
 0001:0001a918       __catch$?Add@CExpansionVector@ATL@@QAEHPB_W0@Z$0 0041b918 f i  CIL library: CIL module
 0001:0001a96e       __catch$?Add@CExpansionVector@ATL@@QAEHPB_W0@Z$2 0041b96e f i  CIL library: CIL module
 0001:0001aea8       __catch$?RegisterFromResource@CRegObject@ATL@@IAEJPB_W00H@Z$3 0041bea8 f i  CIL library: CIL module
 0001:0001b5f5       __catch$?AddValue@CRegParser@ATL@@IAEJAAVCRegKey@2@PB_WPA_W@Z$2 0041c5f5 f i  CIL library: CIL module
 0001:0001b78d       __catch$?AddValue@CRegParser@ATL@@IAEJAAVCRegKey@2@PB_WPA_W@Z$0 0041c78d f i  CIL library: CIL module
 0001:0001ce45       __catch$?Init@CAppModule@WTL@@QAEJPAU_ATL_OBJMAP_ENTRY30@ATL@@PAUHINSTANCE__@@PBU_GUID@@@Z$0 0041de45 f i  CIL library: CIL module
 0001:0001fe00       __catch$?saveLogToFile@MainGui@@IAE_NPB_W@Z$0 00420e00 f    CIL library: CIL module
 0001:00027fc7       __catch$?reserve@?$vector@VPeFileSection@@V?$allocator@VPeFileSection@@@std@@@std@@QAEXI@Z$0 00428fc7 f i  CIL library: CIL module
 0001:000283c7       __catch$?_Insert_n@?$vector@VPeFileSection@@V?$allocator@VPeFileSection@@@std@@@std@@IAEXV?$_Vector_const_iterator@VPeFileSection@@V?$allocator@VPeFileSection@@@std@@@2@IABVPeFileSection@@@Z$0 004293c7 f i  CIL library: CIL module
 0001:000283d3       __catch$?_Insert_n@?$vector@VPeFileSection@@V?$allocator@VPeFileSection@@@std@@@std@@IAEXV?$_Vector_const_iterator@VPeFileSection@@V?$allocator@VPeFileSection@@@std@@@2@IABVPeFileSection@@@Z$2 004293d3 f i  CIL library: CIL module
 0001:0002b7d2       __catch$?_Insert_n@?$vector@VPlugin@@V?$allocator@VPlugin@@@std@@@std@@IAEXV?$_Vector_const_iterator@VPlugin@@V?$allocator@VPlugin@@@std@@@2@IABVPlugin@@@Z$0 0042c7d2 f i  CIL library: CIL module
 0001:0002b7e1       __catch$?_Insert_n@?$vector@VPlugin@@V?$allocator@VPlugin@@@std@@@std@@IAEXV?$_Vector_const_iterator@VPlugin@@V?$allocator@VPlugin@@@std@@@2@IABVPlugin@@@Z$2 0042c7e1 f i  CIL library: CIL module
 0001:0002c673       __catch$?reserve@?$vector@VModuleInfo@@V?$allocator@VModuleInfo@@@std@@@std@@QAEXI@Z$0 0042d673 f i  CIL library: CIL module
 0001:0002cb85       __catch$?_Insert_n@?$vector@VModuleInfo@@V?$allocator@VModuleInfo@@@std@@@std@@IAEXV?$_Vector_const_iterator@VModuleInfo@@V?$allocator@VModuleInfo@@@std@@@2@IABVModuleInfo@@@Z$0 0042db85 f i  CIL library: CIL module
 0001:0002cc57       __catch$?_Insert_n@?$vector@VModuleInfo@@V?$allocator@VModuleInfo@@@std@@@std@@IAEXV?$_Vector_const_iterator@VModuleInfo@@V?$allocator@VModuleInfo@@@std@@@2@IABVModuleInfo@@@Z$2 0042dc57 f i  CIL library: CIL module
 0001:0002d030       __catch$??$_Uninit_fill_n@PAVModuleInfo@@IV1@V?$allocator@VModuleInfo@@@std@@@std@@YAXPAVModuleInfo@@IABV1@AAV?$allocator@VModuleInfo@@@0@U_Nonscalar_ptr_iterator_tag@0@U_Range_checked_iterator_tag@0@@Z$0 0042e030 f i  CIL library: CIL module
 0001:0002d24a       __catch$??$_Uninit_copy@PAVModuleInfo@@PAV1@V?$allocator@VModuleInfo@@@std@@@std@@YAPAVModuleInfo@@PAV1@00AAV?$allocator@VModuleInfo@@@0@U_Nonscalar_ptr_iterator_tag@0@U_Range_checked_iterator_tag@0@@Z$0 0042e24a f i  CIL library: CIL module
 0001:0002d842       __catch$?reserve@?$vector@VProcess@@V?$allocator@VProcess@@@std@@@std@@QAEXI@Z$0 0042e842 f i  CIL library: CIL module
 0001:0002dbc5       __catch$?_Insert_n@?$vector@VProcess@@V?$allocator@VProcess@@@std@@@std@@IAEXV?$_Vector_const_iterator@VProcess@@V?$allocator@VProcess@@@std@@@2@IABVProcess@@@Z$0 0042ebc5 f i  CIL library: CIL module
 0001:0002dbd4       __catch$?_Insert_n@?$vector@VProcess@@V?$allocator@VProcess@@@std@@@std@@IAEXV?$_Vector_const_iterator@VProcess@@V?$allocator@VProcess@@@std@@@2@IABVProcess@@@Z$2 0042ebd4 f i  CIL library: CIL module
 0001:0002f0e0       _distorm_format_size       004300e0 f   diStorm:distorm.obj
 0001:0002f370       _distorm_format_signed_disp 00430370 f   diStorm:distorm.obj
 0001:0002fc20       _decode_get_effective_op_size 00430c20 f   diStorm:decoder.obj
 0001:0002fc70       _decode_inst               00430c70 f   diStorm:decoder.obj
 0001:000309d0       @read_stream_safe_sint@12  004319d0 f   diStorm:operands.obj
 0001:00030a60       _operands_extract_sib      00431a60 f   diStorm:operands.obj
 0001:00030b60       _operands_extract_modrm    00431b60 f   diStorm:operands.obj
 0001:00032af0       _inst_get_info             00433af0 f   diStorm:instructions.obj
 0001:00032b40       _inst_lookup_prefixed      00433b40 f   diStorm:instructions.obj
 0001:00032c90       _inst_vex_mod_lookup       00433c90 f   diStorm:instructions.obj
 0001:00032cc0       _inst_vex_lookup           00433cc0 f   diStorm:instructions.obj
 0001:00036b01       ?__InitializeThunkPool@@YAHXZ 00437b01 f   atls:atlthunk.obj
 0001:0003770f       __onexit_nolock            0043870f f   LIBCMT:onexit.obj
 0001:00037de7       ?wcstoxl@@YAKPAUlocaleinfo_struct@@PB_WPAPB_WHH@Z 00438de7 f   LIBCMT:wcstol.obj
 0001:00038d88       ?strtoxl@@YAKPAUlocaleinfo_struct@@PBDPAPBDHH@Z 00439d88 f   LIBCMT:strtol.obj
 0001:0003900e       _fast_error_exit           0043a00e f   LIBCMT:wwincrt0.obj
 0001:00039037       ___tmainCRTStartup         0043a037 f   LIBCMT:wwincrt0.obj
 0001:00039692       ?CatchGuardHandler@@YA?AW4_EXCEPTION_DISPOSITION@@PAUEHExceptionRecord@@PAUCatchGuardRN@@PAX2@Z 0043a692 f   LIBCMT:_trnsctrl_.obj
 0001:0003979c       ?TranslatorGuardHandler@@YA?AW4_EXCEPTION_DISPOSITION@@PAUEHExceptionRecord@@PAUTranslatorGuardRN@@PAX2@Z 0043a79c f   LIBCMT:_trnsctrl_.obj
 0001:0003af03       ?CPtoLCID@@YAHH@Z          0043bf03 f   LIBCMT:mbctype.obj
 0001:0003af32       ?setSBCS@@YAXPAUthreadmbcinfostruct@@@Z 0043bf32 f   LIBCMT:mbctype.obj
 0001:0003af96       ?setSBUpLow@@YAXPAUthreadmbcinfostruct@@@Z 0043bf96 f   LIBCMT:mbctype.obj
 0001:0003b1cd       ?getSystemCP@@YAHH@Z       0043c1cd f   LIBCMT:mbctype.obj
 0001:0003b857       __updatetlocinfoEx_nolock  0043c857 f   LIBCMT:setlocal.obj
 0001:0003c1f1       __initterm                 0043d1f1 f   LIBCMT:crt0dat.obj
 0001:0003c2b7       _doexit                    0043d2b7 f   LIBCMT:crt0dat.obj
 0001:0003c8f9       _write_char                0043d8f9 f   LIBCMT:woutputs.obj
 0001:0003c928       _write_multi_char          0043d928 f   LIBCMT:woutputs.obj
 0001:0003c94f       _write_string              0043d94f f   LIBCMT:woutputs.obj
 0001:0003ed8c       __unwind_handler4          0043fd8c f   LIBCMT:exsup4.obj
 0001:0003f9e7       _write_char                004409e7 f   LIBCMT:outputs.obj
 0001:0003f9e7       _write_char                004409e7 f   LIBCMT:outputs.obj
 0001:0003fa1a       _write_multi_char          00440a1a f   LIBCMT:outputs.obj
 0001:0003fa1a       _write_multi_char          00440a1a f   LIBCMT:outputs.obj
 0001:0003fa40       _write_string              00440a40 f   LIBCMT:outputs.obj
 0001:0003fa40       _write_string              00440a40 f   LIBCMT:outputs.obj
 0001:00041047       _flsall                    00442047 f   LIBCMT:fflush.obj
 0001:000414b7       _wparse_cmdline            004424b7 f   LIBCMT:wstdargv.obj
 0001:000417f5       _fastcopy_I                004427f5 f   LIBCMT:p4_memcpy.obj
 0001:0004195f       _has_osfxsr_set            0044295f f   LIBCMT:cpu_disp.obj
 0001:00041a1e       _fastzero_I                00442a1e f   LIBCMT:p4_memset.obj
 0001:00041cdd       ?ExFilterRethrow@@YAHPAU_EXCEPTION_POINTERS@@@Z 00442cdd f   LIBCMT:frame.obj
 0001:00041da0       ?IsInExceptionSpec@@YAEPAUEHExceptionRecord@@PBU_s_ESTypeList@@@Z 00442da0 f   LIBCMT:frame.obj
 0001:00041e1b       ?CallUnexpected@@YAXPBU_s_ESTypeList@@@Z 00442e1b f   LIBCMT:frame.obj
 0001:00041e4c       __catch$?CallUnexpected@@YAXPBU_s_ESTypeList@@@Z$0 00442e4c f   LIBCMT:frame.obj
 0001:00041e64       ?CallCatchBlock@@YAPAXPAUEHExceptionRecord@@PAUEHRegistrationNode@@PAU_CONTEXT@@PBU_s_FuncInfo@@PAXHK@Z 00442e64 f   LIBCMT:frame.obj
 0001:00042211       ?CatchIt@@YAXPAUEHExceptionRecord@@PAUEHRegistrationNode@@PAU_CONTEXT@@PAXPBU_s_FuncInfo@@PBU_s_HandlerType@@PBU_s_CatchableType@@PBU_s_TryBlockMapEntry@@H1E@Z 00443211 f   LIBCMT:frame.obj
 0001:0004227f       ?FindHandlerForForeignException@@YAXPAUEHExceptionRecord@@PAUEHRegistrationNode@@PAU_CONTEXT@@PAXPBU_s_FuncInfo@@HH1@Z 0044327f f   LIBCMT:frame.obj
 0001:00042373       ?FindHandler@@YAXPAUEHExceptionRecord@@PAUEHRegistrationNode@@PAU_CONTEXT@@PAXPBU_s_FuncInfo@@EH1@Z 00443373 f   LIBCMT:frame.obj
 0001:000439ac       __shift                    004449ac f   LIBCMT:cvt.obj
 0001:000439f1       __cftoe2_l                 004449f1 f   LIBCMT:cvt.obj
 0001:00043fc3       __cftof2_l                 00444fc3 f   LIBCMT:cvt.obj
 0001:000443ed       ?__crtLCMapStringA_stat@@YAHPAUlocaleinfo_struct@@KKPBDHPADHHH@Z 004453ed f   LIBCMT:a_map.obj
 0001:0004492d       ?__crtGetStringTypeA_stat@@YAHPAUlocaleinfo_struct@@KPBDHPAGHHH@Z 0044592d f   LIBCMT:a_str.obj
 0001:00044f23       _siglookup                 00445f23 f   LIBCMT:winsig.obj
 0001:00045fc7       __tsopen_nolock            00446fc7 f   LIBCMT:wopen.obj
 0001:0004682c       __unwind_handler           0044782c f   LIBCMT:exsup.obj
 0001:0004912a       __hw_cw                    0044a12a f   LIBCMT:_ieee87_.obj
 0001:000491b8       ___hw_cw_sse2              0044a1b8 f   LIBCMT:_ieee87_.obj
 0001:00049650       __unwindfunclet$?assign@TiXmlString@@QAEAAV1@PBDI@Z$0 0044a650 f   tinyxml:tinystr.obj
 0001:00049650       __unwindfunclet$?Print@TiXmlText@@UBEXPAU_iobuf@@H@Z$0 0044a650 f   tinyxml:tinystr.obj
 0001:00049658       __ehhandler$?Print@TiXmlText@@UBEXPAU_iobuf@@H@Z 0044a658 f   tinyxml:tinystr.obj
 0001:00049658       __ehhandler$?assign@TiXmlString@@QAEAAV1@PBDI@Z 0044a658 f   tinyxml:tinystr.obj
 0001:00049680       __unwindfunclet$??1TiXmlNode@@UAE@XZ$0 0044a680 f   tinyxml:tinyxml.obj
 0001:00049688       __unwindfunclet$??1TiXmlNode@@UAE@XZ$1 0044a688 f   tinyxml:tinyxml.obj
 0001:00049693       __ehhandler$??1TiXmlNode@@UAE@XZ 0044a693 f   tinyxml:tinyxml.obj
 0001:000496b0       __unwindfunclet$??0TiXmlDocument@@QAE@XZ$0 0044a6b0 f   tinyxml:tinyxml.obj
 0001:000496b8       __unwindfunclet$??0TiXmlDocument@@QAE@XZ$1 0044a6b8 f   tinyxml:tinyxml.obj
 0001:000496c3       __ehhandler$??0TiXmlDocument@@QAE@XZ 0044a6c3 f   tinyxml:tinyxml.obj
 0001:000496e0       __unwindfunclet$?Clone@TiXmlElement@@UBEPAVTiXmlNode@@XZ$0 0044a6e0 f   tinyxml:tinyxml.obj
 0001:000496e0       __unwindfunclet$?Clone@TiXmlDocument@@MBEPAVTiXmlNode@@XZ$0 0044a6e0 f   tinyxml:tinyxml.obj
 0001:000496eb       __ehhandler$?Clone@TiXmlDocument@@MBEPAVTiXmlNode@@XZ 0044a6eb f   tinyxml:tinyxml.obj
 0001:000496eb       __ehhandler$?Clone@TiXmlElement@@UBEPAVTiXmlNode@@XZ 0044a6eb f   tinyxml:tinyxml.obj
 0001:00049710       __unwindfunclet$?Print@TiXmlAttribute@@QBEXPAU_iobuf@@HPAVTiXmlString@@@Z$0 0044a710 f   tinyxml:tinyxml.obj
 0001:00049718       __unwindfunclet$?Print@TiXmlAttribute@@QBEXPAU_iobuf@@HPAVTiXmlString@@@Z$1 0044a718 f   tinyxml:tinyxml.obj
 0001:00049720       __ehhandler$?Print@TiXmlAttribute@@QBEXPAU_iobuf@@HPAVTiXmlString@@@Z 0044a720 f   tinyxml:tinyxml.obj
 0001:00049740       __unwindfunclet$??0TiXmlDeclaration@@QAE@PBD00@Z$0 0044a740 f   tinyxml:tinyxml.obj
 0001:00049748       __unwindfunclet$??0TiXmlDeclaration@@QAE@PBD00@Z$1 0044a748 f   tinyxml:tinyxml.obj
 0001:00049753       __unwindfunclet$??0TiXmlDeclaration@@QAE@PBD00@Z$2 0044a753 f   tinyxml:tinyxml.obj
 0001:0004975e       __unwindfunclet$??0TiXmlDeclaration@@QAE@PBD00@Z$3 0044a75e f   tinyxml:tinyxml.obj
 0001:00049769       __ehhandler$??0TiXmlDeclaration@@QAE@PBD00@Z 0044a769 f   tinyxml:tinyxml.obj
 0001:00049790       __unwindfunclet$??1TiXmlAttribute@@UAE@XZ$0 0044a790 f   tinyxml:tinyxml.obj
 0001:00049790       __unwindfunclet$??1TiXmlAttributeSet@@QAE@XZ$1 0044a790 f   tinyxml:tinyxml.obj
 0001:00049790       __unwindfunclet$??_GTiXmlAttribute@@UAEPAXI@Z$0 0044a790 f   tinyxml:tinyxml.obj
 0001:00049798       __unwindfunclet$??1TiXmlAttributeSet@@QAE@XZ$2 0044a798 f   tinyxml:tinyxml.obj
 0001:00049798       __unwindfunclet$??1TiXmlAttribute@@UAE@XZ$1 0044a798 f   tinyxml:tinyxml.obj
 0001:00049798       __unwindfunclet$??_GTiXmlAttribute@@UAEPAXI@Z$1 0044a798 f   tinyxml:tinyxml.obj
 0001:000497a3       __ehhandler$??_GTiXmlAttribute@@UAEPAXI@Z 0044a7a3 f   tinyxml:tinyxml.obj
 0001:000497a3       __ehhandler$??1TiXmlAttributeSet@@QAE@XZ 0044a7a3 f   tinyxml:tinyxml.obj
 0001:000497a3       __ehhandler$??1TiXmlAttribute@@UAE@XZ 0044a7a3 f   tinyxml:tinyxml.obj
 0001:000497c0       __unwindfunclet$??0TiXmlText@@QAE@PBD@Z$0 0044a7c0 f   tinyxml:tinyxml.obj
 0001:000497c8       __ehhandler$??0TiXmlText@@QAE@PBD@Z 0044a7c8 f   tinyxml:tinyxml.obj
 0001:000497f0       __unwindfunclet$??1TiXmlDeclaration@@UAE@XZ$0 0044a7f0 f   tinyxml:tinyxml.obj
 0001:000497f8       __unwindfunclet$??1TiXmlDeclaration@@UAE@XZ$1 0044a7f8 f   tinyxml:tinyxml.obj
 0001:00049803       __unwindfunclet$??1TiXmlDeclaration@@UAE@XZ$2 0044a803 f   tinyxml:tinyxml.obj
 0001:0004980e       __ehhandler$??1TiXmlDeclaration@@UAE@XZ 0044a80e f   tinyxml:tinyxml.obj
 0001:00049830       __unwindfunclet$??0TiXmlElement@@QAE@PBD@Z$0 0044a830 f   tinyxml:tinyxml.obj
 0001:00049838       __unwindfunclet$??0TiXmlElement@@QAE@PBD@Z$1 0044a838 f   tinyxml:tinyxml.obj
 0001:00049843       __ehhandler$??0TiXmlElement@@QAE@PBD@Z 0044a843 f   tinyxml:tinyxml.obj
 0001:00049860       __unwindfunclet$??1TiXmlElement@@UAE@XZ$0 0044a860 f   tinyxml:tinyxml.obj
 0001:00049868       __unwindfunclet$??1TiXmlElement@@UAE@XZ$1 0044a868 f   tinyxml:tinyxml.obj
 0001:00049873       __ehhandler$??1TiXmlElement@@UAE@XZ 0044a873 f   tinyxml:tinyxml.obj
 0001:00049890       __unwindfunclet$?Clone@TiXmlText@@MBEPAVTiXmlNode@@XZ$0 0044a890 f   tinyxml:tinyxml.obj
 0001:0004989b       __unwindfunclet$?Clone@TiXmlText@@MBEPAVTiXmlNode@@XZ$1 0044a89b f   tinyxml:tinyxml.obj
 0001:000498a3       __ehhandler$?Clone@TiXmlText@@MBEPAVTiXmlNode@@XZ 0044a8a3 f   tinyxml:tinyxml.obj
 0001:000498c0       __unwindfunclet$?GetEntity@TiXmlBase@@KAPBDPBDPADPAHW4TiXmlEncoding@@@Z$0 0044a8c0 f   tinyxml:tinyxmlparser.obj
 0001:000498c0       __unwindfunclet$?reserve@TiXmlString@@QAEXI@Z$0 0044a8c0 f   tinyxml:tinyxmlparser.obj
 0001:000498c8       __ehhandler$?GetEntity@TiXmlBase@@KAPBDPBDPADPAHW4TiXmlEncoding@@@Z 0044a8c8 f   tinyxml:tinyxmlparser.obj
 0001:000498c8       __ehhandler$?reserve@TiXmlString@@QAEXI@Z 0044a8c8 f   tinyxml:tinyxmlparser.obj
 0001:000498f0       __unwindfunclet$?Identify@TiXmlNode@@IAEPAV1@PBDW4TiXmlEncoding@@@Z$0 0044a8f0 f   tinyxml:tinyxmlparser.obj
 0001:000498fb       __unwindfunclet$?Identify@TiXmlNode@@IAEPAV1@PBDW4TiXmlEncoding@@@Z$1 0044a8fb f   tinyxml:tinyxmlparser.obj
 0001:00049906       __unwindfunclet$?Identify@TiXmlNode@@IAEPAV1@PBDW4TiXmlEncoding@@@Z$2 0044a906 f   tinyxml:tinyxmlparser.obj
 0001:00049911       __unwindfunclet$?Identify@TiXmlNode@@IAEPAV1@PBDW4TiXmlEncoding@@@Z$3 0044a911 f   tinyxml:tinyxmlparser.obj
 0001:0004991c       __unwindfunclet$?Identify@TiXmlNode@@IAEPAV1@PBDW4TiXmlEncoding@@@Z$5 0044a91c f   tinyxml:tinyxmlparser.obj
 0001:00049927       __unwindfunclet$?Identify@TiXmlNode@@IAEPAV1@PBDW4TiXmlEncoding@@@Z$4 0044a927 f   tinyxml:tinyxmlparser.obj
 0001:00049932       __ehhandler$?Identify@TiXmlNode@@IAEPAV1@PBDW4TiXmlEncoding@@@Z 0044a932 f   tinyxml:tinyxmlparser.obj
 0001:00049950       __unwindfunclet$?ReadValue@TiXmlElement@@IAEPBDPBDPAVTiXmlParsingData@@W4TiXmlEncoding@@@Z$0 0044a950 f   tinyxml:tinyxmlparser.obj
 0001:0004995b       __unwindfunclet$?ReadValue@TiXmlElement@@IAEPBDPBDPAVTiXmlParsingData@@W4TiXmlEncoding@@@Z$1 0044a95b f   tinyxml:tinyxmlparser.obj
 0001:00049963       __ehhandler$?ReadValue@TiXmlElement@@IAEPBDPBDPAVTiXmlParsingData@@W4TiXmlEncoding@@@Z 0044a963 f   tinyxml:tinyxmlparser.obj
 0001:00049980       __unwindfunclet$?Parse@TiXmlText@@UAEPBDPBDPAVTiXmlParsingData@@W4TiXmlEncoding@@@Z$0 0044a980 f   tinyxml:tinyxmlparser.obj
 0001:00049980       __unwindfunclet$?Parse@TiXmlElement@@UAEPBDPBDPAVTiXmlParsingData@@W4TiXmlEncoding@@@Z$0 0044a980 f   tinyxml:tinyxmlparser.obj
 0001:00049988       __ehhandler$?Parse@TiXmlText@@UAEPBDPBDPAVTiXmlParsingData@@W4TiXmlEncoding@@@Z 0044a988 f   tinyxml:tinyxmlparser.obj
 0001:00049988       __ehhandler$?Parse@TiXmlElement@@UAEPBDPBDPAVTiXmlParsingData@@W4TiXmlEncoding@@@Z 0044a988 f   tinyxml:tinyxmlparser.obj
 0001:000499b0       __unwindfunclet$?Parse@TiXmlDeclaration@@UAEPBDPBDPAVTiXmlParsingData@@W4TiXmlEncoding@@@Z$0 0044a9b0 f   tinyxml:tinyxmlparser.obj
 0001:000499b8       __unwindfunclet$?Parse@TiXmlDeclaration@@UAEPBDPBDPAVTiXmlParsingData@@W4TiXmlEncoding@@@Z$3 0044a9b8 f   tinyxml:tinyxmlparser.obj
 0001:000499c0       __unwindfunclet$?Parse@TiXmlDeclaration@@UAEPBDPBDPAVTiXmlParsingData@@W4TiXmlEncoding@@@Z$4 0044a9c0 f   tinyxml:tinyxmlparser.obj
 0001:000499c8       __unwindfunclet$?Parse@TiXmlDeclaration@@UAEPBDPBDPAVTiXmlParsingData@@W4TiXmlEncoding@@@Z$1 0044a9c8 f   tinyxml:tinyxmlparser.obj
 0001:000499d0       __unwindfunclet$?Parse@TiXmlDeclaration@@UAEPBDPBDPAVTiXmlParsingData@@W4TiXmlEncoding@@@Z$6 0044a9d0 f   tinyxml:tinyxmlparser.obj
 0001:000499d8       __unwindfunclet$?Parse@TiXmlDeclaration@@UAEPBDPBDPAVTiXmlParsingData@@W4TiXmlEncoding@@@Z$7 0044a9d8 f   tinyxml:tinyxmlparser.obj
 0001:000499e0       __unwindfunclet$?Parse@TiXmlDeclaration@@UAEPBDPBDPAVTiXmlParsingData@@W4TiXmlEncoding@@@Z$2 0044a9e0 f   tinyxml:tinyxmlparser.obj
 0001:000499eb       __ehhandler$?Parse@TiXmlDeclaration@@UAEPBDPBDPAVTiXmlParsingData@@W4TiXmlEncoding@@@Z 0044a9eb f   tinyxml:tinyxmlparser.obj
 0001:00049a09       __unwindfunclet$?_Xran@_String_base@std@@SAXXZ$0 0044aa09 f   libcpmt:string.obj
 0001:00049a09       __unwindfunclet$?_Xlen@_String_base@std@@SAXXZ$0 0044aa09 f   libcpmt:string.obj
 0001:00049a11       __ehhandler$?_Xlen@_String_base@std@@SAXXZ 0044aa11 f   libcpmt:string.obj
 0001:00049a11       __ehhandler$?_Xran@_String_base@std@@SAXXZ 0044aa11 f   libcpmt:string.obj
 0001:00049a2c       __ehhandler$?CallUnexpected@@YAXPBU_s_ESTypeList@@@Z 0044aa2c f   LIBCMT:frame.obj
 0001:00049a50       __ehhandler$?saveLogToFile@MainGui@@IAE_NPB_W@Z 0044aa50 f    CIL library: CIL module
 0001:00049a80       __unwindfunclet$?getImportXmlElement@TreeImportExport@@AAEPAVTiXmlElement@@PBVImportThunk@@@Z$0 0044aa80 f    CIL library: CIL module
 0001:00049a8b       __unwindfunclet$?getImportXmlElement@TreeImportExport@@AAEPAVTiXmlElement@@PBVImportThunk@@@Z$1 0044aa8b f    CIL library: CIL module
 0001:00049a96       __ehhandler$?getImportXmlElement@TreeImportExport@@AAEPAVTiXmlElement@@PBVImportThunk@@@Z 0044aa96 f    CIL library: CIL module
 0001:00049ac0       __unwindfunclet$?DisplayContextMenuLog@MainGui@@IAEXVCWindow@ATL@@VCPoint@WTL@@@Z$0 0044aac0 f    CIL library: CIL module
 0001:00049ac5       __ehhandler$?DisplayContextMenuLog@MainGui@@IAEXVCWindow@ATL@@VCPoint@WTL@@@Z 0044aac5 f    CIL library: CIL module
 0001:00049af0       __ehhandler$?Init@CAppModule@WTL@@QAEJPAU_ATL_OBJMAP_ENTRY30@ATL@@PAUHINSTANCE__@@PBU_GUID@@@Z 0044aaf0 f    CIL library: CIL module
 0001:00049b10       __ehhandler$?_Copy@?$_Tree@V?$_Tmap_traits@KVImportThunk@@U?$less@K@std@@V?$allocator@U?$pair@$$CBKVImportThunk@@@std@@@3@$0A@@std@@@std@@IAEPAU_Node@?$_Tree_nod@V?$_Tmap_traits@KVImportThunk@@U?$less@K@std@@V?$allocator@U?$pair@$$CBKVImportThunk@@@std@@@3@$0A@@std@@@2@PAU342@0@Z 0044ab10 f    CIL library: CIL module
 0001:00049b30       __ehhandler$?_Copy@?$basic_string@DU?$char_traits@D@std@@V?$allocator@D@2@@std@@IAEXII@Z 0044ab30 f    CIL library: CIL module
 0001:00049b50       __unwindfunclet$??0logic_error@std@@QAE@ABV?$basic_string@DU?$char_traits@D@std@@V?$allocator@D@2@@1@@Z$0 0044ab50 f    CIL library: CIL module
 0001:00049b58       __ehhandler$??0logic_error@std@@QAE@ABV?$basic_string@DU?$char_traits@D@std@@V?$allocator@D@2@@1@@Z 0044ab58 f    CIL library: CIL module
 0001:00049b80       __unwindfunclet$?AddValue@CRegParser@ATL@@IAEJAAVCRegKey@2@PB_WPA_W@Z$6 0044ab80 f    CIL library: CIL module
 0001:00049b8b       __unwindfunclet$?AddValue@CRegParser@ATL@@IAEJAAVCRegKey@2@PB_WPA_W@Z$4 0044ab8b f    CIL library: CIL module
 0001:00049b96       __ehhandler$?AddValue@CRegParser@ATL@@IAEJAAVCRegKey@2@PB_WPA_W@Z 0044ab96 f    CIL library: CIL module
 0001:00049bc0       __unwindfunclet$?write@Logger@@MAEXPBD@Z$0 0044abc0 f    CIL library: CIL module
 0001:00049bcb       __ehhandler$?write@Logger@@MAEXPBD@Z 0044abcb f    CIL library: CIL module
 0001:00049bf0       __unwindfunclet$??1DisassemblerGui@@UAE@XZ$0 0044abf0 f    CIL library: CIL module
 0001:00049bf8       __unwindfunclet$??1DisassemblerGui@@UAE@XZ$1 0044abf8 f    CIL library: CIL module
 0001:00049c03       __unwindfunclet$??1DisassemblerGui@@UAE@XZ$2 0044ac03 f    CIL library: CIL module
 0001:00049c11       __unwindfunclet$??1DisassemblerGui@@UAE@XZ$3 0044ac11 f    CIL library: CIL module
 0001:00049c1f       __ehhandler$??1DisassemblerGui@@UAE@XZ 0044ac1f f    CIL library: CIL module
 0001:00049c40       __unwindfunclet$??0logic_error@std@@QAE@ABV01@@Z$0 0044ac40 f    CIL library: CIL module
 0001:00049c48       __ehhandler$??0logic_error@std@@QAE@ABV01@@Z 0044ac48 f    CIL library: CIL module
 0001:00049c70       __unwindfunclet$?getModuleXmlElement@TreeImportExport@@AAEPAVTiXmlElement@@PBVImportModuleThunk@@@Z$0 0044ac70 f    CIL library: CIL module
 0001:00049c7b       __ehhandler$?getModuleXmlElement@TreeImportExport@@AAEPAVTiXmlElement@@PBVImportModuleThunk@@@Z 0044ac7b f    CIL library: CIL module
 0001:00049ca0       __unwindfunclet$?exportTreeList@TreeImportExport@@QAE_NABV?$map@KVImportModuleThunk@@U?$less@K@std@@V?$allocator@U?$pair@$$CBKVImportModuleThunk@@@std@@@3@@std@@PBVProcess@@KKK@Z$0 0044aca0 f    CIL library: CIL module
 0001:00049ca8       __unwindfunclet$?exportTreeList@TreeImportExport@@QAE_NABV?$map@KVImportModuleThunk@@U?$less@K@std@@V?$allocator@U?$pair@$$CBKVImportModuleThunk@@@std@@@3@@std@@PBVProcess@@KKK@Z$1 0044aca8 f    CIL library: CIL module
 0001:00049cb3       __unwindfunclet$?exportTreeList@TreeImportExport@@QAE_NABV?$map@KVImportModuleThunk@@U?$less@K@std@@V?$allocator@U?$pair@$$CBKVImportModuleThunk@@@std@@@3@@std@@PBVProcess@@KKK@Z$2 0044acb3 f    CIL library: CIL module
 0001:00049cbe       __ehhandler$?exportTreeList@TreeImportExport@@QAE_NABV?$map@KVImportModuleThunk@@U?$less@K@std@@V?$allocator@U?$pair@$$CBKVImportModuleThunk@@@std@@@3@@std@@PBVProcess@@KKK@Z 0044acbe f    CIL library: CIL module
 0001:00049ce0       __ehhandler$?_Insert_n@?$vector@VPlugin@@V?$allocator@VPlugin@@@std@@@std@@IAEXV?$_Vector_const_iterator@VPlugin@@V?$allocator@VPlugin@@@std@@@2@IABVPlugin@@@Z 0044ace0 f    CIL library: CIL module
 0001:00049d10       __ehhandler$?reserve@?$vector@VPeFileSection@@V?$allocator@VPeFileSection@@@std@@@std@@QAEXI@Z 0044ad10 f    CIL library: CIL module
 0001:00049d30       __unwindfunclet$?optionsActionHandler@MainGui@@IAEXXZ$0 0044ad30 f    CIL library: CIL module
 0001:00049d38       __ehhandler$?optionsActionHandler@MainGui@@IAEXXZ 0044ad38 f    CIL library: CIL module
 0001:00049d60       __unwindfunclet$?showDonateDialog@MainGui@@IAEXXZ$0 0044ad60 f    CIL library: CIL module
 0001:00049d68       __ehhandler$?showDonateDialog@MainGui@@IAEXXZ 0044ad68 f    CIL library: CIL module
 0001:00049d90       __unwindfunclet$?showAboutDialog@MainGui@@IAEXXZ$0 0044ad90 f    CIL library: CIL module
 0001:00049d98       __ehhandler$?showAboutDialog@MainGui@@IAEXXZ 0044ad98 f    CIL library: CIL module
 0001:00049dc0       __unwindfunclet$?RegisterSubkeys@CRegParser@ATL@@IAEJPA_WPAUHKEY__@@HH@Z$2 0044adc0 f    CIL library: CIL module
 0001:00049dcb       __unwindfunclet$?RegisterSubkeys@CRegParser@ATL@@IAEJPA_WPAUHKEY__@@HH@Z$4 0044adcb f    CIL library: CIL module
 0001:00049dd6       __ehhandler$?RegisterSubkeys@CRegParser@ATL@@IAEJPA_WPAUHKEY__@@HH@Z 0044add6 f    CIL library: CIL module
 0001:00049e00       __unwindfunclet$?Add@CExpansionVector@ATL@@QAEHPB_W0@Z$4 0044ae00 f    CIL library: CIL module
 0001:00049e08       __unwindfunclet$?Add@CExpansionVector@ATL@@QAEHPB_W0@Z$5 0044ae08 f    CIL library: CIL module
 0001:00049e10       __ehhandler$?Add@CExpansionVector@ATL@@QAEHPB_W0@Z 0044ae10 f    CIL library: CIL module
 0001:00049e30       __ehhandler$?reserve@?$vector@VIATReference@@V?$allocator@VIATReference@@@std@@@std@@QAEXI@Z 0044ae30 f    CIL library: CIL module
 0001:00049e50       __unwindfunclet$?numberOfFoundUniqueDirectImports@IATReferenceScan@@QAEHXZ$0 0044ae50 f    CIL library: CIL module
 0001:00049e5a       __unwindfunclet$?numberOfFoundUniqueDirectImports@IATReferenceScan@@QAEHXZ$3 0044ae5a f    CIL library: CIL module
 0001:00049e62       __ehhandler$?numberOfFoundUniqueDirectImports@IATReferenceScan@@QAEHXZ 0044ae62 f    CIL library: CIL module
 0001:00049e80       __unwindfunclet$?_Xlen@?$vector@VProcess@@V?$allocator@VProcess@@@std@@@std@@KAXXZ$0 0044ae80 f    CIL library: CIL module
 0001:00049e80       __unwindfunclet$?_Xlen@?$vector@VPlugin@@V?$allocator@VPlugin@@@std@@@std@@KAXXZ$0 0044ae80 f    CIL library: CIL module
 0001:00049e80       __unwindfunclet$?_Xlen@?$vector@VHardDisk@@V?$allocator@VHardDisk@@@std@@@std@@KAXXZ$0 0044ae80 f    CIL library: CIL module
 0001:00049e80       __unwindfunclet$?_Xlen@?$vector@VModuleInfo@@V?$allocator@VModuleInfo@@@std@@@std@@KAXXZ$0 0044ae80 f    CIL library: CIL module
 0001:00049e80       __unwindfunclet$?_Xlen@?$vector@U_List_position@?$_Hash@V?$_Hmap_traits@KPAVApiInfo@@V?$hash_compare@KU?$less@K@std@@@stdext@@V?$allocator@U?$pair@$$CBKPAVApiInfo@@@std@@@std@@$00@stdext@@@stdext@@V?$allocator@U_List_position@?$_Hash@V?$_Hmap_traits@KPAVApiInfo@@V?$hash_compare@KU?$less@K@std@@@stdext@@V?$allocator@U?$pair@$$CBKPAVApiInfo@@@std@@@std@@$00@stdext@@@stdext@@@std@@@std@@KAXXZ$0 0044ae80 f    CIL library: CIL module
 0001:00049e88       __ehhandler$?_Xlen@?$vector@VPlugin@@V?$allocator@VPlugin@@@std@@@std@@KAXXZ 0044ae88 f    CIL library: CIL module
 0001:00049e88       __ehhandler$?_Xlen@?$vector@VProcess@@V?$allocator@VProcess@@@std@@@std@@KAXXZ 0044ae88 f    CIL library: CIL module
 0001:00049e88       __ehhandler$?_Xlen@?$vector@VHardDisk@@V?$allocator@VHardDisk@@@std@@@std@@KAXXZ 0044ae88 f    CIL library: CIL module
 0001:00049e88       __ehhandler$?_Xlen@?$vector@VModuleInfo@@V?$allocator@VModuleInfo@@@std@@@std@@KAXXZ 0044ae88 f    CIL library: CIL module
 0001:00049e88       __ehhandler$?_Xlen@?$vector@U_List_position@?$_Hash@V?$_Hmap_traits@KPAVApiInfo@@V?$hash_compare@KU?$less@K@std@@@stdext@@V?$allocator@U?$pair@$$CBKPAVApiInfo@@@std@@@std@@$00@stdext@@@stdext@@V?$allocator@U_List_position@?$_Hash@V?$_Hmap_traits@KPAVApiInfo@@V?$hash_compare@KU?$less@K@std@@@stdext@@V?$allocator@U?$pair@$$CBKPAVApiInfo@@@std@@@std@@$00@stdext@@@stdext@@@std@@@std@@KAXXZ 0044ae88 f    CIL library: CIL module
 0001:00049eb0       __unwindfunclet$??0?$vector@VProcess@@V?$allocator@VProcess@@@std@@@std@@QAE@XZ$0 0044aeb0 f    CIL library: CIL module
 0001:00049eb5       __ehhandler$??0?$vector@VProcess@@V?$allocator@VProcess@@@std@@@std@@QAE@XZ 0044aeb5 f    CIL library: CIL module
 0001:00049ed0       __ehhandler$?reserve@?$vector@VPeSection@@V?$allocator@VPeSection@@@std@@@std@@QAEXI@Z 0044aed0 f    CIL library: CIL module
 0001:00049ef0       __unwindfunclet$??0?$vector@VPeSection@@V?$allocator@VPeSection@@@std@@@std@@QAE@XZ$0 0044aef0 f    CIL library: CIL module
 0001:00049ef0       __unwindfunclet$??0?$_Tree@V?$_Tset_traits@KU?$less@K@std@@V?$allocator@K@2@$0A@@std@@@std@@QAE@ABU?$less@K@1@ABV?$allocator@K@1@@Z$0 0044aef0 f    CIL library: CIL module
 0001:00049ef0       __unwindfunclet$??0?$vector@U_List_position@?$_Hash@V?$_Hmap_traits@KPAVApiInfo@@V?$hash_compare@KU?$less@K@std@@@stdext@@V?$allocator@U?$pair@$$CBKPAVApiInfo@@@std@@@std@@$00@stdext@@@stdext@@V?$allocator@U_List_position@?$_Hash@V?$_Hmap_traits@KPAVApiInfo@@V?$hash_compare@KU?$less@K@std@@@stdext@@V?$allocator@U?$pair@$$CBKPAVApiInfo@@@std@@@std@@$00@stdext@@@stdext@@@std@@@std@@QAE@ABV?$allocator@U_List_position@?$_Hash@V?$_Hmap_traits@KPAVApiInfo@@V?$hash_compare@KU?$less@K@std@@@stdext@@V?$allocator@U?$pair@$$CBKPAVApiInfo@@@std@@@std@@$00@stdext@@@stdext@@@1@@Z$0 0044aef0 f    CIL library: CIL module
 0001:00049ef0       __unwindfunclet$??0?$list@U?$pair@QAU_TREEITEM@@UTreeItemData@ImportsHandling@@@std@@V?$allocator@U?$pair@QAU_TREEITEM@@UTreeItemData@ImportsHandling@@@std@@@2@@std@@QAE@ABV?$allocator@U?$pair@QAU_TREEITEM@@UTreeItemData@ImportsHandling@@@std@@@1@@Z$0 0044aef0 f    CIL library: CIL module
 0001:00049ef0       __unwindfunclet$??0?$_Tree@V?$_Tmap_traits@KVImportModuleThunk@@U?$less@K@std@@V?$allocator@U?$pair@$$CBKVImportModuleThunk@@@std@@@3@$0A@@std@@@std@@QAE@ABU?$less@K@1@ABV?$allocator@U?$pair@$$CBKVImportModuleThunk@@@std@@@1@@Z$0 0044aef0 f    CIL library: CIL module
 0001:00049ef0       __unwindfunclet$??0?$vector@VHardDisk@@V?$allocator@VHardDisk@@@std@@@std@@QAE@XZ$0 0044aef0 f    CIL library: CIL module
 0001:00049ef0       __unwindfunclet$??0?$vector@VPlugin@@V?$allocator@VPlugin@@@std@@@std@@QAE@XZ$0 0044aef0 f    CIL library: CIL module
 0001:00049ef0       __unwindfunclet$??0?$vector@U_List_position@?$_Hash@V?$_Hmap_traits@PAU_TREEITEM@@UTreeItemData@ImportsHandling@@V?$hash_compare@PAU_TREEITEM@@U?$less@PAU_TREEITEM@@@std@@@stdext@@V?$allocator@U?$pair@QAU_TREEITEM@@UTreeItemData@ImportsHandling@@@std@@@std@@$0A@@stdext@@@stdext@@V?$allocator@U_List_position@?$_Hash@V?$_Hmap_traits@PAU_TREEITEM@@UTreeItemData@ImportsHandling@@V?$hash_compare@PAU_TREEITEM@@U?$less@PAU_TREEITEM@@@std@@@stdext@@V?$allocator@U?$pair@QAU_TREEITEM@@UTreeItemData@ImportsHandling@@@std@@@std@@$0A@@stdext@@@stdext@@@std@@@std@@QAE@ABV?$allocator@U_List_position@?$_Hash@V?$_Hmap_traits@PAU_TREEITEM@@UTreeItemData@ImportsHandling@@V?$hash_compare@PAU_TREEITEM@@U?$less@PAU_TREEITEM@@@std@@@stdext@@V?$allocator@U?$pair@QAU_TREEITEM@@UTreeItemData@ImportsHandling@@@std@@@std@@$0A@@stdext@@@stdext@@@1@@Z$0 0044aef0 f    CIL library: CIL module
 0001:00049ef0       __unwindfunclet$??0?$vector@VMemory@@V?$allocator@VMemory@@@std@@@std@@QAE@XZ$0 0044aef0 f    CIL library: CIL module
 0001:00049ef0       __unwindfunclet$??0?$_Tree@V?$_Tmap_traits@W4ConfigOption@@VConfiguration@@U?$less@W4ConfigOption@@@std@@V?$allocator@U?$pair@$$CBW4ConfigOption@@VConfiguration@@@std@@@4@$0A@@std@@@std@@QAE@ABU?$less@W4ConfigOption@@@1@ABV?$allocator@U?$pair@$$CBW4ConfigOption@@VConfiguration@@@std@@@1@@Z$0 0044aef0 f    CIL library: CIL module
 0001:00049ef0       __unwindfunclet$??0?$list@U?$pair@$$CBKPAVApiInfo@@@std@@V?$allocator@U?$pair@$$CBKPAVApiInfo@@@std@@@2@@std@@QAE@ABV?$allocator@U?$pair@$$CBKPAVApiInfo@@@std@@@1@@Z$0 0044aef0 f    CIL library: CIL module
 0001:00049ef0       __unwindfunclet$??0?$_Tree@V?$_Tmap_traits@KVImportThunk@@U?$less@K@std@@V?$allocator@U?$pair@$$CBKVImportThunk@@@std@@@3@$0A@@std@@@std@@QAE@ABU?$less@K@1@ABV?$allocator@U?$pair@$$CBKVImportThunk@@@std@@@1@@Z$0 0044aef0 f    CIL library: CIL module
 0001:00049ef0       __unwindfunclet$??0?$vector@VDisassemblerAddressComment@@V?$allocator@VDisassemblerAddressComment@@@std@@@std@@QAE@XZ$0 0044aef0 f    CIL library: CIL module
 0001:00049ef0       __unwindfunclet$??0?$vector@KV?$allocator@K@std@@@std@@QAE@XZ$0 0044aef0 f    CIL library: CIL module
 0001:00049ef0       __unwindfunclet$??1?$map@W4ConfigOption@@VConfiguration@@U?$less@W4ConfigOption@@@std@@V?$allocator@U?$pair@$$CBW4ConfigOption@@VConfiguration@@@std@@@4@@std@@QAE@XZ$1 0044aef0 f    CIL library: CIL module
 0001:00049ef0       __unwindfunclet$??0?$vector@PAVApiInfo@@V?$allocator@PAVApiInfo@@@std@@@std@@QAE@XZ$0 0044aef0 f    CIL library: CIL module
 0001:00049ef0       __unwindfunclet$??0?$vector@VPeFileSection@@V?$allocator@VPeFileSection@@@std@@@std@@QAE@XZ$0 0044aef0 f    CIL library: CIL module
 0001:00049ef0       __unwindfunclet$??1?$map@KVImportModuleThunk@@U?$less@K@std@@V?$allocator@U?$pair@$$CBKVImportModuleThunk@@@std@@@3@@std@@QAE@XZ$1 0044aef0 f    CIL library: CIL module
 0001:00049ef0       __unwindfunclet$??0?$vector@VIATReference@@V?$allocator@VIATReference@@@std@@@std@@QAE@XZ$0 0044aef0 f    CIL library: CIL module
 0001:00049ef0       __unwindfunclet$??1?$set@KU?$less@K@std@@V?$allocator@K@2@@std@@QAE@XZ$1 0044aef0 f    CIL library: CIL module
 0001:00049ef8       __ehhandler$??0?$vector@VPeFileSection@@V?$allocator@VPeFileSection@@@std@@@std@@QAE@XZ 0044aef8 f    CIL library: CIL module
 0001:00049ef8       __ehhandler$??1?$set@KU?$less@K@std@@V?$allocator@K@2@@std@@QAE@XZ 0044aef8 f    CIL library: CIL module
 0001:00049ef8       __ehhandler$??1?$map@W4ConfigOption@@VConfiguration@@U?$less@W4ConfigOption@@@std@@V?$allocator@U?$pair@$$CBW4ConfigOption@@VConfiguration@@@std@@@4@@std@@QAE@XZ 0044aef8 f    CIL library: CIL module
 0001:00049ef8       __ehhandler$??0?$vector@U_List_position@?$_Hash@V?$_Hmap_traits@KPAVApiInfo@@V?$hash_compare@KU?$less@K@std@@@stdext@@V?$allocator@U?$pair@$$CBKPAVApiInfo@@@std@@@std@@$00@stdext@@@stdext@@V?$allocator@U_List_position@?$_Hash@V?$_Hmap_traits@KPAVApiInfo@@V?$hash_compare@KU?$less@K@std@@@stdext@@V?$allocator@U?$pair@$$CBKPAVApiInfo@@@std@@@std@@$00@stdext@@@stdext@@@std@@@std@@QAE@ABV?$allocator@U_List_position@?$_Hash@V?$_Hmap_traits@KPAVApiInfo@@V?$hash_compare@KU?$less@K@std@@@stdext@@V?$allocator@U?$pair@$$CBKPAVApiInfo@@@std@@@std@@$00@stdext@@@stdext@@@1@@Z 0044aef8 f    CIL library: CIL module
 0001:00049ef8       __ehhandler$??0?$vector@VPeSection@@V?$allocator@VPeSection@@@std@@@std@@QAE@XZ 0044aef8 f    CIL library: CIL module
 0001:00049ef8       __ehhandler$??0?$vector@VHardDisk@@V?$allocator@VHardDisk@@@std@@@std@@QAE@XZ 0044aef8 f    CIL library: CIL module
 0001:00049ef8       __ehhandler$??0?$_Tree@V?$_Tset_traits@KU?$less@K@std@@V?$allocator@K@2@$0A@@std@@@std@@QAE@ABU?$less@K@1@ABV?$allocator@K@1@@Z 0044aef8 f    CIL library: CIL module
 0001:00049ef8       __ehhandler$??0?$vector@KV?$allocator@K@std@@@std@@QAE@XZ 0044aef8 f    CIL library: CIL module
 0001:00049ef8       __ehhandler$??0?$vector@VDisassemblerAddressComment@@V?$allocator@VDisassemblerAddressComment@@@std@@@std@@QAE@XZ 0044aef8 f    CIL library: CIL module
 0001:00049ef8       __ehhandler$??0?$vector@VPlugin@@V?$allocator@VPlugin@@@std@@@std@@QAE@XZ 0044aef8 f    CIL library: CIL module
 0001:00049ef8       __ehhandler$??0?$list@U?$pair@QAU_TREEITEM@@UTreeItemData@ImportsHandling@@@std@@V?$allocator@U?$pair@QAU_TREEITEM@@UTreeItemData@ImportsHandling@@@std@@@2@@std@@QAE@ABV?$allocator@U?$pair@QAU_TREEITEM@@UTreeItemData@ImportsHandling@@@std@@@1@@Z 0044aef8 f    CIL library: CIL module
 0001:00049ef8       __ehhandler$??1?$map@KVImportModuleThunk@@U?$less@K@std@@V?$allocator@U?$pair@$$CBKVImportModuleThunk@@@std@@@3@@std@@QAE@XZ 0044aef8 f    CIL library: CIL module
 0001:00049ef8       __ehhandler$??0?$_Tree@V?$_Tmap_traits@KVImportThunk@@U?$less@K@std@@V?$allocator@U?$pair@$$CBKVImportThunk@@@std@@@3@$0A@@std@@@std@@QAE@ABU?$less@K@1@ABV?$allocator@U?$pair@$$CBKVImportThunk@@@std@@@1@@Z 0044aef8 f    CIL library: CIL module
 0001:00049ef8       __ehhandler$??0?$list@U?$pair@$$CBKPAVApiInfo@@@std@@V?$allocator@U?$pair@$$CBKPAVApiInfo@@@std@@@2@@std@@QAE@ABV?$allocator@U?$pair@$$CBKPAVApiInfo@@@std@@@1@@Z 0044aef8 f    CIL library: CIL module
 0001:00049ef8       __ehhandler$??0?$vector@VIATReference@@V?$allocator@VIATReference@@@std@@@std@@QAE@XZ 0044aef8 f    CIL library: CIL module
 0001:00049ef8       __ehhandler$??0?$_Tree@V?$_Tmap_traits@W4ConfigOption@@VConfiguration@@U?$less@W4ConfigOption@@@std@@V?$allocator@U?$pair@$$CBW4ConfigOption@@VConfiguration@@@std@@@4@$0A@@std@@@std@@QAE@ABU?$less@W4ConfigOption@@@1@ABV?$allocator@U?$pair@$$CBW4ConfigOption@@VConfiguration@@@std@@@1@@Z 0044aef8 f    CIL library: CIL module
 0001:00049ef8       __ehhandler$??0?$vector@U_List_position@?$_Hash@V?$_Hmap_traits@PAU_TREEITEM@@UTreeItemData@ImportsHandling@@V?$hash_compare@PAU_TREEITEM@@U?$less@PAU_TREEITEM@@@std@@@stdext@@V?$allocator@U?$pair@QAU_TREEITEM@@UTreeItemData@ImportsHandling@@@std@@@std@@$0A@@stdext@@@stdext@@V?$allocator@U_List_position@?$_Hash@V?$_Hmap_traits@PAU_TREEITEM@@UTreeItemData@ImportsHandling@@V?$hash_compare@PAU_TREEITEM@@U?$less@PAU_TREEITEM@@@std@@@stdext@@V?$allocator@U?$pair@QAU_TREEITEM@@UTreeItemData@ImportsHandling@@@std@@@std@@$0A@@stdext@@@stdext@@@std@@@std@@QAE@ABV?$allocator@U_List_position@?$_Hash@V?$_Hmap_traits@PAU_TREEITEM@@UTreeItemData@ImportsHandling@@V?$hash_compare@PAU_TREEITEM@@U?$less@PAU_TREEITEM@@@std@@@stdext@@V?$allocator@U?$pair@QAU_TREEITEM@@UTreeItemData@ImportsHandling@@@std@@@std@@$0A@@stdext@@@stdext@@@1@@Z 0044aef8 f    CIL library: CIL module
 0001:00049ef8       __ehhandler$??0?$_Tree@V?$_Tmap_traits@KVImportModuleThunk@@U?$less@K@std@@V?$allocator@U?$pair@$$CBKVImportModuleThunk@@@std@@@3@$0A@@std@@@std@@QAE@ABU?$less@K@1@ABV?$allocator@U?$pair@$$CBKVImportModuleThunk@@@std@@@1@@Z 0044aef8 f    CIL library: CIL module
 0001:00049ef8       __ehhandler$??0?$vector@VMemory@@V?$allocator@VMemory@@@std@@@std@@QAE@XZ 0044aef8 f    CIL library: CIL module
 0001:00049ef8       __ehhandler$??0?$vector@PAVApiInfo@@V?$allocator@PAVApiInfo@@@std@@@std@@QAE@XZ 0044aef8 f    CIL library: CIL module
 0001:00049f20       __unwindfunclet$??1DumpSectionGui@@UAE@XZ$0 0044af20 f    CIL library: CIL module
 0001:00049f28       __unwindfunclet$??1DumpSectionGui@@UAE@XZ$1 0044af28 f    CIL library: CIL module
 0001:00049f33       __ehhandler$??1DumpSectionGui@@UAE@XZ 0044af33 f    CIL library: CIL module
 0001:00049f50       __unwindfunclet$??0DumpSectionGui@@QAE@XZ$0 0044af50 f    CIL library: CIL module
 0001:00049f58       __unwindfunclet$??0DumpSectionGui@@QAE@XZ$1 0044af58 f    CIL library: CIL module
 0001:00049f63       __unwindfunclet$??0DumpSectionGui@@QAE@XZ$2 0044af63 f    CIL library: CIL module
 0001:00049f70       __ehhandler$??0DumpSectionGui@@QAE@XZ 0044af70 f    CIL library: CIL module
 0001:00049f90       __ehhandler$?reserve@?$vector@VMemory@@V?$allocator@VMemory@@@std@@@std@@QAEXI@Z 0044af90 f    CIL library: CIL module
 0001:00049fb0       __unwindfunclet$??1DumpMemoryGui@@UAE@XZ$0 0044afb0 f    CIL library: CIL module
 0001:00049fb8       __unwindfunclet$??1DumpMemoryGui@@UAE@XZ$1 0044afb8 f    CIL library: CIL module
 0001:00049fc3       __unwindfunclet$??1DumpMemoryGui@@UAE@XZ$2 0044afc3 f    CIL library: CIL module
 0001:00049fd0       __ehhandler$??1DumpMemoryGui@@UAE@XZ 0044afd0 f    CIL library: CIL module
 0001:00049ff0       __ehhandler$?_Insert_n@?$vector@VDisassemblerAddressComment@@V?$allocator@VDisassemblerAddressComment@@@std@@@std@@IAEXV?$_Vector_const_iterator@VDisassemblerAddressComment@@V?$allocator@VDisassemblerAddressComment@@@std@@@2@IABVDisassemblerAddressComment@@@Z 0044aff0 f    CIL library: CIL module
 0001:0004a020       __unwindfunclet$??0DisassemblerGui@@QAE@KPAVApiReader@@@Z$0 0044b020 f    CIL library: CIL module
 0001:0004a028       __unwindfunclet$??0DisassemblerGui@@QAE@KPAVApiReader@@@Z$1 0044b028 f    CIL library: CIL module
 0001:0004a033       __unwindfunclet$??0DisassemblerGui@@QAE@KPAVApiReader@@@Z$2 0044b033 f    CIL library: CIL module
 0001:0004a041       __unwindfunclet$??0DisassemblerGui@@QAE@KPAVApiReader@@@Z$3 0044b041 f    CIL library: CIL module
 0001:0004a04f       __unwindfunclet$??0DisassemblerGui@@QAE@KPAVApiReader@@@Z$4 0044b04f f    CIL library: CIL module
 0001:0004a05c       __unwindfunclet$??0DisassemblerGui@@QAE@KPAVApiReader@@@Z$5 0044b05c f    CIL library: CIL module
 0001:0004a06a       __ehhandler$??0DisassemblerGui@@QAE@KPAVApiReader@@@Z 0044b06a f    CIL library: CIL module
 0001:0004a090       __ehhandler$?reserve@?$vector@VHardDisk@@V?$allocator@VHardDisk@@@std@@@std@@QAEXI@Z 0044b090 f    CIL library: CIL module
 0001:0004a0b0       __unwindfunclet$?erase@?$_Tree@V?$_Tmap_traits@W4ConfigOption@@VConfiguration@@U?$less@W4ConfigOption@@@std@@V?$allocator@U?$pair@$$CBW4ConfigOption@@VConfiguration@@@std@@@4@$0A@@std@@@std@@QAE?AViterator@12@Vconst_iterator@12@@Z$0 0044b0b0 f    CIL library: CIL module
 0001:0004a0b0       __unwindfunclet$?erase@?$_Tree@V?$_Tset_traits@KU?$less@K@std@@V?$allocator@K@2@$0A@@std@@@std@@QAE?AViterator@12@Vconst_iterator@12@@Z$0 0044b0b0 f    CIL library: CIL module
 0001:0004a0b0       __unwindfunclet$?erase@?$_Tree@V?$_Tmap_traits@KVImportThunk@@U?$less@K@std@@V?$allocator@U?$pair@$$CBKVImportThunk@@@std@@@3@$0A@@std@@@std@@QAE?AViterator@12@Vconst_iterator@12@@Z$0 0044b0b0 f    CIL library: CIL module
 0001:0004a0b8       __ehhandler$?erase@?$_Tree@V?$_Tmap_traits@W4ConfigOption@@VConfiguration@@U?$less@W4ConfigOption@@@std@@V?$allocator@U?$pair@$$CBW4ConfigOption@@VConfiguration@@@std@@@4@$0A@@std@@@std@@QAE?AViterator@12@Vconst_iterator@12@@Z 0044b0b8 f    CIL library: CIL module
 0001:0004a0b8       __ehhandler$?erase@?$_Tree@V?$_Tmap_traits@KVImportThunk@@U?$less@K@std@@V?$allocator@U?$pair@$$CBKVImportThunk@@@std@@@3@$0A@@std@@@std@@QAE?AViterator@12@Vconst_iterator@12@@Z 0044b0b8 f    CIL library: CIL module
 0001:0004a0b8       __ehhandler$?erase@?$_Tree@V?$_Tset_traits@KU?$less@K@std@@V?$allocator@K@2@$0A@@std@@@std@@QAE?AViterator@12@Vconst_iterator@12@@Z 0044b0b8 f    CIL library: CIL module
 0001:0004a0e0       __unwindfunclet$??0ConfigurationHolder@@QAE@PB_W@Z$0 0044b0e0 f    CIL library: CIL module
 0001:0004a0ef       __ehhandler$??0ConfigurationHolder@@QAE@PB_W@Z 0044b0ef f    CIL library: CIL module
 0001:0004a110       __unwindfunclet$?_Xlen@?$vector@PAVApiInfo@@V?$allocator@PAVApiInfo@@@std@@@std@@KAXXZ$0 0044b110 f    CIL library: CIL module
 0001:0004a110       __unwindfunclet$?_Xlen@?$vector@U_List_position@?$_Hash@V?$_Hmap_traits@PAU_TREEITEM@@UTreeItemData@ImportsHandling@@V?$hash_compare@PAU_TREEITEM@@U?$less@PAU_TREEITEM@@@std@@@stdext@@V?$allocator@U?$pair@QAU_TREEITEM@@UTreeItemData@ImportsHandling@@@std@@@std@@$0A@@stdext@@@stdext@@V?$allocator@U_List_position@?$_Hash@V?$_Hmap_traits@PAU_TREEITEM@@UTreeItemData@ImportsHandling@@V?$hash_compare@PAU_TREEITEM@@U?$less@PAU_TREEITEM@@@std@@@stdext@@V?$allocator@U?$pair@QAU_TREEITEM@@UTreeItemData@ImportsHandling@@@std@@@std@@$0A@@stdext@@@stdext@@@std@@@std@@KAXXZ$0 0044b110 f    CIL library: CIL module
 0001:0004a110       __unwindfunclet$?_Xlen@?$vector@VMemory@@V?$allocator@VMemory@@@std@@@std@@KAXXZ$0 0044b110 f    CIL library: CIL module
 0001:0004a110       __unwindfunclet$?_Xlen@?$vector@VDisassemblerAddressComment@@V?$allocator@VDisassemblerAddressComment@@@std@@@std@@KAXXZ$0 0044b110 f    CIL library: CIL module
 0001:0004a110       __unwindfunclet$?_Incsize@?$list@U?$pair@QAU_TREEITEM@@UTreeItemData@ImportsHandling@@@std@@V?$allocator@U?$pair@QAU_TREEITEM@@UTreeItemData@ImportsHandling@@@std@@@2@@std@@IAEXI@Z$0 0044b110 f    CIL library: CIL module
 0001:0004a110       __unwindfunclet$?_Xran@?$vector@VModuleInfo@@V?$allocator@VModuleInfo@@@std@@@std@@KAXXZ$0 0044b110 f    CIL library: CIL module
 0001:0004a110       __unwindfunclet$?_Xlen@?$vector@VPeSection@@V?$allocator@VPeSection@@@std@@@std@@KAXXZ$0 0044b110 f    CIL library: CIL module
 0001:0004a110       __unwindfunclet$?_Xlen@?$vector@KV?$allocator@K@std@@@std@@KAXXZ$0 0044b110 f    CIL library: CIL module
 0001:0004a110       __unwindfunclet$?_Xlen@?$vector@VPeFileSection@@V?$allocator@VPeFileSection@@@std@@@std@@KAXXZ$0 0044b110 f    CIL library: CIL module
 0001:0004a110       __unwindfunclet$?_Xran@?$vector@VProcess@@V?$allocator@VProcess@@@std@@@std@@KAXXZ$0 0044b110 f    CIL library: CIL module
 0001:0004a110       __unwindfunclet$?_Xlen@?$vector@VIATReference@@V?$allocator@VIATReference@@@std@@@std@@KAXXZ$0 0044b110 f    CIL library: CIL module
 0001:0004a110       __unwindfunclet$?_Incsize@?$list@U?$pair@$$CBKPAVApiInfo@@@std@@V?$allocator@U?$pair@$$CBKPAVApiInfo@@@std@@@2@@std@@IAEXI@Z$0 0044b110 f    CIL library: CIL module
 0001:0004a118       __ehhandler$?_Incsize@?$list@U?$pair@$$CBKPAVApiInfo@@@std@@V?$allocator@U?$pair@$$CBKPAVApiInfo@@@std@@@2@@std@@IAEXI@Z 0044b118 f    CIL library: CIL module
 0001:0004a118       __ehhandler$?_Xlen@?$vector@VPeFileSection@@V?$allocator@VPeFileSection@@@std@@@std@@KAXXZ 0044b118 f    CIL library: CIL module
 0001:0004a118       __ehhandler$?_Xlen@?$vector@VIATReference@@V?$allocator@VIATReference@@@std@@@std@@KAXXZ 0044b118 f    CIL library: CIL module
 0001:0004a118       __ehhandler$?_Xlen@?$vector@VMemory@@V?$allocator@VMemory@@@std@@@std@@KAXXZ 0044b118 f    CIL library: CIL module
 0001:0004a118       __ehhandler$?_Xlen@?$vector@VDisassemblerAddressComment@@V?$allocator@VDisassemblerAddressComment@@@std@@@std@@KAXXZ 0044b118 f    CIL library: CIL module
 0001:0004a118       __ehhandler$?_Xran@?$vector@VModuleInfo@@V?$allocator@VModuleInfo@@@std@@@std@@KAXXZ 0044b118 f    CIL library: CIL module
 0001:0004a118       __ehhandler$?_Xlen@?$vector@PAVApiInfo@@V?$allocator@PAVApiInfo@@@std@@@std@@KAXXZ 0044b118 f    CIL library: CIL module
 0001:0004a118       __ehhandler$?_Xlen@?$vector@U_List_position@?$_Hash@V?$_Hmap_traits@PAU_TREEITEM@@UTreeItemData@ImportsHandling@@V?$hash_compare@PAU_TREEITEM@@U?$less@PAU_TREEITEM@@@std@@@stdext@@V?$allocator@U?$pair@QAU_TREEITEM@@UTreeItemData@ImportsHandling@@@std@@@std@@$0A@@stdext@@@stdext@@V?$allocator@U_List_position@?$_Hash@V?$_Hmap_traits@PAU_TREEITEM@@UTreeItemData@ImportsHandling@@V?$hash_compare@PAU_TREEITEM@@U?$less@PAU_TREEITEM@@@std@@@stdext@@V?$allocator@U?$pair@QAU_TREEITEM@@UTreeItemData@ImportsHandling@@@std@@@std@@$0A@@stdext@@@stdext@@@std@@@std@@KAXXZ 0044b118 f    CIL library: CIL module
 0001:0004a118       __ehhandler$?_Xlen@?$vector@KV?$allocator@K@std@@@std@@KAXXZ 0044b118 f    CIL library: CIL module
 0001:0004a118       __ehhandler$?_Xran@?$vector@VProcess@@V?$allocator@VProcess@@@std@@@std@@KAXXZ 0044b118 f    CIL library: CIL module
 0001:0004a118       __ehhandler$?_Xlen@?$vector@VPeSection@@V?$allocator@VPeSection@@@std@@@std@@KAXXZ 0044b118 f    CIL library: CIL module
 0001:0004a118       __ehhandler$?_Incsize@?$list@U?$pair@QAU_TREEITEM@@UTreeItemData@ImportsHandling@@@std@@V?$allocator@U?$pair@QAU_TREEITEM@@UTreeItemData@ImportsHandling@@@std@@@2@@std@@IAEXI@Z 0044b118 f    CIL library: CIL module
 0001:0004a140       __unwindfunclet$?_Insert@?$_Tree@V?$_Tmap_traits@W4ConfigOption@@VConfiguration@@U?$less@W4ConfigOption@@@std@@V?$allocator@U?$pair@$$CBW4ConfigOption@@VConfiguration@@@std@@@4@$0A@@std@@@std@@IAE?AViterator@12@_NPAU_Node@?$_Tree_nod@V?$_Tmap_traits@W4ConfigOption@@VConfiguration@@U?$less@W4ConfigOption@@@std@@V?$allocator@U?$pair@$$CBW4ConfigOption@@VConfiguration@@@std@@@4@$0A@@std@@@2@ABU?$pair@$$CBW4ConfigOption@@VConfiguration@@@2@@Z$0 0044b140 f    CIL library: CIL module
 0001:0004a140       __unwindfunclet$?_Insert@?$_Tree@V?$_Tmap_traits@KVImportThunk@@U?$less@K@std@@V?$allocator@U?$pair@$$CBKVImportThunk@@@std@@@3@$0A@@std@@@std@@IAE?AViterator@12@_NPAU_Node@?$_Tree_nod@V?$_Tmap_traits@KVImportThunk@@U?$less@K@std@@V?$allocator@U?$pair@$$CBKVImportThunk@@@std@@@3@$0A@@std@@@2@ABU?$pair@$$CBKVImportThunk@@@2@@Z$0 0044b140 f    CIL library: CIL module
 0001:0004a140       __unwindfunclet$?_Insert@?$_Tree@V?$_Tmap_traits@KVImportModuleThunk@@U?$less@K@std@@V?$allocator@U?$pair@$$CBKVImportModuleThunk@@@std@@@3@$0A@@std@@@std@@IAE?AViterator@12@_NPAU_Node@?$_Tree_nod@V?$_Tmap_traits@KVImportModuleThunk@@U?$less@K@std@@V?$allocator@U?$pair@$$CBKVImportModuleThunk@@@std@@@3@$0A@@std@@@2@ABU?$pair@$$CBKVImportModuleThunk@@@2@@Z$0 0044b140 f    CIL library: CIL module
 0001:0004a140       __unwindfunclet$?_Insert@?$_Tree@V?$_Tset_traits@KU?$less@K@std@@V?$allocator@K@2@$0A@@std@@@std@@IAE?AViterator@12@_NPAU_Node@?$_Tree_nod@V?$_Tset_traits@KU?$less@K@std@@V?$allocator@K@2@$0A@@std@@@2@ABK@Z$0 0044b140 f    CIL library: CIL module
 0001:0004a148       __ehhandler$?_Insert@?$_Tree@V?$_Tset_traits@KU?$less@K@std@@V?$allocator@K@2@$0A@@std@@@std@@IAE?AViterator@12@_NPAU_Node@?$_Tree_nod@V?$_Tset_traits@KU?$less@K@std@@V?$allocator@K@2@$0A@@std@@@2@ABK@Z 0044b148 f    CIL library: CIL module
 0001:0004a148       __ehhandler$?_Insert@?$_Tree@V?$_Tmap_traits@W4ConfigOption@@VConfiguration@@U?$less@W4ConfigOption@@@std@@V?$allocator@U?$pair@$$CBW4ConfigOption@@VConfiguration@@@std@@@4@$0A@@std@@@std@@IAE?AViterator@12@_NPAU_Node@?$_Tree_nod@V?$_Tmap_traits@W4ConfigOption@@VConfiguration@@U?$less@W4ConfigOption@@@std@@V?$allocator@U?$pair@$$CBW4ConfigOption@@VConfiguration@@@std@@@4@$0A@@std@@@2@ABU?$pair@$$CBW4ConfigOption@@VConfiguration@@@2@@Z 0044b148 f    CIL library: CIL module
 0001:0004a148       __ehhandler$?_Insert@?$_Tree@V?$_Tmap_traits@KVImportThunk@@U?$less@K@std@@V?$allocator@U?$pair@$$CBKVImportThunk@@@std@@@3@$0A@@std@@@std@@IAE?AViterator@12@_NPAU_Node@?$_Tree_nod@V?$_Tmap_traits@KVImportThunk@@U?$less@K@std@@V?$allocator@U?$pair@$$CBKVImportThunk@@@std@@@3@$0A@@std@@@2@ABU?$pair@$$CBKVImportThunk@@@2@@Z 0044b148 f    CIL library: CIL module
 0001:0004a148       __ehhandler$?_Insert@?$_Tree@V?$_Tmap_traits@KVImportModuleThunk@@U?$less@K@std@@V?$allocator@U?$pair@$$CBKVImportModuleThunk@@@std@@@3@$0A@@std@@@std@@IAE?AViterator@12@_NPAU_Node@?$_Tree_nod@V?$_Tmap_traits@KVImportModuleThunk@@U?$less@K@std@@V?$allocator@U?$pair@$$CBKVImportModuleThunk@@@std@@@3@$0A@@std@@@2@ABU?$pair@$$CBKVImportModuleThunk@@@2@@Z 0044b148 f    CIL library: CIL module
 0001:0004a170       __unwindfunclet$??0?$_Tree@V?$_Tmap_traits@KVImportThunk@@U?$less@K@std@@V?$allocator@U?$pair@$$CBKVImportThunk@@@std@@@3@$0A@@std@@@std@@QAE@ABV01@@Z$2 0044b170 f    CIL library: CIL module
 0001:0004a178       __ehhandler$??0?$_Tree@V?$_Tmap_traits@KVImportThunk@@U?$less@K@std@@V?$allocator@U?$pair@$$CBKVImportThunk@@@std@@@3@$0A@@std@@@std@@QAE@ABV01@@Z 0044b178 f    CIL library: CIL module
 0001:0004a1a0       __unwindfunclet$??1ConfigurationHolder@@QAE@XZ$2 0044b1a0 f    CIL library: CIL module
 0001:0004a1a0       __unwindfunclet$??1ImportModuleThunk@@QAE@XZ$2 0044b1a0 f    CIL library: CIL module
 0001:0004a1a8       __ehhandler$??1ImportModuleThunk@@QAE@XZ 0044b1a8 f    CIL library: CIL module
 0001:0004a1a8       __ehhandler$??1ConfigurationHolder@@QAE@XZ 0044b1a8 f    CIL library: CIL module
 0001:0004a1d0       __unwindfunclet$??0PluginLoader@@QAE@XZ$0 0044b1d0 f    CIL library: CIL module
 0001:0004a1de       __ehhandler$??0PluginLoader@@QAE@XZ 0044b1de f    CIL library: CIL module
 0001:0004a200       __ehhandler$?_Insert_n@?$vector@VProcess@@V?$allocator@VProcess@@@std@@@std@@IAEXV?$_Vector_const_iterator@VProcess@@V?$allocator@VProcess@@@std@@@2@IABVProcess@@@Z 0044b200 f    CIL library: CIL module
 0001:0004a230       __ehhandler$?reserve@?$vector@VProcess@@V?$allocator@VProcess@@@std@@@std@@QAEXI@Z 0044b230 f    CIL library: CIL module
 0001:0004a250       __unwindfunclet$?OnApiFilterUpdated@PickApiGui@@IAEXIHVCWindow@ATL@@@Z$0 0044b250 f    CIL library: CIL module
 0001:0004a25b       __unwindfunclet$?OnApiFilterUpdated@PickApiGui@@IAEXIHVCWindow@ATL@@@Z$1 0044b25b f    CIL library: CIL module
 0001:0004a266       __ehhandler$?OnApiFilterUpdated@PickApiGui@@IAEXIHVCWindow@ATL@@@Z 0044b266 f    CIL library: CIL module
 0001:0004a2a0       __ehhandler$?_Insert_n@?$vector@VPeFileSection@@V?$allocator@VPeFileSection@@@std@@@std@@IAEXV?$_Vector_const_iterator@VPeFileSection@@V?$allocator@VPeFileSection@@@std@@@2@IABVPeFileSection@@@Z 0044b2a0 f    CIL library: CIL module
 0001:0004a2d0       __unwindfunclet$??0PeParser@@QAE@K_N@Z$0 0044b2d0 f    CIL library: CIL module
 0001:0004a2d0       __unwindfunclet$??0PeParser@@QAE@PB_W_N@Z$0 0044b2d0 f    CIL library: CIL module
 0001:0004a2db       __ehhandler$??0PeParser@@QAE@K_N@Z 0044b2db f    CIL library: CIL module
 0001:0004a2db       __ehhandler$??0PeParser@@QAE@PB_W_N@Z 0044b2db f    CIL library: CIL module
 0001:0004a300       __unwindfunclet$?disassemblerActionHandler@MainGui@@IAEXXZ$0 0044b300 f    CIL library: CIL module
 0001:0004a30d       __ehhandler$?disassemblerActionHandler@MainGui@@IAEXXZ 0044b30d f    CIL library: CIL module
 0001:0004a340       __unwindfunclet$?peRebuildActionHandler@MainGui@@IAEXXZ$0 0044b340 f    CIL library: CIL module
 0001:0004a34b       __ehhandler$?peRebuildActionHandler@MainGui@@IAEXXZ 0044b34b f    CIL library: CIL module
 0001:0004a380       __unwindfunclet$?dumpActionHandler@MainGui@@IAEXXZ$0 0044b380 f    CIL library: CIL module
 0001:0004a38e       __unwindfunclet$?dumpActionHandler@MainGui@@IAEXXZ$1 0044b38e f    CIL library: CIL module
 0001:0004a39c       __ehhandler$?dumpActionHandler@MainGui@@IAEXXZ 0044b39c f    CIL library: CIL module
 0001:0004a3d0       __unwindfunclet$?startDisassemblerGui@MainGui@@IAEXV?$CTreeItemT@VCWindow@ATL@@@WTL@@@Z$0 0044b3d0 f    CIL library: CIL module
 0001:0004a3dd       __ehhandler$?startDisassemblerGui@MainGui@@IAEXV?$CTreeItemT@VCWindow@ATL@@@WTL@@@Z 0044b3dd f    CIL library: CIL module
 0001:0004a410       __unwindfunclet$??0IATReferenceScan@@QAE@XZ$0 0044b410 f    CIL library: CIL module
 0001:0004a41b       __ehhandler$??0IATReferenceScan@@QAE@XZ 0044b41b f    CIL library: CIL module
 0001:0004a440       __unwindfunclet$?AddReplacement@CRegObject@ATL@@UAGJPB_W0@Z$0 0044b440 f    CIL library: CIL module
 0001:0004a448       __ehhandler$?AddReplacement@CRegObject@ATL@@UAGJPB_W0@Z 0044b448 f    CIL library: CIL module
 0001:0004a470       __unwindfunclet$?AddString@CParseBuffer@CRegParser@ATL@@QAEHPB_W@Z$0 0044b470 f    CIL library: CIL module
 0001:0004a478       __ehhandler$?AddString@CParseBuffer@CRegParser@ATL@@QAEHPB_W@Z 0044b478 f    CIL library: CIL module
 0001:0004a4a0       __ehhandler$?_Insert_n@?$vector@U_List_position@?$_Hash@V?$_Hmap_traits@PAU_TREEITEM@@UTreeItemData@ImportsHandling@@V?$hash_compare@PAU_TREEITEM@@U?$less@PAU_TREEITEM@@@std@@@stdext@@V?$allocator@U?$pair@QAU_TREEITEM@@UTreeItemData@ImportsHandling@@@std@@@std@@$0A@@stdext@@@stdext@@V?$allocator@U_List_position@?$_Hash@V?$_Hmap_traits@PAU_TREEITEM@@UTreeItemData@ImportsHandling@@V?$hash_compare@PAU_TREEITEM@@U?$less@PAU_TREEITEM@@@std@@@stdext@@V?$allocator@U?$pair@QAU_TREEITEM@@UTreeItemData@ImportsHandling@@@std@@@std@@$0A@@stdext@@@stdext@@@std@@@std@@IAEXV?$_Vector_const_iterator@U_List_position@?$_Hash@V?$_Hmap_traits@PAU_TREEITEM@@UTreeItemData@ImportsHandling@@V?$hash_compare@PAU_TREEITEM@@U?$less@PAU_TREEITEM@@@std@@@stdext@@V?$allocator@U?$pair@QAU_TREEITEM@@UTreeItemData@ImportsHandling@@@std@@@std@@$0A@@stdext@@@stdext@@V?$allocator@U_List_position@?$_Hash@V?$_Hmap_traits@PAU_TREEITEM@@UTreeItemData@ImportsHandling@@V?$hash_compare@PAU_TREEITEM@@U?$less@PAU_TREEITEM@@@std@@@stdext@@V?$allocator@U?$pair@QAU_TREEITEM@@UTreeItemData@ImportsHandling@@@std@@@std@@$0A@@stdext@@@stdext@@@std@@@2@IABU_List_position@?$_Hash@V?$_Hmap_traits@PAU_TREEITEM@@UTreeItemData@ImportsHandling@@V?$hash_compare@PAU_TREEITEM@@U?$less@PAU_TREEITEM@@@std@@@stdext@@V?$allocator@U?$pair@QAU_TREEITEM@@UTreeItemData@ImportsHandling@@@std@@@std@@$0A@@stdext@@@stdext@@@Z 0044b4a0 f    CIL library: CIL module
 0001:0004a4c0       __unwindfunclet$??0?$_Hash@V?$_Hmap_traits@PAU_TREEITEM@@UTreeItemData@ImportsHandling@@V?$hash_compare@PAU_TREEITEM@@U?$less@PAU_TREEITEM@@@std@@@stdext@@V?$allocator@U?$pair@QAU_TREEITEM@@UTreeItemData@ImportsHandling@@@std@@@std@@$0A@@stdext@@@stdext@@QAE@ABV?$hash_compare@PAU_TREEITEM@@U?$less@PAU_TREEITEM@@@std@@@1@ABV?$allocator@U?$pair@QAU_TREEITEM@@UTreeItemData@ImportsHandling@@@std@@@std@@@Z$0 0044b4c0 f    CIL library: CIL module
 0001:0004a4cb       __unwindfunclet$??0?$_Hash@V?$_Hmap_traits@PAU_TREEITEM@@UTreeItemData@ImportsHandling@@V?$hash_compare@PAU_TREEITEM@@U?$less@PAU_TREEITEM@@@std@@@stdext@@V?$allocator@U?$pair@QAU_TREEITEM@@UTreeItemData@ImportsHandling@@@std@@@std@@$0A@@stdext@@@stdext@@QAE@ABV?$hash_compare@PAU_TREEITEM@@U?$less@PAU_TREEITEM@@@std@@@1@ABV?$allocator@U?$pair@QAU_TREEITEM@@UTreeItemData@ImportsHandling@@@std@@@std@@@Z$1 0044b4cb f    CIL library: CIL module
 0001:0004a4d6       __ehhandler$??0?$_Hash@V?$_Hmap_traits@PAU_TREEITEM@@UTreeItemData@ImportsHandling@@V?$hash_compare@PAU_TREEITEM@@U?$less@PAU_TREEITEM@@@std@@@stdext@@V?$allocator@U?$pair@QAU_TREEITEM@@UTreeItemData@ImportsHandling@@@std@@@std@@$0A@@stdext@@@stdext@@QAE@ABV?$hash_compare@PAU_TREEITEM@@U?$less@PAU_TREEITEM@@@std@@@1@ABV?$allocator@U?$pair@QAU_TREEITEM@@UTreeItemData@ImportsHandling@@@std@@@std@@@Z 0044b4d6 f    CIL library: CIL module
 0001:0004a500       __unwindfunclet$?findIATAdvanced@IATSearch@@AAE_NKPAK0@Z$0 0044b500 f    CIL library: CIL module
 0001:0004a50a       __ehhandler$?findIATAdvanced@IATSearch@@AAE_NKPAK0@Z 0044b50a f    CIL library: CIL module
 0001:0004a530       __ehhandler$?_Insert_n@?$vector@VIATReference@@V?$allocator@VIATReference@@@std@@@std@@IAEXV?$_Vector_const_iterator@VIATReference@@V?$allocator@VIATReference@@@std@@@2@IABVIATReference@@@Z 0044b530 f    CIL library: CIL module
 0001:0004a550       __unwindfunclet$?patchDirectJumpTable@IATReferenceScan@@QAEXKKPAVPeParser@@PAEK@Z$0 0044b550 f    CIL library: CIL module
 0001:0004a55a       __unwindfunclet$?patchDirectJumpTable@IATReferenceScan@@QAEXKKPAVPeParser@@PAEK@Z$3 0044b55a f    CIL library: CIL module
 0001:0004a562       __ehhandler$?patchDirectJumpTable@IATReferenceScan@@QAEXKKPAVPeParser@@PAEK@Z 0044b562 f    CIL library: CIL module
 0001:0004a580       __unwindfunclet$?numberOfDirectImportApisNotInIat@IATReferenceScan@@QAEHXZ$0 0044b580 f    CIL library: CIL module
 0001:0004a58a       __unwindfunclet$?numberOfDirectImportApisNotInIat@IATReferenceScan@@QAEHXZ$3 0044b58a f    CIL library: CIL module
 0001:0004a592       __ehhandler$?numberOfDirectImportApisNotInIat@IATReferenceScan@@QAEHXZ 0044b592 f    CIL library: CIL module
 0001:0004a5b0       __ehhandler$?_Insert_n@?$vector@VPeSection@@V?$allocator@VPeSection@@@std@@@std@@IAEXV?$_Vector_const_iterator@VPeSection@@V?$allocator@VPeSection@@@std@@@2@IABVPeSection@@@Z 0044b5b0 f    CIL library: CIL module
 0001:0004a5e0       __unwindfunclet$?getAllSectionsFromFile@DumpSectionGui@@AAEXXZ$0 0044b5e0 f    CIL library: CIL module
 0001:0004a5eb       __ehhandler$?getAllSectionsFromFile@DumpSectionGui@@AAEXXZ 0044b5eb f    CIL library: CIL module
 0001:0004a620       __ehhandler$?_Insert_n@?$vector@VMemory@@V?$allocator@VMemory@@@std@@@std@@IAEXV?$_Vector_const_iterator@VMemory@@V?$allocator@VMemory@@@std@@@2@IABVMemory@@@Z 0044b620 f    CIL library: CIL module
 0001:0004a650       __unwindfunclet$?OnContextMenu@DisassemblerGui@@IAEXVCWindow@ATL@@VCPoint@WTL@@@Z$0 0044b650 f    CIL library: CIL module
 0001:0004a655       __ehhandler$?OnContextMenu@DisassemblerGui@@IAEXVCWindow@ATL@@VCPoint@WTL@@@Z 0044b655 f    CIL library: CIL module
 0001:0004a670       __ehhandler$?_Insert_n@?$vector@VHardDisk@@V?$allocator@VHardDisk@@@std@@@std@@IAEXV?$_Vector_const_iterator@VHardDisk@@V?$allocator@VHardDisk@@@std@@@2@IABVHardDisk@@@Z 0044b670 f    CIL library: CIL module
 0001:0004a6a0       __unwindfunclet$??0DeviceNameResolver@@QAE@XZ$0 0044b6a0 f    CIL library: CIL module
 0001:0004a6a8       __ehhandler$??0DeviceNameResolver@@QAE@XZ 0044b6a8 f    CIL library: CIL module
 0001:0004a6d0       __ehhandler$?_Insert_n@?$vector@U_List_position@?$_Hash@V?$_Hmap_traits@KPAVApiInfo@@V?$hash_compare@KU?$less@K@std@@@stdext@@V?$allocator@U?$pair@$$CBKPAVApiInfo@@@std@@@std@@$00@stdext@@@stdext@@V?$allocator@U_List_position@?$_Hash@V?$_Hmap_traits@KPAVApiInfo@@V?$hash_compare@KU?$less@K@std@@@stdext@@V?$allocator@U?$pair@$$CBKPAVApiInfo@@@std@@@std@@$00@stdext@@@stdext@@@std@@@std@@IAEXV?$_Vector_const_iterator@U_List_position@?$_Hash@V?$_Hmap_traits@KPAVApiInfo@@V?$hash_compare@KU?$less@K@std@@@stdext@@V?$allocator@U?$pair@$$CBKPAVApiInfo@@@std@@@std@@$00@stdext@@@stdext@@V?$allocator@U_List_position@?$_Hash@V?$_Hmap_traits@KPAVApiInfo@@V?$hash_compare@KU?$less@K@std@@@stdext@@V?$allocator@U?$pair@$$CBKPAVApiInfo@@@std@@@std@@$00@stdext@@@stdext@@@std@@@2@IABU_List_position@?$_Hash@V?$_Hmap_traits@KPAVApiInfo@@V?$hash_compare@KU?$less@K@std@@@stdext@@V?$allocator@U?$pair@$$CBKPAVApiInfo@@@std@@@std@@$00@stdext@@@stdext@@@Z 0044b6d0 f    CIL library: CIL module
 0001:0004a6f0       __unwindfunclet$??0?$_Hash@V?$_Hmap_traits@KPAVApiInfo@@V?$hash_compare@KU?$less@K@std@@@stdext@@V?$allocator@U?$pair@$$CBKPAVApiInfo@@@std@@@std@@$00@stdext@@@stdext@@QAE@ABV?$hash_compare@KU?$less@K@std@@@1@ABV?$allocator@U?$pair@$$CBKPAVApiInfo@@@std@@@std@@@Z$0 0044b6f0 f    CIL library: CIL module
 0001:0004a6fb       __unwindfunclet$??0?$_Hash@V?$_Hmap_traits@KPAVApiInfo@@V?$hash_compare@KU?$less@K@std@@@stdext@@V?$allocator@U?$pair@$$CBKPAVApiInfo@@@std@@@std@@$00@stdext@@@stdext@@QAE@ABV?$hash_compare@KU?$less@K@std@@@1@ABV?$allocator@U?$pair@$$CBKPAVApiInfo@@@std@@@std@@@Z$1 0044b6fb f    CIL library: CIL module
 0001:0004a706       __ehhandler$??0?$_Hash@V?$_Hmap_traits@KPAVApiInfo@@V?$hash_compare@KU?$less@K@std@@@stdext@@V?$allocator@U?$pair@$$CBKPAVApiInfo@@@std@@@std@@$00@stdext@@@stdext@@QAE@ABV?$hash_compare@KU?$less@K@std@@@1@ABV?$allocator@U?$pair@$$CBKPAVApiInfo@@@std@@@std@@@Z 0044b706 f    CIL library: CIL module
 0001:0004a730       __unwindfunclet$??0?$vector@PAVApiInfo@@V?$allocator@PAVApiInfo@@@std@@@std@@QAE@ABV01@@Z$2 0044b730 f    CIL library: CIL module
 0001:0004a738       __ehhandler$??0?$vector@PAVApiInfo@@V?$allocator@PAVApiInfo@@@std@@@std@@QAE@ABV01@@Z 0044b738 f    CIL library: CIL module
 0001:0004a760       __unwindfunclet$?getEntryPointFromFile@ProcessAccessHelp@@SAKPB_W@Z$1 0044b760 f    CIL library: CIL module
 0001:0004a768       __ehhandler$?getEntryPointFromFile@ProcessAccessHelp@@SAKPB_W@Z 0044b768 f    CIL library: CIL module
 0001:0004a790       __unwindfunclet$?isValidDllFile@PluginLoader@@CA_NPB_W@Z$1 0044b790 f    CIL library: CIL module
 0001:0004a798       __ehhandler$?isValidDllFile@PluginLoader@@CA_NPB_W@Z 0044b798 f    CIL library: CIL module
 0001:0004a7c0       __unwindfunclet$?dumpSectionActionHandler@MainGui@@IAEXXZ$0 0044b7c0 f    CIL library: CIL module
 0001:0004a7cd       __unwindfunclet$?dumpSectionActionHandler@MainGui@@IAEXXZ$1 0044b7cd f    CIL library: CIL module
 0001:0004a7db       __unwindfunclet$?dumpSectionActionHandler@MainGui@@IAEXXZ$2 0044b7db f    CIL library: CIL module
 0001:0004a7e9       __ehhandler$?dumpSectionActionHandler@MainGui@@IAEXXZ 0044b7e9 f    CIL library: CIL module
 0001:0004a820       __unwindfunclet$?pickApiActionHandler@MainGui@@IAEXV?$CTreeItemT@VCWindow@ATL@@@WTL@@@Z$0 0044b820 f    CIL library: CIL module
 0001:0004a820       __unwindfunclet$?pickDllActionHandler@MainGui@@IAEXXZ$0 0044b820 f    CIL library: CIL module
 0001:0004a828       __ehhandler$?pickApiActionHandler@MainGui@@IAEXV?$CTreeItemT@VCWindow@ATL@@@WTL@@@Z 0044b828 f    CIL library: CIL module
 0001:0004a828       __ehhandler$?pickDllActionHandler@MainGui@@IAEXXZ 0044b828 f    CIL library: CIL module
 0001:0004a850       __unwindfunclet$?PreProcessBuffer@CRegParser@ATL@@QAEJPA_WPAPA_W@Z$0 0044b850 f    CIL library: CIL module
 0001:0004a858       __ehhandler$?PreProcessBuffer@CRegParser@ATL@@QAEJPA_WPAPA_W@Z 0044b858 f    CIL library: CIL module
 0001:0004a880       __unwindfunclet$??0ProcessLister@@QAE@XZ$0 0044b880 f    CIL library: CIL module
 0001:0004a885       __unwindfunclet$??0ProcessLister@@QAE@XZ$1 0044b885 f    CIL library: CIL module
 0001:0004a890       __ehhandler$??0ProcessLister@@QAE@XZ 0044b890 f    CIL library: CIL module
 0001:0004a8b0       __unwindfunclet$??0DumpMemoryGui@@QAE@XZ$0 0044b8b0 f    CIL library: CIL module
 0001:0004a8b8       __unwindfunclet$??0DumpMemoryGui@@QAE@XZ$1 0044b8b8 f    CIL library: CIL module
 0001:0004a8c3       __unwindfunclet$??0DumpMemoryGui@@QAE@XZ$2 0044b8c3 f    CIL library: CIL module
 0001:0004a8d0       __unwindfunclet$??0DumpMemoryGui@@QAE@XZ$3 0044b8d0 f    CIL library: CIL module
 0001:0004a8dd       __unwindfunclet$??0DumpMemoryGui@@QAE@XZ$4 0044b8dd f    CIL library: CIL module
 0001:0004a8eb       __unwindfunclet$??0DumpMemoryGui@@QAE@XZ$5 0044b8eb f    CIL library: CIL module
 0001:0004a8f6       __ehhandler$??0DumpMemoryGui@@QAE@XZ 0044b8f6 f    CIL library: CIL module
 0001:0004a920       __unwindfunclet$?_Buynode@?$_Tree@V?$_Tmap_traits@KVImportModuleThunk@@U?$less@K@std@@V?$allocator@U?$pair@$$CBKVImportModuleThunk@@@std@@@3@$0A@@std@@@std@@IAEPAU_Node@?$_Tree_nod@V?$_Tmap_traits@KVImportModuleThunk@@U?$less@K@std@@V?$allocator@U?$pair@$$CBKVImportModuleThunk@@@std@@@3@$0A@@std@@@2@PAU342@00ABU?$pair@$$CBKVImportModuleThunk@@@2@D@Z$2 0044b920 f    CIL library: CIL module
 0001:0004a925       __ehhandler$?_Buynode@?$_Tree@V?$_Tmap_traits@KVImportModuleThunk@@U?$less@K@std@@V?$allocator@U?$pair@$$CBKVImportModuleThunk@@@std@@@3@$0A@@std@@@std@@IAEPAU_Node@?$_Tree_nod@V?$_Tmap_traits@KVImportModuleThunk@@U?$less@K@std@@V?$allocator@U?$pair@$$CBKVImportModuleThunk@@@std@@@3@$0A@@std@@@2@PAU342@00ABU?$pair@$$CBKVImportModuleThunk@@@2@D@Z 0044b925 f    CIL library: CIL module
 0001:0004a940       __unwindfunclet$?_Erase@?$_Tree@V?$_Tmap_traits@KVImportModuleThunk@@U?$less@K@std@@V?$allocator@U?$pair@$$CBKVImportModuleThunk@@@std@@@3@$0A@@std@@@std@@IAEXPAU_Node@?$_Tree_nod@V?$_Tmap_traits@KVImportModuleThunk@@U?$less@K@std@@V?$allocator@U?$pair@$$CBKVImportModuleThunk@@@std@@@3@$0A@@std@@@2@@Z$4 0044b940 f    CIL library: CIL module
 0001:0004a948       __ehhandler$?_Erase@?$_Tree@V?$_Tmap_traits@KVImportModuleThunk@@U?$less@K@std@@V?$allocator@U?$pair@$$CBKVImportModuleThunk@@@std@@@3@$0A@@std@@@std@@IAEXPAU_Node@?$_Tree_nod@V?$_Tmap_traits@KVImportModuleThunk@@U?$less@K@std@@V?$allocator@U?$pair@$$CBKVImportModuleThunk@@@std@@@3@$0A@@std@@@2@@Z 0044b948 f    CIL library: CIL module
 0001:0004a970       __unwindfunclet$?addModuleToModuleList@ApiReader@@AAE_NPB_WK@Z$0 0044b970 f    CIL library: CIL module
 0001:0004a970       __unwindfunclet$?addUnknownModuleToModuleList@ApiReader@@AAEXK@Z$0 0044b970 f    CIL library: CIL module
 0001:0004a97b       __unwindfunclet$?addModuleToModuleList@ApiReader@@AAE_NPB_WK@Z$1 0044b97b f    CIL library: CIL module
 0001:0004a97b       __unwindfunclet$?addUnknownModuleToModuleList@ApiReader@@AAEXK@Z$1 0044b97b f    CIL library: CIL module
 0001:0004a986       __unwindfunclet$?addUnknownModuleToModuleList@ApiReader@@AAEXK@Z$2 0044b986 f    CIL library: CIL module
 0001:0004a986       __unwindfunclet$?addModuleToModuleList@ApiReader@@AAE_NPB_WK@Z$2 0044b986 f    CIL library: CIL module
 0001:0004a991       __ehhandler$?addModuleToModuleList@ApiReader@@AAE_NPB_WK@Z 0044b991 f    CIL library: CIL module
 0001:0004a991       __ehhandler$?addUnknownModuleToModuleList@ApiReader@@AAEXK@Z 0044b991 f    CIL library: CIL module
 0001:0004a9c0       __unwindfunclet$?parseModuleWithProcess@ApiReader@@AAEXPAVModuleInfo@@@Z$1 0044b9c0 f    CIL library: CIL module
 0001:0004a9c8       __unwindfunclet$?parseModuleWithProcess@ApiReader@@AAEXPAVModuleInfo@@@Z$0 0044b9c8 f    CIL library: CIL module
 0001:0004a9d0       __ehhandler$?parseModuleWithProcess@ApiReader@@AAEXPAVModuleInfo@@@Z 0044b9d0 f    CIL library: CIL module
 0001:0004a9f0       __unwindfunclet$??$_Uninit_fill_n@PAVModuleInfo@@IV1@V?$allocator@VModuleInfo@@@std@@@std@@YAXPAVModuleInfo@@IABV1@AAV?$allocator@VModuleInfo@@@0@U_Nonscalar_ptr_iterator_tag@0@U_Range_checked_iterator_tag@0@@Z$2 0044b9f0 f    CIL library: CIL module
 0001:0004a9f5       __ehhandler$??$_Uninit_fill_n@PAVModuleInfo@@IV1@V?$allocator@VModuleInfo@@@std@@@std@@YAXPAVModuleInfo@@IABV1@AAV?$allocator@VModuleInfo@@@0@U_Nonscalar_ptr_iterator_tag@0@U_Range_checked_iterator_tag@0@@Z 0044b9f5 f    CIL library: CIL module
 0001:0004aa10       __unwindfunclet$?dumpMemoryActionHandler@MainGui@@IAEXXZ$0 0044ba10 f    CIL library: CIL module
 0001:0004aa1d       __ehhandler$?dumpMemoryActionHandler@MainGui@@IAEXXZ 0044ba1d f    CIL library: CIL module
 0001:0004aa50       __unwindfunclet$?RegisterFromResource@CRegObject@ATL@@IAEJPB_W00H@Z$7 0044ba50 f    CIL library: CIL module
 0001:0004aa5b       __unwindfunclet$?RegisterFromResource@CRegObject@ATL@@IAEJPB_W00H@Z$8 0044ba5b f    CIL library: CIL module
 0001:0004aa66       __ehhandler$?RegisterFromResource@CRegObject@ATL@@IAEJPB_W00H@Z 0044ba66 f    CIL library: CIL module
 0001:0004aa90       __ehhandler$?_Copy@?$_Tree@V?$_Tmap_traits@KVImportModuleThunk@@U?$less@K@std@@V?$allocator@U?$pair@$$CBKVImportModuleThunk@@@std@@@3@$0A@@std@@@std@@IAEPAU_Node@?$_Tree_nod@V?$_Tmap_traits@KVImportModuleThunk@@U?$less@K@std@@V?$allocator@U?$pair@$$CBKVImportModuleThunk@@@std@@@3@$0A@@std@@@2@PAU342@0@Z 0044ba90 f    CIL library: CIL module
 0001:0004aab0       __unwindfunclet$??A?$map@KVImportModuleThunk@@U?$less@K@std@@V?$allocator@U?$pair@$$CBKVImportModuleThunk@@@std@@@3@@std@@QAEAAVImportModuleThunk@@ABK@Z$0 0044bab0 f    CIL library: CIL module
 0001:0004aabb       __unwindfunclet$??A?$map@KVImportModuleThunk@@U?$less@K@std@@V?$allocator@U?$pair@$$CBKVImportModuleThunk@@@std@@@3@@std@@QAEAAVImportModuleThunk@@ABK@Z$1 0044babb f    CIL library: CIL module
 0001:0004aac6       __ehhandler$??A?$map@KVImportModuleThunk@@U?$less@K@std@@V?$allocator@U?$pair@$$CBKVImportModuleThunk@@@std@@@3@@std@@QAEAAVImportModuleThunk@@ABK@Z 0044bac6 f    CIL library: CIL module
 0001:0004aaf0       __unwindfunclet$?addModuleToModuleList@ImportsHandling@@AAE_NPB_WK@Z$0 0044baf0 f    CIL library: CIL module
 0001:0004aaf0       __unwindfunclet$?addUnknownModuleToModuleList@ImportsHandling@@AAEXK@Z$0 0044baf0 f    CIL library: CIL module
 0001:0004aafb       __ehhandler$?addUnknownModuleToModuleList@ImportsHandling@@AAEXK@Z 0044bafb f    CIL library: CIL module
 0001:0004aafb       __ehhandler$?addModuleToModuleList@ImportsHandling@@AAE_NPB_WK@Z 0044bafb f    CIL library: CIL module
 0001:0004ab30       __unwindfunclet$?addAdditionalApisToList@IATReferenceScan@@QAEKXZ$0 0044bb30 f    CIL library: CIL module
 0001:0004ab3a       __unwindfunclet$?addAdditionalApisToList@IATReferenceScan@@QAEKXZ$3 0044bb3a f    CIL library: CIL module
 0001:0004ab42       __ehhandler$?addAdditionalApisToList@IATReferenceScan@@QAEKXZ 0044bb42 f    CIL library: CIL module
 0001:0004ab60       __unwindfunclet$?erase@?$_Tree@V?$_Tmap_traits@KVImportModuleThunk@@U?$less@K@std@@V?$allocator@U?$pair@$$CBKVImportModuleThunk@@@std@@@3@$0A@@std@@@std@@QAE?AViterator@12@Vconst_iterator@12@@Z$0 0044bb60 f    CIL library: CIL module
 0001:0004ab68       __unwindfunclet$?erase@?$_Tree@V?$_Tmap_traits@KVImportModuleThunk@@U?$less@K@std@@V?$allocator@U?$pair@$$CBKVImportModuleThunk@@@std@@@3@$0A@@std@@@std@@QAE?AViterator@12@Vconst_iterator@12@@Z$6 0044bb68 f    CIL library: CIL module
 0001:0004ab70       __ehhandler$?erase@?$_Tree@V?$_Tmap_traits@KVImportModuleThunk@@U?$less@K@std@@V?$allocator@U?$pair@$$CBKVImportModuleThunk@@@std@@@3@$0A@@std@@@std@@QAE?AViterator@12@Vconst_iterator@12@@Z 0044bb70 f    CIL library: CIL module
 0001:0004ab90       __unwindfunclet$?parseAllElementModules@TreeImportExport@@AAEXPAVTiXmlElement@@AAV?$map@KVImportModuleThunk@@U?$less@K@std@@V?$allocator@U?$pair@$$CBKVImportModuleThunk@@@std@@@3@@std@@@Z$0 0044bb90 f    CIL library: CIL module
 0001:0004ab9b       __unwindfunclet$?parseAllElementModules@TreeImportExport@@AAEXPAVTiXmlElement@@AAV?$map@KVImportModuleThunk@@U?$less@K@std@@V?$allocator@U?$pair@$$CBKVImportModuleThunk@@@std@@@3@@std@@@Z$5 0044bb9b f    CIL library: CIL module
 0001:0004aba6       __ehhandler$?parseAllElementModules@TreeImportExport@@AAEXPAVTiXmlElement@@AAV?$map@KVImportModuleThunk@@U?$less@K@std@@V?$allocator@U?$pair@$$CBKVImportModuleThunk@@@std@@@3@@std@@@Z 0044bba6 f    CIL library: CIL module
 0001:0004abd0       __unwindfunclet$?importTreeList@TreeImportExport@@QAE_NAAV?$map@KVImportModuleThunk@@U?$less@K@std@@V?$allocator@U?$pair@$$CBKVImportModuleThunk@@@std@@@3@@std@@PAK11@Z$0 0044bbd0 f    CIL library: CIL module
 0001:0004abd8       __ehhandler$?importTreeList@TreeImportExport@@QAE_NAAV?$map@KVImportModuleThunk@@U?$less@K@std@@V?$allocator@U?$pair@$$CBKVImportModuleThunk@@@std@@@3@@std@@PAK11@Z 0044bbd8 f    CIL library: CIL module
 0001:0004ac00       __unwindfunclet$??$_Uninit_copy@PAVModuleInfo@@PAV1@V?$allocator@VModuleInfo@@@std@@@std@@YAPAVModuleInfo@@PAV1@00AAV?$allocator@VModuleInfo@@@0@U_Nonscalar_ptr_iterator_tag@0@U_Range_checked_iterator_tag@0@@Z$2 0044bc00 f    CIL library: CIL module
 0001:0004ac05       __ehhandler$??$_Uninit_copy@PAVModuleInfo@@PAV1@V?$allocator@VModuleInfo@@@std@@@std@@YAPAVModuleInfo@@PAV1@00AAV?$allocator@VModuleInfo@@@0@U_Nonscalar_ptr_iterator_tag@0@U_Range_checked_iterator_tag@0@@Z 0044bc05 f    CIL library: CIL module
 0001:0004ac20       __unwindfunclet$?_Insert_n@?$vector@VModuleInfo@@V?$allocator@VModuleInfo@@@std@@@std@@IAEXV?$_Vector_const_iterator@VModuleInfo@@V?$allocator@VModuleInfo@@@std@@@2@IABVModuleInfo@@@Z$4 0044bc20 f    CIL library: CIL module
 0001:0004ac2b       __unwindfunclet$?_Insert_n@?$vector@VModuleInfo@@V?$allocator@VModuleInfo@@@std@@@std@@IAEXV?$_Vector_const_iterator@VModuleInfo@@V?$allocator@VModuleInfo@@@std@@@2@IABVModuleInfo@@@Z$5 0044bc2b f    CIL library: CIL module
 0001:0004ac36       __ehhandler$?_Insert_n@?$vector@VModuleInfo@@V?$allocator@VModuleInfo@@@std@@@std@@IAEXV?$_Vector_const_iterator@VModuleInfo@@V?$allocator@VModuleInfo@@@std@@@2@IABVModuleInfo@@@Z 0044bc36 f    CIL library: CIL module
 0001:0004ac60       __ehhandler$?reserve@?$vector@VModuleInfo@@V?$allocator@VModuleInfo@@@std@@@std@@QAEXI@Z 0044bc60 f    CIL library: CIL module
 0001:0004ac80       __unwindfunclet$?getProcessModules@ProcessAccessHelp@@SA_NPAXAAV?$vector@VModuleInfo@@V?$allocator@VModuleInfo@@@std@@@std@@@Z$0 0044bc80 f    CIL library: CIL module
 0001:0004ac8b       __unwindfunclet$?getProcessModules@ProcessAccessHelp@@SA_NPAXAAV?$vector@VModuleInfo@@V?$allocator@VModuleInfo@@@std@@@std@@@Z$3 0044bc8b f    CIL library: CIL module
 0001:0004ac96       __unwindfunclet$?getProcessModules@ProcessAccessHelp@@SA_NPAXAAV?$vector@VModuleInfo@@V?$allocator@VModuleInfo@@@std@@@std@@@Z$1 0044bc96 f    CIL library: CIL module
 0001:0004aca1       __ehhandler$?getProcessModules@ProcessAccessHelp@@SA_NPAXAAV?$vector@VModuleInfo@@V?$allocator@VModuleInfo@@@std@@@std@@@Z 0044bca1 f    CIL library: CIL module
 0001:0004acd0       __unwindfunclet$?ResourceRegisterSz@CRegObject@ATL@@QAGJPB_W00@Z$0 0044bcd0 f    CIL library: CIL module
 0001:0004acd0       __unwindfunclet$?ResourceUnregisterSz@CRegObject@ATL@@QAGJPB_W00@Z$0 0044bcd0 f    CIL library: CIL module
 0001:0004acd8       __ehhandler$?ResourceRegisterSz@CRegObject@ATL@@QAGJPB_W00@Z 0044bcd8 f    CIL library: CIL module
 0001:0004acd8       __ehhandler$?ResourceUnregisterSz@CRegObject@ATL@@QAGJPB_W00@Z 0044bcd8 f    CIL library: CIL module
 0001:0004ad00       __unwindfunclet$?ResourceUnregister@CRegObject@ATL@@QAGJPB_WI0@Z$0 0044bd00 f    CIL library: CIL module
 0001:0004ad00       __unwindfunclet$?ResourceRegister@CRegObject@ATL@@QAGJPB_WI0@Z$0 0044bd00 f    CIL library: CIL module
 0001:0004ad08       __ehhandler$?ResourceRegister@CRegObject@ATL@@QAGJPB_WI0@Z 0044bd08 f    CIL library: CIL module
 0001:0004ad08       __ehhandler$?ResourceUnregister@CRegObject@ATL@@QAGJPB_WI0@Z 0044bd08 f    CIL library: CIL module
 0001:0004ad30       __unwindfunclet$??1ImportsHandling@@QAE@XZ$0 0044bd30 f    CIL library: CIL module
 0001:0004ad3a       __unwindfunclet$??1ImportsHandling@@QAE@XZ$7 0044bd3a f    CIL library: CIL module
 0001:0004ad42       __unwindfunclet$??1ImportsHandling@@QAE@XZ$9 0044bd42 f    CIL library: CIL module
 0001:0004ad4a       __ehhandler$??1ImportsHandling@@QAE@XZ 0044bd4a f    CIL library: CIL module
 0001:0004ad70       __unwindfunclet$??0ImportsHandling@@QAE@AAVCMultiSelectTreeViewCtrl@@@Z$0 0044bd70 f    CIL library: CIL module
 0001:0004ad7a       __unwindfunclet$??0ImportsHandling@@QAE@AAVCMultiSelectTreeViewCtrl@@@Z$1 0044bd7a f    CIL library: CIL module
 0001:0004ad87       __ehhandler$??0ImportsHandling@@QAE@AAVCMultiSelectTreeViewCtrl@@@Z 0044bd87 f    CIL library: CIL module
 0001:0004adb0       __unwindfunclet$?rebuildImportTable@ImportRebuilder@@QAE_NPB_WAAV?$map@KVImportModuleThunk@@U?$less@K@std@@V?$allocator@U?$pair@$$CBKVImportModuleThunk@@@std@@@3@@std@@@Z$0 0044bdb0 f    CIL library: CIL module
 0001:0004adba       __unwindfunclet$?rebuildImportTable@ImportRebuilder@@QAE_NPB_WAAV?$map@KVImportModuleThunk@@U?$less@K@std@@V?$allocator@U?$pair@$$CBKVImportModuleThunk@@@std@@@3@@std@@@Z$3 0044bdba f    CIL library: CIL module
 0001:0004adc2       __ehhandler$?rebuildImportTable@ImportRebuilder@@QAE_NPB_WAAV?$map@KVImportModuleThunk@@U?$less@K@std@@V?$allocator@U?$pair@$$CBKVImportModuleThunk@@@std@@@3@@std@@@Z 0044bdc2 f    CIL library: CIL module
 0001:0004ade0       __unwindfunclet$?pluginActionHandler@MainGui@@IAEXH@Z$0 0044bde0 f    CIL library: CIL module
 0001:0004ade8       __ehhandler$?pluginActionHandler@MainGui@@IAEXH@Z 0044bde8 f    CIL library: CIL module
 0001:0004ae10       __unwindfunclet$?dumpFixActionHandler@MainGui@@IAEXXZ$0 0044be10 f    CIL library: CIL module
 0001:0004ae1b       __ehhandler$?dumpFixActionHandler@MainGui@@IAEXXZ 0044be1b f    CIL library: CIL module
 0001:0004ae50       __unwindfunclet$?DisplayContextMenuImports@MainGui@@IAEXVCWindow@ATL@@VCPoint@WTL@@@Z$0 0044be50 f    CIL library: CIL module
 0001:0004ae55       __ehhandler$?DisplayContextMenuImports@MainGui@@IAEXVCWindow@ATL@@VCPoint@WTL@@@Z 0044be55 f    CIL library: CIL module
 0001:0004ae70       __unwindfunclet$??0MainGui@@QAE@XZ$0 0044be70 f    CIL library: CIL module
 0001:0004ae78       __unwindfunclet$??0MainGui@@QAE@XZ$1 0044be78 f    CIL library: CIL module
 0001:0004ae83       __unwindfunclet$??0MainGui@@QAE@XZ$2 0044be83 f    CIL library: CIL module
 0001:0004ae92       __ehhandler$??0MainGui@@QAE@XZ 0044be92 f    CIL library: CIL module
 0001:0004aeb0       __unwindfunclet$??1MainGui@@UAE@XZ$0 0044beb0 f    CIL library: CIL module
 0001:0004aeb8       __unwindfunclet$??1MainGui@@UAE@XZ$1 0044beb8 f    CIL library: CIL module
 0001:0004aec3       __unwindfunclet$??1MainGui@@UAE@XZ$2 0044bec3 f    CIL library: CIL module
 0001:0004aed2       __unwindfunclet$??1MainGui@@UAE@XZ$3 0044bed2 f    CIL library: CIL module
 0001:0004aee1       __unwindfunclet$??1MainGui@@UAE@XZ$4 0044bee1 f    CIL library: CIL module
 0001:0004aeee       __unwindfunclet$??1MainGui@@UAE@XZ$5 0044beee f    CIL library: CIL module
 0001:0004aefb       __unwindfunclet$??1MainGui@@UAE@XZ$6 0044befb f    CIL library: CIL module
 0001:0004af08       __unwindfunclet$??1MainGui@@UAE@XZ$7 0044bf08 f    CIL library: CIL module
 0001:0004af15       __ehhandler$??1MainGui@@UAE@XZ 0044bf15 f    CIL library: CIL module
 0001:0004af30       __unwindfunclet$?InitializeGui@@YAHPAUHINSTANCE__@@J@Z$0 0044bf30 f    CIL library: CIL module
 0001:0004af3d       __unwindfunclet$?InitializeGui@@YAHPAUHINSTANCE__@@J@Z$1 0044bf3d f    CIL library: CIL module
 0001:0004af48       __ehhandler$?InitializeGui@@YAHPAUHINSTANCE__@@J@Z 0044bf48 f    CIL library: CIL module
 0001:0004af80       __unwindfunclet$??__E?moduleList@ProcessAccessHelp@@2V?$vector@VModuleInfo@@V?$allocator@VModuleInfo@@@std@@@std@@A@@YAXXZ$0 0044bf80 f    CIL library: CIL module
 0001:0004af8a       __ehhandler$??__E?moduleList@ProcessAccessHelp@@2V?$vector@VModuleInfo@@V?$allocator@VModuleInfo@@@std@@@std@@A@@YAXXZ 0044bf8a f    CIL library: CIL module
 0001:0004afb0       __unwindfunclet$??__E?ownModuleList@ProcessAccessHelp@@2V?$vector@VModuleInfo@@V?$allocator@VModuleInfo@@@std@@@std@@A@@YAXXZ$0 0044bfb0 f    CIL library: CIL module
 0001:0004afba       __ehhandler$??__E?ownModuleList@ProcessAccessHelp@@2V?$vector@VModuleInfo@@V?$allocator@VModuleInfo@@@std@@@std@@A@@YAXXZ 0044bfba f    CIL library: CIL module
 0001:0004afe0       ??__E?apiList@ApiReader@@2V?$hash_multimap@KPAVApiInfo@@V?$hash_compare@KU?$less@K@std@@@stdext@@V?$allocator@U?$pair@$$CBKPAVApiInfo@@@std@@@std@@@stdext@@A@@YAXXZ 0044bfe0 f    CIL library: CIL module
 0001:0004b000       ??__E?directImportLog@IATReferenceScan@@2VFileLog@@A@@YAXXZ 0044c000 f    CIL library: CIL module
 0001:0004b030       ??__E_Module@@YAXXZ        0044c030 f    CIL library: CIL module
 0001:0004b060       ??__E?moduleList@ProcessAccessHelp@@2V?$vector@VModuleInfo@@V?$allocator@VModuleInfo@@@std@@@std@@A@@YAXXZ 0044c060 f    CIL library: CIL module
 0001:0004b0d0       ??__E?ownModuleList@ProcessAccessHelp@@2V?$vector@VModuleInfo@@V?$allocator@VModuleInfo@@@std@@@std@@A@@YAXXZ 0044c0d0 f    CIL library: CIL module
 0001:0004b140       ??__E?config@Scylla@@2VConfigurationHolder@@A@@YAXXZ 0044c140 f    CIL library: CIL module
 0001:0004b160       ??__E?plugins@Scylla@@2VPluginLoader@@A@@YAXXZ 0044c160 f    CIL library: CIL module
 0001:0004b180       ??__E?processLister@Scylla@@2VProcessLister@@A@@YAXXZ 0044c180 f    CIL library: CIL module
 0001:0004b1a0       ??__E?debugLog@Scylla@@2VFileLog@@A@@YAXXZ 0044c1a0 f    CIL library: CIL module
 0001:0004b1ce       ??__E_AtlBaseModule@ATL@@YAXXZ 0044c1ce f   atls:atlbase.obj
 0001:0004b1e4       ??__E_AtlComModule@ATL@@YAXXZ 0044c1e4 f   atls:atlcommodule.obj
 0001:0004b1fa       ??__E_AtlWinModule@ATL@@YAXXZ 0044c1fa f   atls:atlwinmodule.obj
 0001:0004b210       ??__F?apiList@ApiReader@@2V?$hash_multimap@KPAVApiInfo@@V?$hash_compare@KU?$less@K@std@@@stdext@@V?$allocator@U?$pair@$$CBKPAVApiInfo@@@std@@@std@@@stdext@@A@@YAXXZ 0044c210 f    CIL library: CIL module
 0001:0004b220       ??__F_Module@@YAXXZ        0044c220 f    CIL library: CIL module
 0001:0004b280       ??__F?moduleList@ProcessAccessHelp@@2V?$vector@VModuleInfo@@V?$allocator@VModuleInfo@@@std@@@std@@A@@YAXXZ 0044c280 f    CIL library: CIL module
 0001:0004b2e0       ??__F?ownModuleList@ProcessAccessHelp@@2V?$vector@VModuleInfo@@V?$allocator@VModuleInfo@@@std@@@std@@A@@YAXXZ 0044c2e0 f    CIL library: CIL module
 0001:0004b340       ??__F?config@Scylla@@2VConfigurationHolder@@A@@YAXXZ 0044c340 f    CIL library: CIL module
 0001:0004b350       ??__F?plugins@Scylla@@2VPluginLoader@@A@@YAXXZ 0044c350 f    CIL library: CIL module
 0001:0004b360       ??__F?processLister@Scylla@@2VProcessLister@@A@@YAXXZ 0044c360 f    CIL library: CIL module
 0001:0004b365       ??__F_AtlBaseModule@ATL@@YAXXZ 0044c365 f   atls:atlbase.obj
 0001:0004b36f       ??__F_AtlComModule@ATL@@YAXXZ 0044c36f f   atls:atlcommodule.obj
 0001:0004b379       ??__F_AtlWinModule@ATL@@YAXXZ 0044c379 f   atls:atlwinmodule.obj
 0001:0004b383       ??__Fnomem@?5???2@YAPAXI@Z@YAXXZ 0044c383 f   LIBCMT:new.obj
