 Scylla

 Timestamp is 55460dce (Sun May 03 14:00:14 2015)

 Preferred load address is 0000000140000000

 Start         Length     Name                   Class
 0001:00000000 0004abc7H .text                   CODE
 0001:0004abd0 000016ccH .text$x                 CODE
 0001:0004c2a0 000001b0H .text$yc                CODE
 0001:0004c450 000002c6H .text$yd                CODE
 0002:00000000 000007d0H .idata$5                DATA
 0002:000007d0 00000008H .CRT$XCA                DATA
 0002:000007d8 00000018H .CRT$XCL                DATA
 0002:000007f0 00000048H .CRT$XCU                DATA
 0002:00000838 00000008H .CRT$XCZ                DATA
 0002:00000840 00000008H .CRT$XIA                DATA
 0002:00000848 00000018H .CRT$XIC                DATA
 0002:00000860 00000008H .CRT$XIY                DATA
 0002:00000868 00000008H .CRT$XIZ                DATA
 0002:00000870 00000008H .CRT$XPA                DATA
 0002:00000878 00000008H .CRT$XPX                DATA
 0002:00000880 00000008H .CRT$XPXA               DATA
 0002:00000888 00000008H .CRT$XPZ                DATA
 0002:00000890 00000008H .CRT$XTA                DATA
 0002:00000898 00000008H .CRT$XTZ                DATA
 0002:000008a0 0000bc28H .rdata                  DATA
 0002:0000c4d0 000029bcH .rdata$r                DATA
 0002:0000ee90 00000008H .rtc$IAA                DATA
 0002:0000ee98 00000008H .rtc$IZZ                DATA
 0002:0000eea0 00000008H .rtc$TAA                DATA
 0002:0000eea8 00000008H .rtc$TZZ                DATA
 0002:0000eeb0 00006e94H .xdata                  DATA
 0002:00015d48 00000234H .xdata$x                DATA
 0002:00015f80 00000008H ATL$__a                 DATA
 0002:00015f88 00000008H ATL$__z                 DATA
 0002:00015f90 000000f0H .idata$2                DATA
 0002:00016080 00000014H .idata$3                DATA
 0002:00016098 000007d0H .idata$4                DATA
 0002:00016868 00001106H .idata$6                DATA
 0002:0001796e 00000000H .edata                  DATA
 0003:00000000 00009a5cH .data                   DATA
 0003:00009a60 0000f210H .bss                    DATA
 0004:00000000 000044acH .pdata                  DATA
 0005:00000000 00000628H .rsrc$01                DATA
 0005:00000630 000090b8H .rsrc$02                DATA

  Address         Publics by Value              Rva+Base               Lib:Object

 0000:00000000       ___safe_se_handler_count   0000000000000000     <absolute>
 0000:00000000       ___safe_se_handler_table   0000000000000000     <absolute>
 0000:00000000       __ImageBase                0000000140000000     <linker-defined>
 0001:00000000       ?CenterWindow@CWindow@ATL@@QEAAHPEAUHWND__@@@Z 0000000140001000 f i AboutGui.obj
 0001:00000220       ?DoDataExchange@AboutGui@@QEAAHHI@Z 0000000140001220 f i AboutGui.obj
 0001:00000350       ?OnInitDialog@AboutGui@@IEAAHVCWindow@ATL@@_J@Z 0000000140001350 f   AboutGui.obj
 0001:00000460       ?OnClose@AboutGui@@IEAAXXZ 0000000140001460 f   AboutGui.obj
 0001:00000500       ?OnLink@AboutGui@@IEAA_JPEAUtagNMHDR@@@Z 0000000140001500 f   AboutGui.obj
 0001:00000540       ?setupLinks@AboutGui@@IEAAXXZ 0000000140001540 f   AboutGui.obj
 0001:00000890       ?setupTooltip@AboutGui@@IEAAXV?$CToolTipCtrlT@VCWindow@ATL@@@WTL@@VCWindow@ATL@@PEB_W@Z 0000000140001890 f   AboutGui.obj
 0001:00000960       ?Create@?$CToolTipCtrlT@VCWindow@ATL@@@WTL@@QEAAPEAUHWND__@@PEAU3@V_U_RECT@ATL@@PEB_WKKV_U_MENUorID@5@PEAX@Z 0000000140001960 f i AboutGui.obj
 0001:000009e0       ??1bad_alloc@std@@UEAA@XZ  00000001400019e0 f i ApiReader.obj
 0001:000009f0       ??_Ebad_alloc@std@@UEAAPEAXI@Z 00000001400019f0 f i  CIL library: CIL module
 0001:000009f0       ??_Gbad_alloc@std@@UEAAPEAXI@Z 00000001400019f0 f i ApiReader.obj
 0001:00000a30       ?getFilename@ModuleInfo@@QEBAPEB_WXZ 0000000140001a30 f i ApiReader.obj
 0001:00000a60       ?readApisFromModuleList@ApiReader@@QEAAXXZ 0000000140001a60 f   ApiReader.obj
 0001:00000ba0       ?parseModule@ApiReader@@AEAAXPEAVModuleInfo@@@Z 0000000140001ba0 f   ApiReader.obj
 0001:00000c40       ?parseModuleWithMapping@ApiReader@@AEAAXPEAVModuleInfo@@@Z 0000000140001c40 f   ApiReader.obj
 0001:00000cc0       ?handleForwardedApi@ApiReader@@AEAAX_KPEAD0GPEAVModuleInfo@@@Z 0000000140001cc0 f   ApiReader.obj
 0001:00000fe0       ?findModuleByName@ApiReader@@AEAAPEAVModuleInfo@@PEA_W@Z 0000000140001fe0 f   ApiReader.obj
 0001:000010c0       ?addApi@ApiReader@@AEAAXPEADGG_K1_NPEAVModuleInfo@@@Z 00000001400020c0 f   ApiReader.obj
 0001:000012e0       ?getHeaderFromProcess@ApiReader@@AEAAPEAEPEAVModuleInfo@@@Z 00000001400022e0 f   ApiReader.obj
 0001:00001350       ?getExportTableFromProcess@ApiReader@@AEAAPEAEPEAVModuleInfo@@PEAU_IMAGE_NT_HEADERS64@@@Z 0000000140002350 f   ApiReader.obj
 0001:000013e0       ?parseModuleWithProcess@ApiReader@@AEAAXPEAVModuleInfo@@@Z 00000001400023e0 f   ApiReader.obj
 0001:00001530       ?parseExportTable@ApiReader@@AEAAXPEAVModuleInfo@@PEAU_IMAGE_NT_HEADERS64@@PEAU_IMAGE_EXPORT_DIRECTORY@@_K@Z 0000000140002530 f   ApiReader.obj
 0001:00001710       ?isModuleLoadedInOwnProcess@ApiReader@@AEAA_NPEAVModuleInfo@@@Z 0000000140002710 f   ApiReader.obj
 0001:000017d0       ?parseModuleWithOwnProcess@ApiReader@@AEAAXPEAVModuleInfo@@@Z 00000001400027d0 f   ApiReader.obj
 0001:00001870       ?findApiInProcess@ApiReader@@AEAAXPEAVModuleInfo@@PEADGPEA_K2@Z 0000000140002870 f   ApiReader.obj
 0001:00001960       ?findApiInExportTable@ApiReader@@AEAA_NPEAVModuleInfo@@PEAU_IMAGE_EXPORT_DIRECTORY@@_KPEADGPEA_K4@Z 0000000140002960 f   ApiReader.obj
 0001:00001a70       ?setModulePriority@ApiReader@@AEAAXPEAVModuleInfo@@@Z 0000000140002a70 f   ApiReader.obj
 0001:00001b80       ?getApiByVirtualAddress@ApiReader@@QEAAPEAVApiInfo@@_KPEA_N@Z 0000000140002b80 f   ApiReader.obj
 0001:00001fb0       ?readAndParseIAT@ApiReader@@QEAAX_KKAEAV?$map@_KVImportModuleThunk@@U?$less@_K@std@@V?$allocator@U?$pair@$$CB_KVImportModuleThunk@@@std@@@3@@std@@@Z 0000000140002fb0 f   ApiReader.obj
 0001:00002010       ?parseIAT@ApiReader@@AEAAX_KPEAE0@Z 0000000140003010 f   ApiReader.obj
 0001:000021e0       ?addFoundApiToModuleList@ApiReader@@QEAAX_KPEAVApiInfo@@_N2@Z 00000001400031e0 f   ApiReader.obj
 0001:00002270       ?addModuleToModuleList@ApiReader@@AEAA_NPEB_W_K@Z 0000000140003270 f   ApiReader.obj
 0001:00002410       ??1ImportModuleThunk@@QEAA@XZ 0000000140003410 f i ApiReader.obj
 0001:00002460       ?addUnknownModuleToModuleList@ApiReader@@AEAAX_K@Z 0000000140003460 f   ApiReader.obj
 0001:000025f0       ?addFunctionToModuleList@ApiReader@@AEAA_NPEAVApiInfo@@_K1G_N2@Z 00000001400035f0 f   ApiReader.obj
 0001:00002970       ?clearAll@ApiReader@@QEAAXXZ 0000000140003970 f   ApiReader.obj
 0001:00002ab0       ?addNotFoundApiToModuleList@ApiReader@@AEAA_N_K0@Z 0000000140003ab0 f   ApiReader.obj
 0001:00002ee0       ??1?$_Hash@V?$_Hmap_traits@_KPEAVApiInfo@@V?$hash_compare@_KU?$less@_K@std@@@stdext@@V?$allocator@U?$pair@$$CB_KPEAVApiInfo@@@std@@@std@@$00@std@@@std@@QEAA@XZ 0000000140003ee0 f i ApiReader.obj
 0001:00002f70       ?_Reserve@?$vector@PEAVApiInfo@@V?$allocator@PEAVApiInfo@@@std@@@std@@IEAAX_K@Z 0000000140003f70 f i ApiReader.obj
 0001:00003000       ??1?$_Tree_val@V?$_Tmap_traits@_KVImportModuleThunk@@U?$less@_K@std@@V?$allocator@U?$pair@$$CB_KVImportModuleThunk@@@std@@@3@$0A@@std@@@std@@QEAA@XZ 0000000140004000 f i FunctionExport.obj
 0001:00003000       ??1?$_Tree_val@V?$_Tmap_traits@_KVImportThunk@@U?$less@_K@std@@V?$allocator@U?$pair@$$CB_KVImportThunk@@@std@@@3@$0A@@std@@@std@@QEAA@XZ 0000000140004000 f i ApiReader.obj
 0001:00003000       ??1?$_Tree_val@V?$_Tmap_traits@W4ConfigOption@@VConfiguration@@U?$less@W4ConfigOption@@@std@@V?$allocator@U?$pair@$$CBW4ConfigOption@@VConfiguration@@@std@@@4@$0A@@std@@@std@@QEAA@XZ 0000000140004000 f i ConfigurationHolder.obj
 0001:00003000       ??1?$_Tree_val@V?$_Tset_traits@_KU?$less@_K@std@@V?$allocator@_K@2@$0A@@std@@@std@@QEAA@XZ 0000000140004000 f i IATReferenceScan.obj
 0001:00003010       ??0?$_Hash@V?$_Hmap_traits@_KPEAVApiInfo@@V?$hash_compare@_KU?$less@_K@std@@@stdext@@V?$allocator@U?$pair@$$CB_KPEAVApiInfo@@@std@@@std@@$00@std@@@std@@QEAA@AEBV?$hash_compare@_KU?$less@_K@std@@@stdext@@AEBV?$allocator@U?$pair@$$CB_KPEAVApiInfo@@@std@@@1@@Z 0000000140004010 f i ApiReader.obj
 0001:000030e0       ?lower_bound@?$_Hash@V?$_Hmap_traits@_KPEAVApiInfo@@V?$hash_compare@_KU?$less@_K@std@@@stdext@@V?$allocator@U?$pair@$$CB_KPEAVApiInfo@@@std@@@std@@$00@std@@@std@@QEAA?AV?$_List_iterator@V?$_List_val@U?$pair@$$CB_KPEAVApiInfo@@@std@@V?$allocator@U?$pair@$$CB_KPEAVApiInfo@@@std@@@2@@std@@@2@AEB_K@Z 00000001400040e0 f i ApiReader.obj
 0001:000031e0       ?equal_range@?$_Hash@V?$_Hmap_traits@_KPEAVApiInfo@@V?$hash_compare@_KU?$less@_K@std@@@stdext@@V?$allocator@U?$pair@$$CB_KPEAVApiInfo@@@std@@@std@@$00@std@@@std@@QEBA?AU?$pair@V?$_List_const_iterator@V?$_List_val@U?$pair@$$CB_KPEAVApiInfo@@@std@@V?$allocator@U?$pair@$$CB_KPEAVApiInfo@@@std@@@2@@std@@@std@@V12@@2@AEB_K@Z 00000001400041e0 f i ApiReader.obj
 0001:000032f0       ?_Init@?$_Hash@V?$_Hmap_traits@PEAU_TREEITEM@@UTreeItemData@ImportsHandling@@V?$hash_compare@PEAU_TREEITEM@@U?$less@PEAU_TREEITEM@@@std@@@stdext@@V?$allocator@U?$pair@QEAU_TREEITEM@@UTreeItemData@ImportsHandling@@@std@@@std@@$0A@@std@@@std@@IEAAX_K@Z 00000001400042f0 f i ImportsHandling.obj
 0001:000032f0       ?_Init@?$_Hash@V?$_Hmap_traits@_KPEAVApiInfo@@V?$hash_compare@_KU?$less@_K@std@@@stdext@@V?$allocator@U?$pair@$$CB_KPEAVApiInfo@@@std@@@std@@$00@std@@@std@@IEAAX_K@Z 00000001400042f0 f i ApiReader.obj
 0001:00003370       ??1?$list@U?$pair@$$CB_KPEAVApiInfo@@@std@@V?$allocator@U?$pair@$$CB_KPEAVApiInfo@@@std@@@2@@std@@QEAA@XZ 0000000140004370 f i ApiReader.obj
 0001:00003370       ??1?$list@U?$pair@QEAU_TREEITEM@@UTreeItemData@ImportsHandling@@@std@@V?$allocator@U?$pair@QEAU_TREEITEM@@UTreeItemData@ImportsHandling@@@std@@@2@@std@@QEAA@XZ 0000000140004370 f i ImportsHandling.obj
 0001:000033d0       ?_Erase@?$_Tree@V?$_Tmap_traits@_KVImportModuleThunk@@U?$less@_K@std@@V?$allocator@U?$pair@$$CB_KVImportModuleThunk@@@std@@@3@$0A@@std@@@std@@IEAAXPEAU_Node@?$_Tree_nod@V?$_Tmap_traits@_KVImportModuleThunk@@U?$less@_K@std@@V?$allocator@U?$pair@$$CB_KVImportModuleThunk@@@std@@@3@$0A@@std@@@2@@Z 00000001400043d0 f i ApiReader.obj
 0001:00003460       ?reserve@?$vector@PEAVApiInfo@@V?$allocator@PEAVApiInfo@@@std@@@std@@QEAAX_K@Z 0000000140004460 f i ApiReader.obj
 0001:00003520       ?erase@?$_Tree@V?$_Tmap_traits@_KVImportThunk@@U?$less@_K@std@@V?$allocator@U?$pair@$$CB_KVImportThunk@@@std@@@3@$0A@@std@@@std@@QEAA?AV?$_Tree_iterator@V?$_Tree_val@V?$_Tmap_traits@_KVImportThunk@@U?$less@_K@std@@V?$allocator@U?$pair@$$CB_KVImportThunk@@@std@@@3@$0A@@std@@@std@@@2@V?$_Tree_const_iterator@V?$_Tree_val@V?$_Tmap_traits@_KVImportThunk@@U?$less@_K@std@@V?$allocator@U?$pair@$$CB_KVImportThunk@@@std@@@3@$0A@@std@@@std@@@2@0@Z 0000000140004520 f i ApiReader.obj
 0001:00003620       ??0?$_Tree_val@V?$_Tmap_traits@_KVImportThunk@@U?$less@_K@std@@V?$allocator@U?$pair@$$CB_KVImportThunk@@@std@@@3@$0A@@std@@@std@@QEAA@AEBU?$less@_K@1@V?$allocator@U?$pair@$$CB_KVImportThunk@@@std@@@1@@Z 0000000140004620 f i ApiReader.obj
 0001:00003620       ??0?$_Tree@V?$_Tmap_traits@_KVImportThunk@@U?$less@_K@std@@V?$allocator@U?$pair@$$CB_KVImportThunk@@@std@@@3@$0A@@std@@@std@@QEAA@AEBU?$less@_K@1@AEBV?$allocator@U?$pair@$$CB_KVImportThunk@@@std@@@1@@Z 0000000140004620 f i ApiReader.obj
 0001:000036b0       ?allocate@?$allocator@PEAVApiInfo@@@std@@QEAAPEAPEAVApiInfo@@_K@Z 00000001400046b0 f i ApiReader.obj
 0001:00003720       ?erase@?$_Tree@V?$_Tmap_traits@_KVImportThunk@@U?$less@_K@std@@V?$allocator@U?$pair@$$CB_KVImportThunk@@@std@@@3@$0A@@std@@@std@@QEAA?AV?$_Tree_iterator@V?$_Tree_val@V?$_Tmap_traits@_KVImportThunk@@U?$less@_K@std@@V?$allocator@U?$pair@$$CB_KVImportThunk@@@std@@@3@$0A@@std@@@std@@@2@V?$_Tree_const_iterator@V?$_Tree_val@V?$_Tmap_traits@_KVImportThunk@@U?$less@_K@std@@V?$allocator@U?$pair@$$CB_KVImportThunk@@@std@@@3@$0A@@std@@@std@@@2@@Z 0000000140004720 f i ApiReader.obj
 0001:00003b10       ?clear@?$_Tree@V?$_Tmap_traits@_KVImportThunk@@U?$less@_K@std@@V?$allocator@U?$pair@$$CB_KVImportThunk@@@std@@@3@$0A@@std@@@std@@QEAAXXZ 0000000140004b10 f i ApiReader.obj
 0001:00003ba0       ?_Erase@?$_Tree@V?$_Tmap_traits@_KVImportThunk@@U?$less@_K@std@@V?$allocator@U?$pair@$$CB_KVImportThunk@@@std@@@3@$0A@@std@@@std@@IEAAXPEAU_Node@?$_Tree_nod@V?$_Tmap_traits@_KVImportThunk@@U?$less@_K@std@@V?$allocator@U?$pair@$$CB_KVImportThunk@@@std@@@3@$0A@@std@@@2@@Z 0000000140004ba0 f i ApiReader.obj
 0001:00003c00       ?_Lrotate@?$_Tree@V?$_Tmap_traits@_KVImportThunk@@U?$less@_K@std@@V?$allocator@U?$pair@$$CB_KVImportThunk@@@std@@@3@$0A@@std@@@std@@IEAAXPEAU_Node@?$_Tree_nod@V?$_Tmap_traits@_KVImportThunk@@U?$less@_K@std@@V?$allocator@U?$pair@$$CB_KVImportThunk@@@std@@@3@$0A@@std@@@2@@Z 0000000140004c00 f i ApiReader.obj
 0001:00003c60       ?_Rrotate@?$_Tree@V?$_Tmap_traits@_KVImportThunk@@U?$less@_K@std@@V?$allocator@U?$pair@$$CB_KVImportThunk@@@std@@@3@$0A@@std@@@std@@IEAAXPEAU_Node@?$_Tree_nod@V?$_Tmap_traits@_KVImportThunk@@U?$less@_K@std@@V?$allocator@U?$pair@$$CB_KVImportThunk@@@std@@@3@$0A@@std@@@2@@Z 0000000140004c60 f i ApiReader.obj
 0001:00003cc0       ?_Insert_n@?$vector@V?$_List_iterator@V?$_List_val@U?$pair@QEAU_TREEITEM@@UTreeItemData@ImportsHandling@@@std@@V?$allocator@U?$pair@QEAU_TREEITEM@@UTreeItemData@ImportsHandling@@@std@@@2@@std@@@std@@V?$allocator@V?$_List_iterator@V?$_List_val@U?$pair@QEAU_TREEITEM@@UTreeItemData@ImportsHandling@@@std@@V?$allocator@U?$pair@QEAU_TREEITEM@@UTreeItemData@ImportsHandling@@@std@@@2@@std@@@std@@@2@@std@@IEAAXV?$_Vector_const_iterator@V?$_Vector_val@V?$_List_iterator@V?$_List_val@U?$pair@QEAU_TREEITEM@@UTreeItemData@ImportsHandling@@@std@@V?$allocator@U?$pair@QEAU_TREEITEM@@UTreeItemData@ImportsHandling@@@std@@@2@@std@@@std@@V?$allocator@V?$_List_iterator@V?$_List_val@U?$pair@QEAU_TREEITEM@@UTreeItemData@ImportsHandling@@@std@@V?$allocator@U?$pair@QEAU_TREEITEM@@UTreeItemData@ImportsHandling@@@std@@@2@@std@@@std@@@2@@std@@@2@_KAEBV?$_List_iterator@V?$_List_val@U?$pair@QEAU_TREEITEM@@UTreeItemData@ImportsHandling@@@std@@V?$allocator@U?$pair@QEAU_TREEITEM@@UTreeItemData@ImportsHandling@@@std@@@2@@std@@@2@@Z 0000000140004cc0 f i ImportsHandling.obj
 0001:00003cc0       ?_Insert_n@?$vector@V?$_List_iterator@V?$_List_val@U?$pair@$$CB_KPEAVApiInfo@@@std@@V?$allocator@U?$pair@$$CB_KPEAVApiInfo@@@std@@@2@@std@@@std@@V?$allocator@V?$_List_iterator@V?$_List_val@U?$pair@$$CB_KPEAVApiInfo@@@std@@V?$allocator@U?$pair@$$CB_KPEAVApiInfo@@@std@@@2@@std@@@std@@@2@@std@@IEAAXV?$_Vector_const_iterator@V?$_Vector_val@V?$_List_iterator@V?$_List_val@U?$pair@$$CB_KPEAVApiInfo@@@std@@V?$allocator@U?$pair@$$CB_KPEAVApiInfo@@@std@@@2@@std@@@std@@V?$allocator@V?$_List_iterator@V?$_List_val@U?$pair@$$CB_KPEAVApiInfo@@@std@@V?$allocator@U?$pair@$$CB_KPEAVApiInfo@@@std@@@2@@std@@@std@@@2@@std@@@2@_KAEBV?$_List_iterator@V?$_List_val@U?$pair@$$CB_KPEAVApiInfo@@@std@@V?$allocator@U?$pair@$$CB_KPEAVApiInfo@@@std@@@2@@std@@@2@@Z 0000000140004cc0 f i ApiReader.obj
 0001:00003f40       ??0bad_alloc@std@@QEAA@AEBV01@@Z 0000000140004f40 f i ApiReader.obj
 0001:00003f70       ?_Linsert@?$_Tree@V?$_Tmap_traits@_KVImportThunk@@U?$less@_K@std@@V?$allocator@U?$pair@$$CB_KVImportThunk@@@std@@@3@$0A@@std@@@std@@QEAA?AU?$pair@V?$_Tree_iterator@V?$_Tree_val@V?$_Tmap_traits@_KVImportThunk@@U?$less@_K@std@@V?$allocator@U?$pair@$$CB_KVImportThunk@@@std@@@3@$0A@@std@@@std@@@std@@_N@2@PEAU_Node@?$_Tree_nod@V?$_Tmap_traits@_KVImportThunk@@U?$less@_K@std@@V?$allocator@U?$pair@$$CB_KVImportThunk@@@std@@@3@$0A@@std@@@2@_N@Z 0000000140004f70 f i ApiReader.obj
 0001:000040a0       ?_Linsert@?$_Tree@V?$_Tmap_traits@_KVImportModuleThunk@@U?$less@_K@std@@V?$allocator@U?$pair@$$CB_KVImportModuleThunk@@@std@@@3@$0A@@std@@@std@@QEAA?AU?$pair@V?$_Tree_iterator@V?$_Tree_val@V?$_Tmap_traits@_KVImportModuleThunk@@U?$less@_K@std@@V?$allocator@U?$pair@$$CB_KVImportModuleThunk@@@std@@@3@$0A@@std@@@std@@@std@@_N@2@PEAU_Node@?$_Tree_nod@V?$_Tmap_traits@_KVImportModuleThunk@@U?$less@_K@std@@V?$allocator@U?$pair@$$CB_KVImportModuleThunk@@@std@@@3@$0A@@std@@@2@_N@Z 00000001400050a0 f i ApiReader.obj
 0001:00004210       ?_Insert@?$_Tree@V?$_Tmap_traits@_KVImportThunk@@U?$less@_K@std@@V?$allocator@U?$pair@$$CB_KVImportThunk@@@std@@@3@$0A@@std@@@std@@IEAA?AV?$_Tree_iterator@V?$_Tree_val@V?$_Tmap_traits@_KVImportThunk@@U?$less@_K@std@@V?$allocator@U?$pair@$$CB_KVImportThunk@@@std@@@3@$0A@@std@@@std@@@2@_NPEAU_Node@?$_Tree_nod@V?$_Tmap_traits@_KVImportThunk@@U?$less@_K@std@@V?$allocator@U?$pair@$$CB_KVImportThunk@@@std@@@3@$0A@@std@@@2@1@Z 0000000140005210 f i ApiReader.obj
 0001:000044d0       ?_Insert@?$_Tree@V?$_Tmap_traits@_KVImportModuleThunk@@U?$less@_K@std@@V?$allocator@U?$pair@$$CB_KVImportModuleThunk@@@std@@@3@$0A@@std@@@std@@IEAA?AV?$_Tree_iterator@V?$_Tree_val@V?$_Tmap_traits@_KVImportModuleThunk@@U?$less@_K@std@@V?$allocator@U?$pair@$$CB_KVImportModuleThunk@@@std@@@3@$0A@@std@@@std@@@2@_NPEAU_Node@?$_Tree_nod@V?$_Tmap_traits@_KVImportModuleThunk@@U?$less@_K@std@@V?$allocator@U?$pair@$$CB_KVImportModuleThunk@@@std@@@3@$0A@@std@@@2@1@Z 00000001400054d0 f i ApiReader.obj
 0001:000047d0       ?_Lrotate@?$_Tree@V?$_Tmap_traits@_KVImportModuleThunk@@U?$less@_K@std@@V?$allocator@U?$pair@$$CB_KVImportModuleThunk@@@std@@@3@$0A@@std@@@std@@IEAAXPEAU_Node@?$_Tree_nod@V?$_Tmap_traits@_KVImportModuleThunk@@U?$less@_K@std@@V?$allocator@U?$pair@$$CB_KVImportModuleThunk@@@std@@@3@$0A@@std@@@2@@Z 00000001400057d0 f i ApiReader.obj
 0001:00004830       ?_Rrotate@?$_Tree@V?$_Tmap_traits@_KVImportModuleThunk@@U?$less@_K@std@@V?$allocator@U?$pair@$$CB_KVImportModuleThunk@@@std@@@3@$0A@@std@@@std@@IEAAXPEAU_Node@?$_Tree_nod@V?$_Tmap_traits@_KVImportModuleThunk@@U?$less@_K@std@@V?$allocator@U?$pair@$$CB_KVImportModuleThunk@@@std@@@3@$0A@@std@@@2@@Z 0000000140005830 f i ApiReader.obj
 0001:00004890       ??0ImportModuleThunk@@QEAA@AEBV0@@Z 0000000140005890 f i ApiReader.obj
 0001:00004910       ??0ImportThunk@@QEAA@AEBV0@@Z 0000000140005910 f i ApiReader.obj
 0001:000049e0       ??1?$pair@_KVImportModuleThunk@@@std@@QEAA@XZ 00000001400059e0 f i ApiReader.obj
 0001:000049e0       ??1?$pair@$$CB_KVImportModuleThunk@@@std@@QEAA@XZ 00000001400059e0 f i ApiReader.obj
 0001:00004a30       ?_Buynode@?$_Tree_val@V?$_Tmap_traits@_KVImportThunk@@U?$less@_K@std@@V?$allocator@U?$pair@$$CB_KVImportThunk@@@std@@@3@$0A@@std@@@std@@QEAAPEAU_Node@?$_Tree_nod@V?$_Tmap_traits@_KVImportThunk@@U?$less@_K@std@@V?$allocator@U?$pair@$$CB_KVImportThunk@@@std@@@3@$0A@@std@@@2@XZ 0000000140005a30 f i ApiReader.obj
 0001:00004ab0       ?_Insert@?$_Hash@V?$_Hmap_traits@_KPEAVApiInfo@@V?$hash_compare@_KU?$less@_K@std@@@stdext@@V?$allocator@U?$pair@$$CB_KPEAVApiInfo@@@std@@@std@@$00@std@@@std@@IEAA?AU?$pair@V?$_List_iterator@V?$_List_val@U?$pair@$$CB_KPEAVApiInfo@@@std@@V?$allocator@U?$pair@$$CB_KPEAVApiInfo@@@std@@@2@@std@@@std@@_N@2@AEBU?$pair@$$CB_KPEAVApiInfo@@@2@V?$_List_iterator@V?$_List_val@U?$pair@$$CB_KPEAVApiInfo@@@std@@V?$allocator@U?$pair@$$CB_KPEAVApiInfo@@@std@@@2@@std@@@2@@Z 0000000140005ab0 f i ApiReader.obj
 0001:00004c10       ?_Buynode@?$_Tree_val@V?$_Tmap_traits@_KVImportModuleThunk@@U?$less@_K@std@@V?$allocator@U?$pair@$$CB_KVImportModuleThunk@@@std@@@3@$0A@@std@@@std@@QEAAPEAU_Node@?$_Tree_nod@V?$_Tmap_traits@_KVImportModuleThunk@@U?$less@_K@std@@V?$allocator@U?$pair@$$CB_KVImportModuleThunk@@@std@@@3@$0A@@std@@@2@XZ 0000000140005c10 f i ApiReader.obj
 0001:00004c90       ??0?$_Tree@V?$_Tmap_traits@_KVImportThunk@@U?$less@_K@std@@V?$allocator@U?$pair@$$CB_KVImportThunk@@@std@@@3@$0A@@std@@@std@@QEAA@AEBV01@@Z 0000000140005c90 f i ApiReader.obj
 0001:00004cd0       ?_Check_size@?$_Hash@V?$_Hmap_traits@_KPEAVApiInfo@@V?$hash_compare@_KU?$less@_K@std@@@stdext@@V?$allocator@U?$pair@$$CB_KPEAVApiInfo@@@std@@@std@@$00@std@@@std@@IEAAXXZ 0000000140005cd0 f i ApiReader.obj
 0001:00004de0       ?_Splice_same@?$list@U?$pair@$$CB_KPEAVApiInfo@@@std@@V?$allocator@U?$pair@$$CB_KPEAVApiInfo@@@std@@@2@@std@@QEAAXV?$_List_const_iterator@V?$_List_val@U?$pair@$$CB_KPEAVApiInfo@@@std@@V?$allocator@U?$pair@$$CB_KPEAVApiInfo@@@std@@@2@@std@@@2@AEAV12@00_K@Z 0000000140005de0 f i ApiReader.obj
 0001:00004e90       ?_Copy@?$_Tree@V?$_Tmap_traits@_KVImportThunk@@U?$less@_K@std@@V?$allocator@U?$pair@$$CB_KVImportThunk@@@std@@@3@$0A@@std@@@std@@IEAAXAEBV12@@Z 0000000140005e90 f i ApiReader.obj
 0001:00004f60       ?_Copy@?$_Tree@V?$_Tmap_traits@_KVImportThunk@@U?$less@_K@std@@V?$allocator@U?$pair@$$CB_KVImportThunk@@@std@@@3@$0A@@std@@@std@@IEAAPEAU_Node@?$_Tree_nod@V?$_Tmap_traits@_KVImportThunk@@U?$less@_K@std@@V?$allocator@U?$pair@$$CB_KVImportThunk@@@std@@@3@$0A@@std@@@2@PEAU342@0@Z 0000000140005f60 f i ApiReader.obj
 0001:00005000       ??$_Uninit_move@PEAV?$_List_iterator@V?$_List_val@U?$pair@QEAU_TREEITEM@@UTreeItemData@ImportsHandling@@@std@@V?$allocator@U?$pair@QEAU_TREEITEM@@UTreeItemData@ImportsHandling@@@std@@@2@@std@@@std@@PEAV12@V?$allocator@V?$_List_iterator@V?$_List_val@U?$pair@QEAU_TREEITEM@@UTreeItemData@ImportsHandling@@@std@@V?$allocator@U?$pair@QEAU_TREEITEM@@UTreeItemData@ImportsHandling@@@std@@@2@@std@@@std@@@2@V12@@std@@YAPEAV?$_List_iterator@V?$_List_val@U?$pair@QEAU_TREEITEM@@UTreeItemData@ImportsHandling@@@std@@V?$allocator@U?$pair@QEAU_TREEITEM@@UTreeItemData@ImportsHandling@@@std@@@2@@std@@@0@PEAV10@00AEAV?$allocator@V?$_List_iterator@V?$_List_val@U?$pair@QEAU_TREEITEM@@UTreeItemData@ImportsHandling@@@std@@V?$allocator@U?$pair@QEAU_TREEITEM@@UTreeItemData@ImportsHandling@@@std@@@2@@std@@@std@@@0@0U_Nonscalar_ptr_iterator_tag@0@@Z 0000000140006000 f i ImportsHandling.obj
 0001:00005000       ??$_Uninit_move@PEAV?$_List_iterator@V?$_List_val@U?$pair@$$CB_KPEAVApiInfo@@@std@@V?$allocator@U?$pair@$$CB_KPEAVApiInfo@@@std@@@2@@std@@@std@@PEAV12@V?$allocator@V?$_List_iterator@V?$_List_val@U?$pair@$$CB_KPEAVApiInfo@@@std@@V?$allocator@U?$pair@$$CB_KPEAVApiInfo@@@std@@@2@@std@@@std@@@2@V12@@std@@YAPEAV?$_List_iterator@V?$_List_val@U?$pair@$$CB_KPEAVApiInfo@@@std@@V?$allocator@U?$pair@$$CB_KPEAVApiInfo@@@std@@@2@@std@@@0@PEAV10@00AEAV?$allocator@V?$_List_iterator@V?$_List_val@U?$pair@$$CB_KPEAVApiInfo@@@std@@V?$allocator@U?$pair@$$CB_KPEAVApiInfo@@@std@@@2@@std@@@std@@@0@0U_Nonscalar_ptr_iterator_tag@0@@Z 0000000140006000 f i ApiReader.obj
 0001:00005040       ??$_Buynode@AEAU?$pair@$$CB_KVImportThunk@@@std@@@?$_Tree_val@V?$_Tmap_traits@_KVImportThunk@@U?$less@_K@std@@V?$allocator@U?$pair@$$CB_KVImportThunk@@@std@@@3@$0A@@std@@@std@@QEAAPEAU_Node@?$_Tree_nod@V?$_Tmap_traits@_KVImportThunk@@U?$less@_K@std@@V?$allocator@U?$pair@$$CB_KVImportThunk@@@std@@@3@$0A@@std@@@1@AEAU?$pair@$$CB_KVImportThunk@@@1@@Z 0000000140006040 f i ApiReader.obj
 0001:00005040       ??$_Buynode@U?$pair@$$CB_KVImportThunk@@@std@@@?$_Tree_val@V?$_Tmap_traits@_KVImportThunk@@U?$less@_K@std@@V?$allocator@U?$pair@$$CB_KVImportThunk@@@std@@@3@$0A@@std@@@std@@QEAAPEAU_Node@?$_Tree_nod@V?$_Tmap_traits@_KVImportThunk@@U?$less@_K@std@@V?$allocator@U?$pair@$$CB_KVImportThunk@@@std@@@3@$0A@@std@@@1@$$QEAU?$pair@$$CB_KVImportThunk@@@1@@Z 0000000140006040 f i ImportsHandling.obj
 0001:00005040       ??$_Buynode@U?$pair@_KVImportThunk@@@std@@@?$_Tree_val@V?$_Tmap_traits@_KVImportThunk@@U?$less@_K@std@@V?$allocator@U?$pair@$$CB_KVImportThunk@@@std@@@3@$0A@@std@@@std@@QEAAPEAU_Node@?$_Tree_nod@V?$_Tmap_traits@_KVImportThunk@@U?$less@_K@std@@V?$allocator@U?$pair@$$CB_KVImportThunk@@@std@@@3@$0A@@std@@@1@$$QEAU?$pair@_KVImportThunk@@@1@@Z 0000000140006040 f i ApiReader.obj
 0001:00005090       ??$_Buynode@U?$pair@_KPEAVApiInfo@@@std@@@?$_List_val@U?$pair@$$CB_KPEAVApiInfo@@@std@@V?$allocator@U?$pair@$$CB_KPEAVApiInfo@@@std@@@2@@std@@QEAAPEAU_Node@?$_List_nod@U?$pair@$$CB_KPEAVApiInfo@@@std@@V?$allocator@U?$pair@$$CB_KPEAVApiInfo@@@std@@@2@@1@PEAU231@0$$QEAU?$pair@_KPEAVApiInfo@@@1@@Z 0000000140006090 f i ApiReader.obj
 0001:00005140       ??0ConfigurationHolder@@QEAA@PEB_W@Z 0000000140006140 f   ConfigurationHolder.obj
 0001:00005980       ??1?$map@W4ConfigOption@@VConfiguration@@U?$less@W4ConfigOption@@@std@@V?$allocator@U?$pair@$$CBW4ConfigOption@@VConfiguration@@@std@@@4@@std@@QEAA@XZ 0000000140006980 f i ConfigurationHolder.obj
 0001:000059c0       ?loadConfiguration@ConfigurationHolder@@QEAA_NXZ 00000001400069c0 f   ConfigurationHolder.obj
 0001:00005ae0       ?saveConfiguration@ConfigurationHolder@@QEBA_NXZ 0000000140006ae0 f   ConfigurationHolder.obj
 0001:00005bb0       ?readNumericFromConfigFile@ConfigurationHolder@@AEAA_NAEAVConfiguration@@H@Z 0000000140006bb0 f   ConfigurationHolder.obj
 0001:00005c60       ?readStringFromConfigFile@ConfigurationHolder@@AEAA_NAEAVConfiguration@@@Z 0000000140006c60 f   ConfigurationHolder.obj
 0001:00005d20       ?saveConfig@ConfigurationHolder@@AEBA_NAEBVConfiguration@@@Z 0000000140006d20 f   ConfigurationHolder.obj
 0001:00005e00       ??A?$map@W4ConfigOption@@VConfiguration@@U?$less@W4ConfigOption@@@std@@V?$allocator@U?$pair@$$CBW4ConfigOption@@VConfiguration@@@std@@@4@@std@@QEAAAEAVConfiguration@@$$QEAW4ConfigOption@@@Z 0000000140006e00 f i ConfigurationHolder.obj
 0001:00005f20       ??A?$map@W4ConfigOption@@VConfiguration@@U?$less@W4ConfigOption@@@std@@V?$allocator@U?$pair@$$CBW4ConfigOption@@VConfiguration@@@std@@@4@@std@@QEAAAEAVConfiguration@@AEBW4ConfigOption@@@Z 0000000140006f20 f i ConfigurationHolder.obj
 0001:00006030       ??0?$_Tree@V?$_Tmap_traits@W4ConfigOption@@VConfiguration@@U?$less@W4ConfigOption@@@std@@V?$allocator@U?$pair@$$CBW4ConfigOption@@VConfiguration@@@std@@@4@$0A@@std@@@std@@QEAA@AEBU?$less@W4ConfigOption@@@1@AEBV?$allocator@U?$pair@$$CBW4ConfigOption@@VConfiguration@@@std@@@1@@Z 0000000140007030 f i ConfigurationHolder.obj
 0001:000060c0       ?erase@?$_Tree@V?$_Tmap_traits@W4ConfigOption@@VConfiguration@@U?$less@W4ConfigOption@@@std@@V?$allocator@U?$pair@$$CBW4ConfigOption@@VConfiguration@@@std@@@4@$0A@@std@@@std@@QEAA?AV?$_Tree_iterator@V?$_Tree_val@V?$_Tmap_traits@W4ConfigOption@@VConfiguration@@U?$less@W4ConfigOption@@@std@@V?$allocator@U?$pair@$$CBW4ConfigOption@@VConfiguration@@@std@@@4@$0A@@std@@@std@@@2@V?$_Tree_const_iterator@V?$_Tree_val@V?$_Tmap_traits@W4ConfigOption@@VConfiguration@@U?$less@W4ConfigOption@@@std@@V?$allocator@U?$pair@$$CBW4ConfigOption@@VConfiguration@@@std@@@4@$0A@@std@@@std@@@2@0@Z 00000001400070c0 f i ConfigurationHolder.obj
 0001:000061c0       ?erase@?$_Tree@V?$_Tmap_traits@W4ConfigOption@@VConfiguration@@U?$less@W4ConfigOption@@@std@@V?$allocator@U?$pair@$$CBW4ConfigOption@@VConfiguration@@@std@@@4@$0A@@std@@@std@@QEAA?AV?$_Tree_iterator@V?$_Tree_val@V?$_Tmap_traits@W4ConfigOption@@VConfiguration@@U?$less@W4ConfigOption@@@std@@V?$allocator@U?$pair@$$CBW4ConfigOption@@VConfiguration@@@std@@@4@$0A@@std@@@std@@@2@V?$_Tree_const_iterator@V?$_Tree_val@V?$_Tmap_traits@W4ConfigOption@@VConfiguration@@U?$less@W4ConfigOption@@@std@@V?$allocator@U?$pair@$$CBW4ConfigOption@@VConfiguration@@@std@@@4@$0A@@std@@@std@@@2@@Z 00000001400071c0 f i ConfigurationHolder.obj
 0001:000065b0       ?clear@?$_Tree@V?$_Tmap_traits@W4ConfigOption@@VConfiguration@@U?$less@W4ConfigOption@@@std@@V?$allocator@U?$pair@$$CBW4ConfigOption@@VConfiguration@@@std@@@4@$0A@@std@@@std@@QEAAXXZ 00000001400075b0 f i ConfigurationHolder.obj
 0001:00006640       ?_Erase@?$_Tree@V?$_Tmap_traits@W4ConfigOption@@VConfiguration@@U?$less@W4ConfigOption@@@std@@V?$allocator@U?$pair@$$CBW4ConfigOption@@VConfiguration@@@std@@@4@$0A@@std@@@std@@IEAAXPEAU_Node@?$_Tree_nod@V?$_Tmap_traits@W4ConfigOption@@VConfiguration@@U?$less@W4ConfigOption@@@std@@V?$allocator@U?$pair@$$CBW4ConfigOption@@VConfiguration@@@std@@@4@$0A@@std@@@2@@Z 0000000140007640 f i ConfigurationHolder.obj
 0001:000066a0       ?_Lrotate@?$_Tree@V?$_Tmap_traits@W4ConfigOption@@VConfiguration@@U?$less@W4ConfigOption@@@std@@V?$allocator@U?$pair@$$CBW4ConfigOption@@VConfiguration@@@std@@@4@$0A@@std@@@std@@IEAAXPEAU_Node@?$_Tree_nod@V?$_Tmap_traits@W4ConfigOption@@VConfiguration@@U?$less@W4ConfigOption@@@std@@V?$allocator@U?$pair@$$CBW4ConfigOption@@VConfiguration@@@std@@@4@$0A@@std@@@2@@Z 00000001400076a0 f i ConfigurationHolder.obj
 0001:00006700       ?_Rrotate@?$_Tree@V?$_Tmap_traits@W4ConfigOption@@VConfiguration@@U?$less@W4ConfigOption@@@std@@V?$allocator@U?$pair@$$CBW4ConfigOption@@VConfiguration@@@std@@@4@$0A@@std@@@std@@IEAAXPEAU_Node@?$_Tree_nod@V?$_Tmap_traits@W4ConfigOption@@VConfiguration@@U?$less@W4ConfigOption@@@std@@V?$allocator@U?$pair@$$CBW4ConfigOption@@VConfiguration@@@std@@@4@$0A@@std@@@2@@Z 0000000140007700 f i ConfigurationHolder.obj
 0001:00006760       ??$swprintf_s@$0BF@@@YAHAEAY0BF@_WPEB_WZZ 0000000140007760 f i ConfigurationHolder.obj
 0001:00006790       ?_Insert@?$_Tree@V?$_Tmap_traits@W4ConfigOption@@VConfiguration@@U?$less@W4ConfigOption@@@std@@V?$allocator@U?$pair@$$CBW4ConfigOption@@VConfiguration@@@std@@@4@$0A@@std@@@std@@QEAA?AV?$_Tree_iterator@V?$_Tree_val@V?$_Tmap_traits@W4ConfigOption@@VConfiguration@@U?$less@W4ConfigOption@@@std@@V?$allocator@U?$pair@$$CBW4ConfigOption@@VConfiguration@@@std@@@4@$0A@@std@@@std@@@2@V?$_Tree_const_iterator@V?$_Tree_val@V?$_Tmap_traits@W4ConfigOption@@VConfiguration@@U?$less@W4ConfigOption@@@std@@V?$allocator@U?$pair@$$CBW4ConfigOption@@VConfiguration@@@std@@@4@$0A@@std@@@std@@@2@PEAU_Node@?$_Tree_nod@V?$_Tmap_traits@W4ConfigOption@@VConfiguration@@U?$less@W4ConfigOption@@@std@@V?$allocator@U?$pair@$$CBW4ConfigOption@@VConfiguration@@@std@@@4@$0A@@std@@@2@@Z 0000000140007790 f i ConfigurationHolder.obj
 0001:000069c0       ?_Linsert@?$_Tree@V?$_Tmap_traits@W4ConfigOption@@VConfiguration@@U?$less@W4ConfigOption@@@std@@V?$allocator@U?$pair@$$CBW4ConfigOption@@VConfiguration@@@std@@@4@$0A@@std@@@std@@QEAA?AU?$pair@V?$_Tree_iterator@V?$_Tree_val@V?$_Tmap_traits@W4ConfigOption@@VConfiguration@@U?$less@W4ConfigOption@@@std@@V?$allocator@U?$pair@$$CBW4ConfigOption@@VConfiguration@@@std@@@4@$0A@@std@@@std@@@std@@_N@2@PEAU_Node@?$_Tree_nod@V?$_Tmap_traits@W4ConfigOption@@VConfiguration@@U?$less@W4ConfigOption@@@std@@V?$allocator@U?$pair@$$CBW4ConfigOption@@VConfiguration@@@std@@@4@$0A@@std@@@2@_N@Z 00000001400079c0 f i ConfigurationHolder.obj
 0001:00006af0       ?_Insert@?$_Tree@V?$_Tmap_traits@W4ConfigOption@@VConfiguration@@U?$less@W4ConfigOption@@@std@@V?$allocator@U?$pair@$$CBW4ConfigOption@@VConfiguration@@@std@@@4@$0A@@std@@@std@@IEAA?AV?$_Tree_iterator@V?$_Tree_val@V?$_Tmap_traits@W4ConfigOption@@VConfiguration@@U?$less@W4ConfigOption@@@std@@V?$allocator@U?$pair@$$CBW4ConfigOption@@VConfiguration@@@std@@@4@$0A@@std@@@std@@@2@_NPEAU_Node@?$_Tree_nod@V?$_Tmap_traits@W4ConfigOption@@VConfiguration@@U?$less@W4ConfigOption@@@std@@V?$allocator@U?$pair@$$CBW4ConfigOption@@VConfiguration@@@std@@@4@$0A@@std@@@2@1@Z 0000000140007af0 f i ConfigurationHolder.obj
 0001:00006db0       ??$_Buynode@U?$pair@W4ConfigOption@@VConfiguration@@@std@@@?$_Tree_val@V?$_Tmap_traits@W4ConfigOption@@VConfiguration@@U?$less@W4ConfigOption@@@std@@V?$allocator@U?$pair@$$CBW4ConfigOption@@VConfiguration@@@std@@@4@$0A@@std@@@std@@QEAAPEAU_Node@?$_Tree_nod@V?$_Tmap_traits@W4ConfigOption@@VConfiguration@@U?$less@W4ConfigOption@@@std@@V?$allocator@U?$pair@$$CBW4ConfigOption@@VConfiguration@@@std@@@4@$0A@@std@@@1@$$QEAU?$pair@W4ConfigOption@@VConfiguration@@@1@@Z 0000000140007db0 f i ConfigurationHolder.obj
 0001:00006db0       ??$_Buynode@U?$pair@$$CBW4ConfigOption@@VConfiguration@@@std@@@?$_Tree_val@V?$_Tmap_traits@W4ConfigOption@@VConfiguration@@U?$less@W4ConfigOption@@@std@@V?$allocator@U?$pair@$$CBW4ConfigOption@@VConfiguration@@@std@@@4@$0A@@std@@@std@@QEAAPEAU_Node@?$_Tree_nod@V?$_Tmap_traits@W4ConfigOption@@VConfiguration@@U?$less@W4ConfigOption@@@std@@V?$allocator@U?$pair@$$CBW4ConfigOption@@VConfiguration@@@std@@@4@$0A@@std@@@1@$$QEAU?$pair@$$CBW4ConfigOption@@VConfiguration@@@1@@Z 0000000140007db0 f i ConfigurationHolder.obj
 0001:00006e00       ?_Buynode@?$_Tree_val@V?$_Tmap_traits@W4ConfigOption@@VConfiguration@@U?$less@W4ConfigOption@@@std@@V?$allocator@U?$pair@$$CBW4ConfigOption@@VConfiguration@@@std@@@4@$0A@@std@@@std@@QEAAPEAU_Node@?$_Tree_nod@V?$_Tmap_traits@W4ConfigOption@@VConfiguration@@U?$less@W4ConfigOption@@@std@@V?$allocator@U?$pair@$$CBW4ConfigOption@@VConfiguration@@@std@@@4@$0A@@std@@@2@XZ 0000000140007e00 f i ConfigurationHolder.obj
 0001:00006e80       ??1DeviceNameResolver@@QEAA@XZ 0000000140007e80 f   DeviceNameResolver.obj
 0001:00006f10       ?initDeviceNameList@DeviceNameResolver@@AEAAXXZ 0000000140007f10 f   DeviceNameResolver.obj
 0001:000070f0       ?resolveDeviceLongNameToShort@DeviceNameResolver@@QEAA_NPEB_WPEA_W@Z 00000001400080f0 f   DeviceNameResolver.obj
 0001:00007210       ?fixVirtualDevices@DeviceNameResolver@@AEAAXXZ 0000000140008210 f   DeviceNameResolver.obj
 0001:00007520       ?AtlThrowImpl@ATL@@YAXJ@Z  0000000140008520 f i DisassemblerGui.obj
 0001:00007540       ?Init@CDynamicStdCallThunk@ATL@@QEAAH_KPEAX@Z 0000000140008540 f i DisassemblerGui.obj
 0001:000075d0       ?DoDataExchange@DisassemblerGui@@QEAAHHI@Z 00000001400085d0 f i DisassemblerGui.obj
 0001:00007680       ?ProcessWindowMessage@DisassemblerGui@@UEAAHPEAUHWND__@@I_K_JAEA_JK@Z 0000000140008680 f i DisassemblerGui.obj
 0001:00007920       ??0DisassemblerGui@@QEAA@_KPEAVApiReader@@@Z 0000000140008920 f   DisassemblerGui.obj
 0001:00007ac0       ??_EDisassemblerGui@@UEAAPEAXI@Z 0000000140008ac0 f i  CIL library: CIL module
 0001:00007ac0       ??_GDisassemblerGui@@UEAAPEAXI@Z 0000000140008ac0 f i DisassemblerGui.obj
 0001:00007af0       ??1?$CDialogResize@VDumpMemoryGui@@@WTL@@QEAA@XZ 0000000140008af0 f i DumpMemoryGui.obj
 0001:00007af0       ??1?$CDialogResize@VDisassemblerGui@@@WTL@@QEAA@XZ 0000000140008af0 f i DisassemblerGui.obj
 0001:00007af0       ??1?$CDialogResize@VMainGui@@@WTL@@QEAA@XZ 0000000140008af0 f i main.obj
 0001:00007af0       ??1?$CDialogResize@VDumpSectionGui@@@WTL@@QEAA@XZ 0000000140008af0 f i DumpSectionGui.obj
 0001:00007b30       ??1DisassemblerGui@@UEAA@XZ 0000000140008b30 f i DisassemblerGui.obj
 0001:00007c00       ?OnContextMenu@DisassemblerGui@@IEAAXVCWindow@ATL@@VCPoint@WTL@@@Z 0000000140008c00 f   DisassemblerGui.obj
 0001:00007e60       ?OnNMCustomdraw@DisassemblerGui@@IEAA_JPEAUtagNMHDR@@@Z 0000000140008e60 f   DisassemblerGui.obj
 0001:00007f10       ?disassembleNewAddress@DisassemblerGui@@AEAAX_K@Z 0000000140008f10 f   DisassemblerGui.obj
 0001:00008050       ?OnDisassembleForward@DisassemblerGui@@IEAAXIHVCWindow@ATL@@@Z 0000000140009050 f   DisassemblerGui.obj
 0001:000080d0       ?addColumnsToDisassembler@DisassemblerGui@@IEAAXAEAV?$CListViewCtrlT@VCWindow@ATL@@@WTL@@@Z 00000001400090d0 f   DisassemblerGui.obj
 0001:00008240       ?displayDisassembly@DisassemblerGui@@IEAA_NXZ 0000000140009240 f   DisassemblerGui.obj
 0001:00008630       ?copyToClipboard@DisassemblerGui@@IEAAXPEB_W@Z 0000000140009630 f   DisassemblerGui.obj
 0001:000086e0       ?toUpperCase@DisassemblerGui@@AEAAXPEA_W@Z 00000001400096e0 f   DisassemblerGui.obj
 0001:00008750       ?followInstruction@DisassemblerGui@@AEAAXH@Z 0000000140009750 f   DisassemblerGui.obj
 0001:00008850       ?getDisassemblyComment@DisassemblerGui@@AEAA_NI@Z 0000000140009850 f   DisassemblerGui.obj
 0001:00008990       ?initAddressCommentList@DisassemblerGui@@AEAAXXZ 0000000140009990 f   DisassemblerGui.obj
 0001:00008b00       ?addModuleAddressCommentEntry@DisassemblerGui@@AEAAX_KKPEB_W@Z 0000000140009b00 f   DisassemblerGui.obj
 0001:00008c50       ?analyzeAddress@DisassemblerGui@@AEAAX_KPEA_W@Z 0000000140009c50 f   DisassemblerGui.obj
 0001:00008da0       ?GetDialogProc@?$CDialogImplBaseT@VCWindow@ATL@@@ATL@@UEAAP6A_JPEAUHWND__@@I_K_J@ZXZ 0000000140009da0 f i DisassemblerGui.obj
 0001:00008db0       ??1?$CMenuT@$0A@@WTL@@QEAA@XZ 0000000140009db0 f i DisassemblerGui.obj
 0001:00008db0       ?OnFinalMessage@?$CWindowImplBaseT@V?$CTreeViewCtrlExT@VCWindow@ATL@@@WTL@@V?$CWinTraitsOR@$0CA@$0A@V?$CWinTraits@$0FGAAAAAA@$0A@@ATL@@@ATL@@@ATL@@UEAAXPEAUHWND__@@@Z 0000000140009db0 f i MainGui.obj
 0001:00008db0       ?OnFinalMessage@?$CWindowImplBaseT@V?$CEditT@VCWindow@ATL@@@WTL@@V?$CWinTraits@$0FGAAAAAA@$0A@@ATL@@@ATL@@UEAAXPEAUHWND__@@@Z 0000000140009db0 f i DisassemblerGui.obj
 0001:00008db0       ?OnFinalMessage@?$CDialogImplBaseT@VCWindow@ATL@@@ATL@@UEAAXPEAUHWND__@@@Z 0000000140009db0 f i DisassemblerGui.obj
 0001:00008db0       ??3@YAXPEAX0@Z             0000000140009db0 f i ApiReader.obj
 0001:00008dc0       ?DlgResize_Init@?$CDialogResize@VDisassemblerGui@@@WTL@@QEAAX_N0K@Z 0000000140009dc0 f i DisassemblerGui.obj
 0001:000091a0       ?GetValue@?$CHexEditImpl@V?$CHexEdit@_K@@_KV?$CEditT@VCWindow@ATL@@@WTL@@V?$CWinTraits@$0FGAAAAAA@$0A@@ATL@@@@QEBA_KXZ 000000014000a1a0 f i DisassemblerGui.obj
 0001:00009290       ?SetValue@?$CHexEditImpl@V?$CHexEdit@_K@@_KV?$CEditT@VCWindow@ATL@@@WTL@@V?$CWinTraits@$0FGAAAAAA@$0A@@ATL@@@@QEAAX_K_N@Z 000000014000a290 f i DisassemblerGui.obj
 0001:00009360       ?ProcessWindowMessage@?$CHexEditImpl@V?$CHexEdit@_K@@_KV?$CEditT@VCWindow@ATL@@@WTL@@V?$CWinTraits@$0FGAAAAAA@$0A@@ATL@@@@UEAAHPEAUHWND__@@I_K_JAEA_JK@Z 000000014000a360 f i DisassemblerGui.obj
 0001:000093b0       ?GetWindowProc@?$CWindowImplBaseT@V?$CEditT@VCWindow@ATL@@@WTL@@V?$CWinTraits@$0FGAAAAAA@$0A@@ATL@@@ATL@@UEAAP6A_JPEAUHWND__@@I_K_J@ZXZ 000000014000a3b0 f i DisassemblerGui.obj
 0001:000093b0       ?GetWindowProc@?$CWindowImplBaseT@V?$CTreeViewCtrlExT@VCWindow@ATL@@@WTL@@V?$CWinTraitsOR@$0CA@$0A@V?$CWinTraits@$0FGAAAAAA@$0A@@ATL@@@ATL@@@ATL@@UEAAP6A_JPEAUHWND__@@I_K_J@ZXZ 000000014000a3b0 f i MainGui.obj
 0001:000093c0       ??1?$CMenuT@$00@WTL@@QEAA@XZ 000000014000a3c0 f i DisassemblerGui.obj
 0001:000093f0       ?GetSubMenu@?$CMenuT@$00@WTL@@QEBA?AV?$CMenuT@$0A@@2@H@Z 000000014000a3f0 f i DisassemblerGui.obj
 0001:00009410       ?_Reserve@?$vector@_KV?$allocator@_K@std@@@std@@IEAAX_K@Z 000000014000a410 f i DisassemblerGui.obj
 0001:000094a0       ?_Reserve@?$vector@VHardDisk@@V?$allocator@VHardDisk@@@std@@@std@@IEAAX_K@Z 000000014000a4a0 f i DeviceNameResolver.obj
 0001:000094a0       ?_Reserve@?$vector@VDisassemblerAddressComment@@V?$allocator@VDisassemblerAddressComment@@@std@@@std@@IEAAX_K@Z 000000014000a4a0 f i DisassemblerGui.obj
 0001:00009560       ?InsertItem@?$CListViewCtrlT@VCWindow@ATL@@@WTL@@QEAAHIHPEB_WIIH_J@Z 000000014000a560 f i DisassemblerGui.obj
 0001:000095e0       ?_ProcessWindowMessage@?$CHexEditImpl@V?$CHexEdit@_K@@_KV?$CEditT@VCWindow@ATL@@@WTL@@V?$CWinTraits@$0FGAAAAAA@$0A@@ATL@@@@QEAAHPEAUHWND__@@I_K_JAEA_JK@Z 000000014000a5e0 f i DisassemblerGui.obj
 0001:00009730       ?_FixTrackMenuPopupX@?$CMenuT@$0A@@WTL@@SAHHH@Z 000000014000a730 f i DisassemblerGui.obj
 0001:000097d0       ?reserve@?$vector@_KV?$allocator@_K@std@@@std@@QEAAX_K@Z 000000014000a7d0 f i DisassemblerGui.obj
 0001:000098e0       ?reserve@?$vector@VHardDisk@@V?$allocator@VHardDisk@@@std@@@std@@QEAAX_K@Z 000000014000a8e0 f i DeviceNameResolver.obj
 0001:000098e0       ?reserve@?$vector@VDisassemblerAddressComment@@V?$allocator@VDisassemblerAddressComment@@@std@@@std@@QEAAX_K@Z 000000014000a8e0 f i DisassemblerGui.obj
 0001:00009a20       ?OnPaste@?$CHexEditImpl@V?$CHexEdit@_K@@_KV?$CEditT@VCWindow@ATL@@@WTL@@V?$CWinTraits@$0FGAAAAAA@$0A@@ATL@@@@QEAAXXZ 000000014000aa20 f i DisassemblerGui.obj
 0001:00009b40       ?OnChar@?$CHexEditImpl@V?$CHexEdit@_K@@_KV?$CEditT@VCWindow@ATL@@@WTL@@V?$CWinTraits@$0FGAAAAAA@$0A@@ATL@@@@QEAAXIII@Z 000000014000ab40 f i DisassemblerGui.obj
 0001:00009bd0       ?_IsValidString@?$CHexEditImpl@V?$CHexEdit@_K@@_KV?$CEditT@VCWindow@ATL@@@WTL@@V?$CWinTraits@$0FGAAAAAA@$0A@@ATL@@@@QEBA_NQEB_W@Z 000000014000abd0 f i DisassemblerGui.obj
 0001:00009c60       ?DialogProc@?$CDialogImplBaseT@VCWindow@ATL@@@ATL@@SA_JPEAUHWND__@@I_K_J@Z 000000014000ac60 f i DisassemblerGui.obj
 0001:00009d80       ?WindowProc@?$CWindowImplBaseT@V?$CEditT@VCWindow@ATL@@@WTL@@V?$CWinTraits@$0FGAAAAAA@$0A@@ATL@@@ATL@@SA_JPEAUHWND__@@I_K_J@Z 000000014000ad80 f i DisassemblerGui.obj
 0001:00009d80       ?WindowProc@?$CWindowImplBaseT@V?$CTreeViewCtrlExT@VCWindow@ATL@@@WTL@@V?$CWinTraitsOR@$0CA@$0A@V?$CWinTraits@$0FGAAAAAA@$0A@@ATL@@@ATL@@@ATL@@SA_JPEAUHWND__@@I_K_J@Z 000000014000ad80 f i MainGui.obj
 0001:00009f00       ??$swprintf_s@$0BPE@@@YAHAEAY0BPE@_WPEB_WZZ 000000014000af00 f i DisassemblerGui.obj
 0001:00009f30       ?SubclassWindow@?$CWindowImplBaseT@V?$CEditT@VCWindow@ATL@@@WTL@@V?$CWinTraits@$0FGAAAAAA@$0A@@ATL@@@ATL@@QEAAHPEAUHWND__@@@Z 000000014000af30 f i DisassemblerGui.obj
 0001:00009fb0       ??$_Sort@PEAVDisassemblerAddressComment@@_J@std@@YAXPEAVDisassemblerAddressComment@@0_J@Z 000000014000afb0 f i DisassemblerGui.obj
 0001:0000a140       ??$_Unguarded_partition@PEAVDisassemblerAddressComment@@@std@@YA?AU?$pair@PEAVDisassemblerAddressComment@@PEAV1@@0@PEAVDisassemblerAddressComment@@0@Z 000000014000b140 f i DisassemblerGui.obj
 0001:0000a4b0       ??$_Uninit_move@PEAVHardDisk@@PEAV1@V?$allocator@VHardDisk@@@std@@V1@@std@@YAPEAVHardDisk@@PEAV1@00AEAV?$allocator@VHardDisk@@@0@0U_Nonscalar_ptr_iterator_tag@0@@Z 000000014000b4b0 f i DeviceNameResolver.obj
 0001:0000a4b0       ??$_Uninit_move@PEAVDisassemblerAddressComment@@PEAV1@V?$allocator@VDisassemblerAddressComment@@@std@@V1@@std@@YAPEAVDisassemblerAddressComment@@PEAV1@00AEAV?$allocator@VDisassemblerAddressComment@@@0@0U_Nonscalar_ptr_iterator_tag@0@@Z 000000014000b4b0 f i DisassemblerGui.obj
 0001:0000a510       ??$_Median@PEAVDisassemblerAddressComment@@@std@@YAXPEAVDisassemblerAddressComment@@00@Z 000000014000b510 f i DisassemblerGui.obj
 0001:0000a600       ??$_Make_heap@PEAVDisassemblerAddressComment@@_JV1@@std@@YAXPEAVDisassemblerAddressComment@@0PEA_J0@Z 000000014000b600 f i DisassemblerGui.obj
 0001:0000a7d0       ??$_Sort_heap@PEAVDisassemblerAddressComment@@@std@@YAXPEAVDisassemblerAddressComment@@0@Z 000000014000b7d0 f i DisassemblerGui.obj
 0001:0000a8d0       ??$_Insertion_sort1@PEAVDisassemblerAddressComment@@V1@@std@@YAXPEAVDisassemblerAddressComment@@00@Z 000000014000b8d0 f i DisassemblerGui.obj
 0001:0000a9f0       ??$_Med3@PEAVDisassemblerAddressComment@@@std@@YAXPEAVDisassemblerAddressComment@@00@Z 000000014000b9f0 f i DisassemblerGui.obj
 0001:0000aae0       ??$_Adjust_heap@PEAVDisassemblerAddressComment@@_JV1@@std@@YAXPEAVDisassemblerAddressComment@@_J1$$QEAV1@@Z 000000014000bae0 f i DisassemblerGui.obj
 0001:0000ac30       ?dllInjection@DllInjection@@QEAAPEAUHINSTANCE__@@PEAXPEB_W@Z 000000014000bc30 f   DllInjection.obj
 0001:0000ad30       ?unloadDllInProcess@DllInjection@@QEAA_NPEAXPEAUHINSTANCE__@@@Z 000000014000bd30 f   DllInjection.obj
 0001:0000add0       ?getModuleHandleByFilename@DllInjection@@AEAAPEAUHINSTANCE__@@PEAXPEB_W@Z 000000014000bdd0 f   DllInjection.obj
 0001:0000af30       ?startRemoteThread@DllInjection@@QEAAPEAXPEAX00@Z 000000014000bf30 f   DllInjection.obj
 0001:0000af80       ?customCreateRemoteThread@DllInjection@@AEAAPEAXPEAX00@Z 000000014000bf80 f   DllInjection.obj
 0001:0000b010       ?injectPlugin@DllInjectionPlugin@@QEAAXAEAVPlugin@@AEAV?$map@_KVImportModuleThunk@@U?$less@_K@std@@V?$allocator@U?$pair@$$CB_KVImportModuleThunk@@@std@@@3@@std@@_K2@Z 000000014000c010 f   DllInjectionPlugin.obj
 0001:0000b190       ?createFileMapping@DllInjectionPlugin@@AEAA_NK@Z 000000014000c190 f   DllInjectionPlugin.obj
 0001:0000b210       ?getNumberOfUnresolvedImports@DllInjectionPlugin@@AEAA_KAEAV?$map@_KVImportModuleThunk@@U?$less@_K@std@@V?$allocator@U?$pair@$$CB_KVImportModuleThunk@@@std@@@3@@std@@@Z 000000014000c210 f   DllInjectionPlugin.obj
 0001:0000b330       ?addUnresolvedImports@DllInjectionPlugin@@AEAAXPEAU_UNRESOLVED_IMPORT@@AEAV?$map@_KVImportModuleThunk@@U?$less@_K@std@@V?$allocator@U?$pair@$$CB_KVImportModuleThunk@@@std@@@3@@std@@@Z 000000014000c330 f   DllInjectionPlugin.obj
 0001:0000b470       ?handlePluginResults@DllInjectionPlugin@@AEAAXPEAU_SCYLLA_EXCHANGE@@AEAV?$map@_KVImportModuleThunk@@U?$less@_K@std@@V?$allocator@U?$pair@$$CB_KVImportModuleThunk@@@std@@@3@@std@@@Z 000000014000c470 f   DllInjectionPlugin.obj
 0001:0000b530       ?updateImportsWithPluginResult@DllInjectionPlugin@@AEAAXPEAU_UNRESOLVED_IMPORT@@AEAV?$map@_KVImportModuleThunk@@U?$less@_K@std@@V?$allocator@U?$pair@$$CB_KVImportModuleThunk@@@std@@@3@@std@@@Z 000000014000c530 f   DllInjectionPlugin.obj
 0001:0000b850       ?CopyBtcAddress@DonateGui@@IEAAXIHVCWindow@ATL@@@Z 000000014000c850 f   DonateGui.obj
 0001:0000b8e0       ?DoDataExchange@DumpMemoryGui@@QEAAHHI@Z 000000014000c8e0 f i DumpMemoryGui.obj
 0001:0000ba10       ?ProcessWindowMessage@DumpMemoryGui@@UEAAHPEAUHWND__@@I_K_JAEA_JK@Z 000000014000ca10 f i DumpMemoryGui.obj
 0001:0000bc10       ??0DumpMemoryGui@@QEAA@XZ  000000014000cc10 f   DumpMemoryGui.obj
 0001:0000bd50       ??_EDumpMemoryGui@@UEAAPEAXI@Z 000000014000cd50 f i  CIL library: CIL module
 0001:0000bd50       ??_GDumpMemoryGui@@UEAAPEAXI@Z 000000014000cd50 f i DumpMemoryGui.obj
 0001:0000bd80       ??1DumpMemoryGui@@UEAA@XZ  000000014000cd80 f   DumpMemoryGui.obj
 0001:0000be60       ?OnInitDialog@DumpMemoryGui@@IEAAHVCWindow@ATL@@_J@Z 000000014000ce60 f   DumpMemoryGui.obj
 0001:0000bf30       ?addColumnsToMemoryList@DumpMemoryGui@@IEAAXAEAV?$CListViewCtrlT@VCWindow@ATL@@@WTL@@@Z 000000014000cf30 f   DumpMemoryGui.obj
 0001:0000c150       ?displayMemoryList@DumpMemoryGui@@IEAAXAEAV?$CListViewCtrlT@VCWindow@ATL@@@WTL@@@Z 000000014000d150 f   DumpMemoryGui.obj
 0001:0000c6b0       ?getMemoryStateString@DumpMemoryGui@@CAPEB_WK@Z 000000014000d6b0 f   DumpMemoryGui.obj
 0001:0000c6f0       ?getMemoryProtectionString@DumpMemoryGui@@CAPEA_WK@Z 000000014000d6f0 f   DumpMemoryGui.obj
 0001:0000c8f0       ?OnListMemoryClick@DumpMemoryGui@@IEAA_JPEAUtagNMHDR@@@Z 000000014000d8f0 f   DumpMemoryGui.obj
 0001:0000c990       ?OnOK@DumpMemoryGui@@IEAAXIHVCWindow@ATL@@@Z 000000014000d990 f   DumpMemoryGui.obj
 0001:0000ca50       ?updateAddressAndSize@DumpMemoryGui@@AEAAXPEAVMemory@@@Z 000000014000da50 f   DumpMemoryGui.obj
 0001:0000cad0       ?listviewCompareFunc@DumpMemoryGui@@KAH_J00@Z 000000014000dad0 f   DumpMemoryGui.obj
 0001:0000cc00       ?getMemoryList@DumpMemoryGui@@AEAAXXZ 000000014000dc00 f   DumpMemoryGui.obj
 0001:0000d010       ?setSectionName@DumpMemoryGui@@AEAAX_KKPEB_W@Z 000000014000e010 f   DumpMemoryGui.obj
 0001:0000d150       ?setAllSectionNames@DumpMemoryGui@@AEAAX_KPEA_W@Z 000000014000e150 f   DumpMemoryGui.obj
 0001:0000d320       ?dumpMemory@DumpMemoryGui@@AEAA_NXZ 000000014000e320 f   DumpMemoryGui.obj
 0001:0000d3b0       ?DDX_Check@?$CWinDataExchange@VDumpMemoryGui@@@WTL@@QEAAXIAEA_NH@Z 000000014000e3b0 f i DumpMemoryGui.obj
 0001:0000d450       ?DlgResize_Init@?$CDialogResize@VDumpMemoryGui@@@WTL@@QEAAX_N0K@Z 000000014000e450 f i DumpMemoryGui.obj
 0001:0000d830       ?GetItemData@?$CListViewCtrlT@VCWindow@ATL@@@WTL@@QEBA_KH@Z 000000014000e830 f i DumpMemoryGui.obj
 0001:0000d8a0       ?GetValue@?$CHexEditImpl@V?$CHexEdit@K@@KV?$CEditT@VCWindow@ATL@@@WTL@@V?$CWinTraits@$0FGAAAAAA@$0A@@ATL@@@@QEBAKXZ 000000014000e8a0 f i DumpMemoryGui.obj
 0001:0000d970       ?SetValue@?$CHexEditImpl@V?$CHexEdit@K@@KV?$CEditT@VCWindow@ATL@@@WTL@@V?$CWinTraits@$0FGAAAAAA@$0A@@ATL@@@@QEAAXK_N@Z 000000014000e970 f i DumpMemoryGui.obj
 0001:0000d9d0       ?ProcessWindowMessage@?$CHexEditImpl@V?$CHexEdit@K@@KV?$CEditT@VCWindow@ATL@@@WTL@@V?$CWinTraits@$0FGAAAAAA@$0A@@ATL@@@@UEAAHPEAUHWND__@@I_K_JAEA_JK@Z 000000014000e9d0 f i DumpMemoryGui.obj
 0001:0000da20       ??1?$vector@VHardDisk@@V?$allocator@VHardDisk@@@std@@@std@@QEAA@XZ 000000014000ea20 f i DeviceNameResolver.obj
 0001:0000da20       ??1?$vector@VDisassemblerAddressComment@@V?$allocator@VDisassemblerAddressComment@@@std@@@std@@QEAA@XZ 000000014000ea20 f i DisassemblerGui.obj
 0001:0000da20       ??1?$vector@V?$_List_iterator@V?$_List_val@U?$pair@$$CB_KPEAVApiInfo@@@std@@V?$allocator@U?$pair@$$CB_KPEAVApiInfo@@@std@@@2@@std@@@std@@V?$allocator@V?$_List_iterator@V?$_List_val@U?$pair@$$CB_KPEAVApiInfo@@@std@@V?$allocator@U?$pair@$$CB_KPEAVApiInfo@@@std@@@2@@std@@@std@@@2@@std@@QEAA@XZ 000000014000ea20 f i ApiReader.obj
 0001:0000da20       ??1?$vector@V?$_List_iterator@V?$_List_val@U?$pair@QEAU_TREEITEM@@UTreeItemData@ImportsHandling@@@std@@V?$allocator@U?$pair@QEAU_TREEITEM@@UTreeItemData@ImportsHandling@@@std@@@2@@std@@@std@@V?$allocator@V?$_List_iterator@V?$_List_val@U?$pair@QEAU_TREEITEM@@UTreeItemData@ImportsHandling@@@std@@V?$allocator@U?$pair@QEAU_TREEITEM@@UTreeItemData@ImportsHandling@@@std@@@2@@std@@@std@@@2@@std@@QEAA@XZ 000000014000ea20 f i ImportsHandling.obj
 0001:0000da20       ??1?$vector@PEAVApiInfo@@V?$allocator@PEAVApiInfo@@@std@@@std@@QEAA@XZ 000000014000ea20 f i PickApiGui.obj
 0001:0000da20       ??1?$vector@VMemory@@V?$allocator@VMemory@@@std@@@std@@QEAA@XZ 000000014000ea20 f i DumpMemoryGui.obj
 0001:0000da20       ??1?$vector@_KV?$allocator@_K@std@@@std@@QEAA@XZ 000000014000ea20 f i DisassemblerGui.obj
 0001:0000da20       ??1?$vector@VPeFileSection@@V?$allocator@VPeFileSection@@@std@@@std@@QEAA@XZ 000000014000ea20 f i PeParser.obj
 0001:0000da50       ?reserve@?$vector@VMemory@@V?$allocator@VMemory@@@std@@@std@@QEAAX_K@Z 000000014000ea50 f i DumpMemoryGui.obj
 0001:0000db90       ?clear@?$vector@VMemory@@V?$allocator@VMemory@@@std@@@std@@QEAAXXZ 000000014000eb90 f i DumpMemoryGui.obj
 0001:0000dc00       ?OnSize@?$CDialogResize@VPickDllGui@@@WTL@@QEAA_JI_K_JAEAH@Z 000000014000ec00 f i PickDllGui.obj
 0001:0000dc00       ?OnSize@?$CDialogResize@VDisassemblerGui@@@WTL@@QEAA_JI_K_JAEAH@Z 000000014000ec00 f i DisassemblerGui.obj
 0001:0000dc00       ?OnSize@?$CDialogResize@VPickApiGui@@@WTL@@QEAA_JI_K_JAEAH@Z 000000014000ec00 f i PickApiGui.obj
 0001:0000dc00       ?OnSize@?$CDialogResize@VDumpMemoryGui@@@WTL@@QEAA_JI_K_JAEAH@Z 000000014000ec00 f i DumpMemoryGui.obj
 0001:0000dc00       ?OnSize@?$CDialogResize@VDumpSectionGui@@@WTL@@QEAA_JI_K_JAEAH@Z 000000014000ec00 f i DumpSectionGui.obj
 0001:0000dc90       ?_NumToString@?$CHexEditImpl@V?$CHexEdit@K@@KV?$CEditT@VCWindow@ATL@@@WTL@@V?$CWinTraits@$0FGAAAAAA@$0A@@ATL@@@@QEBAXKQEA_W_N@Z 000000014000ec90 f i DumpMemoryGui.obj
 0001:0000dd60       ?_ProcessWindowMessage@?$CHexEditImpl@V?$CHexEdit@K@@KV?$CEditT@VCWindow@ATL@@@WTL@@V?$CWinTraits@$0FGAAAAAA@$0A@@ATL@@@@QEAAHPEAUHWND__@@I_K_JAEA_JK@Z 000000014000ed60 f i DumpMemoryGui.obj
 0001:0000deb0       ?_Reserve@?$vector@VMemory@@V?$allocator@VMemory@@@std@@@std@@IEAAX_K@Z 000000014000eeb0 f i DumpMemoryGui.obj
 0001:0000df70       ?DlgResize_UpdateLayout@?$CDialogResize@VPickApiGui@@@WTL@@QEAAXHH@Z 000000014000ef70 f i PickApiGui.obj
 0001:0000df70       ?DlgResize_UpdateLayout@?$CDialogResize@VDisassemblerGui@@@WTL@@QEAAXHH@Z 000000014000ef70 f i DisassemblerGui.obj
 0001:0000df70       ?DlgResize_UpdateLayout@?$CDialogResize@VDumpMemoryGui@@@WTL@@QEAAXHH@Z 000000014000ef70 f i DumpMemoryGui.obj
 0001:0000df70       ?DlgResize_UpdateLayout@?$CDialogResize@VPickDllGui@@@WTL@@QEAAXHH@Z 000000014000ef70 f i PickDllGui.obj
 0001:0000df70       ?DlgResize_UpdateLayout@?$CDialogResize@VDumpSectionGui@@@WTL@@QEAAXHH@Z 000000014000ef70 f i DumpSectionGui.obj
 0001:0000e270       ?OnPaste@?$CHexEditImpl@V?$CHexEdit@K@@KV?$CEditT@VCWindow@ATL@@@WTL@@V?$CWinTraits@$0FGAAAAAA@$0A@@ATL@@@@QEAAXXZ 000000014000f270 f i DumpMemoryGui.obj
 0001:0000e390       ?OnChar@?$CHexEditImpl@V?$CHexEdit@K@@KV?$CEditT@VCWindow@ATL@@@WTL@@V?$CWinTraits@$0FGAAAAAA@$0A@@ATL@@@@QEAAXIII@Z 000000014000f390 f i DumpMemoryGui.obj
 0001:0000e420       ?DlgResize_PositionControl@?$CDialogResize@VDumpSectionGui@@@WTL@@QEAA_NHHAEAUtagRECT@@AEAU_AtlDlgResizeData@12@_NPEAU412@@Z 000000014000f420 f i DumpSectionGui.obj
 0001:0000e420       ?DlgResize_PositionControl@?$CDialogResize@VDisassemblerGui@@@WTL@@QEAA_NHHAEAUtagRECT@@AEAU_AtlDlgResizeData@12@_NPEAU412@@Z 000000014000f420 f i DisassemblerGui.obj
 0001:0000e420       ?DlgResize_PositionControl@?$CDialogResize@VDumpMemoryGui@@@WTL@@QEAA_NHHAEAUtagRECT@@AEAU_AtlDlgResizeData@12@_NPEAU412@@Z 000000014000f420 f i DumpMemoryGui.obj
 0001:0000e420       ?DlgResize_PositionControl@?$CDialogResize@VPickDllGui@@@WTL@@QEAA_NHHAEAUtagRECT@@AEAU_AtlDlgResizeData@12@_NPEAU412@@Z 000000014000f420 f i PickDllGui.obj
 0001:0000e420       ?DlgResize_PositionControl@?$CDialogResize@VPickApiGui@@@WTL@@QEAA_NHHAEAUtagRECT@@AEAU_AtlDlgResizeData@12@_NPEAU412@@Z 000000014000f420 f i PickApiGui.obj
 0001:0000e840       ?_IsValidString@?$CHexEditImpl@V?$CHexEdit@K@@KV?$CEditT@VCWindow@ATL@@@WTL@@V?$CWinTraits@$0FGAAAAAA@$0A@@ATL@@@@QEBA_NQEB_W@Z 000000014000f840 f i DumpMemoryGui.obj
 0001:0000e8d0       ??$swprintf_s@$0BE@@@YAHAEAY0BE@_WPEB_WZZ 000000014000f8d0 f i DumpMemoryGui.obj
 0001:0000e900       ??$swprintf_s@$0CH@@@YAHAEAY0CH@_WPEB_WZZ 000000014000f900 f i DumpMemoryGui.obj
 0001:0000e930       ??$_Uninit_move@PEAVMemory@@PEAV1@V?$allocator@VMemory@@@std@@V1@@std@@YAPEAVMemory@@PEAV1@00AEAV?$allocator@VMemory@@@0@0U_Nonscalar_ptr_iterator_tag@0@@Z 000000014000f930 f i DumpMemoryGui.obj
 0001:0000e990       ?DoDataExchange@DumpSectionGui@@QEAAHHI@Z 000000014000f990 f i DumpSectionGui.obj
 0001:0000ea40       ?ProcessWindowMessage@DumpSectionGui@@UEAAHPEAUHWND__@@I_K_JAEA_JK@Z 000000014000fa40 f i DumpSectionGui.obj
 0001:0000ede0       ??_GDumpSectionGui@@UEAAPEAXI@Z 000000014000fde0 f i DumpSectionGui.obj
 0001:0000ede0       ??_EDumpSectionGui@@UEAAPEAXI@Z 000000014000fde0 f i  CIL library: CIL module
 0001:0000ee10       ??1DumpSectionGui@@UEAA@XZ 000000014000fe10 f   DumpSectionGui.obj
 0001:0000eec0       ?OnListDoubleClick@DumpSectionGui@@AEAA_JPEAUtagNMHDR@@@Z 000000014000fec0 f   DumpSectionGui.obj
 0001:0000f0b0       ?listviewCompareFunc@DumpSectionGui@@CAH_J00@Z 00000001400100b0 f   DumpSectionGui.obj
 0001:0000f160       ?addColumnsToSectionList@DumpSectionGui@@AEAAXAEAV?$CListViewCtrlT@VCWindow@ATL@@@WTL@@@Z 0000000140010160 f   DumpSectionGui.obj
 0001:0000f310       ?displaySectionList@DumpSectionGui@@AEAAXAEAV?$CListViewCtrlT@VCWindow@ATL@@@WTL@@@Z 0000000140010310 f   DumpSectionGui.obj
 0001:0000f6c0       ?getAllSectionsFromFile@DumpSectionGui@@AEAAXXZ 00000001400106c0 f   DumpSectionGui.obj
 0001:0000f9f0       ?updateEditedItem@DumpSectionGui@@AEAAXXZ 00000001400109f0 f   DumpSectionGui.obj
 0001:0000fa80       ?updateCheckState@DumpSectionGui@@AEAAXXZ 0000000140010a80 f   DumpSectionGui.obj
 0001:0000fba0       ?selectOrDeselectAll@DumpSectionGui@@AEAAXXZ 0000000140010ba0 f   DumpSectionGui.obj
 0001:0000fcc0       ?DlgResize_Init@?$CDialogResize@VDumpSectionGui@@@WTL@@QEAAX_N0K@Z 0000000140010cc0 f i DumpSectionGui.obj
 0001:000100a0       ?reserve@?$vector@VPeSection@@V?$allocator@VPeSection@@@std@@@std@@QEAAX_K@Z 00000001400110a0 f i DumpSectionGui.obj
 0001:000100a0       ?reserve@?$vector@VPeFileSection@@V?$allocator@VPeFileSection@@@std@@@std@@QEAAX_K@Z 00000001400110a0 f i PeParser.obj
 0001:000101d0       ?clear@?$vector@VPeSection@@V?$allocator@VPeSection@@@std@@@std@@QEAAXXZ 00000001400111d0 f i DumpSectionGui.obj
 0001:000101d0       ?clear@?$vector@VPeFileSection@@V?$allocator@VPeFileSection@@@std@@@std@@QEAAXXZ 00000001400111d0 f i PeParser.obj
 0001:00010240       ?_Reserve@?$vector@VPeFileSection@@V?$allocator@VPeFileSection@@@std@@@std@@IEAAX_K@Z 0000000140011240 f i PeParser.obj
 0001:00010240       ?_Reserve@?$vector@VPeSection@@V?$allocator@VPeSection@@@std@@@std@@IEAAX_K@Z 0000000140011240 f i DumpSectionGui.obj
 0001:00010300       ??$_Uninit_move@PEAVPeFileSection@@PEAV1@V?$allocator@VPeFileSection@@@std@@V1@@std@@YAPEAVPeFileSection@@PEAV1@00AEAV?$allocator@VPeFileSection@@@0@0U_Nonscalar_ptr_iterator_tag@0@@Z 0000000140011300 f i PeParser.obj
 0001:00010300       ??$_Uninit_move@PEAVPeSection@@PEAV1@V?$allocator@VPeSection@@@std@@V1@@std@@YAPEAVPeSection@@PEAV1@00AEAV?$allocator@VPeSection@@@0@0U_Nonscalar_ptr_iterator_tag@0@@Z 0000000140011300 f i DumpSectionGui.obj
 0001:00010370       ??0ProcessLister@@QEAA@XZ  0000000140011370 f i FunctionExport.obj
 0001:00010420       ??1?$map@_KVImportModuleThunk@@U?$less@_K@std@@V?$allocator@U?$pair@$$CB_KVImportModuleThunk@@@std@@@3@@std@@QEAA@XZ 0000000140011420 f i FunctionExport.obj
 0001:00010460       ??1ImportRebuilder@@QEAA@XZ 0000000140011460 f i FunctionExport.obj
 0001:00010470       ??1?$vector@VProcess@@V?$allocator@VProcess@@@std@@@std@@QEAA@XZ 0000000140011470 f i FunctionExport.obj
 0001:000104b0       ?clear@?$vector@VProcess@@V?$allocator@VProcess@@@std@@@std@@QEAAXXZ 00000001400114b0 f i FunctionExport.obj
 0001:00010520       ??0?$_Tree@V?$_Tmap_traits@_KVImportModuleThunk@@U?$less@_K@std@@V?$allocator@U?$pair@$$CB_KVImportModuleThunk@@@std@@@3@$0A@@std@@@std@@QEAA@AEBU?$less@_K@1@AEBV?$allocator@U?$pair@$$CB_KVImportModuleThunk@@@std@@@1@@Z 0000000140011520 f i FunctionExport.obj
 0001:000105b0       ?erase@?$_Tree@V?$_Tmap_traits@_KVImportModuleThunk@@U?$less@_K@std@@V?$allocator@U?$pair@$$CB_KVImportModuleThunk@@@std@@@3@$0A@@std@@@std@@QEAA?AV?$_Tree_iterator@V?$_Tree_val@V?$_Tmap_traits@_KVImportModuleThunk@@U?$less@_K@std@@V?$allocator@U?$pair@$$CB_KVImportModuleThunk@@@std@@@3@$0A@@std@@@std@@@2@V?$_Tree_const_iterator@V?$_Tree_val@V?$_Tmap_traits@_KVImportModuleThunk@@U?$less@_K@std@@V?$allocator@U?$pair@$$CB_KVImportModuleThunk@@@std@@@3@$0A@@std@@@std@@@2@0@Z 00000001400115b0 f i FunctionExport.obj
 0001:000106d0       ?erase@?$_Tree@V?$_Tmap_traits@_KVImportModuleThunk@@U?$less@_K@std@@V?$allocator@U?$pair@$$CB_KVImportModuleThunk@@@std@@@3@$0A@@std@@@std@@QEAA?AV?$_Tree_iterator@V?$_Tree_val@V?$_Tmap_traits@_KVImportModuleThunk@@U?$less@_K@std@@V?$allocator@U?$pair@$$CB_KVImportModuleThunk@@@std@@@3@$0A@@std@@@std@@@2@V?$_Tree_const_iterator@V?$_Tree_val@V?$_Tmap_traits@_KVImportModuleThunk@@U?$less@_K@std@@V?$allocator@U?$pair@$$CB_KVImportModuleThunk@@@std@@@3@$0A@@std@@@std@@@2@@Z 00000001400116d0 f i FunctionExport.obj
 0001:00010ad0       ?numberOfFoundUniqueDirectImports@IATReferenceScan@@QEAAHXZ 0000000140011ad0 f   IATReferenceScan.obj
 0001:00010d70       ??1?$set@_KU?$less@_K@std@@V?$allocator@_K@2@@std@@QEAA@XZ 0000000140011d70 f i IATReferenceScan.obj
 0001:00010db0       ?numberOfDirectImportApisNotInIat@IATReferenceScan@@QEAAHXZ 0000000140011db0 f   IATReferenceScan.obj
 0001:00010f80       ?startScan@IATReferenceScan@@QEAAX_KK0K@Z 0000000140011f80 f   IATReferenceScan.obj
 0001:00011120       ?scanMemoryPage@IATReferenceScan@@AEAAXPEAX_K@Z 0000000140012120 f   IATReferenceScan.obj
 0001:00011320       ?analyzeInstruction@IATReferenceScan@@AEAAXPEAU_DInst@@@Z 0000000140012320 f   IATReferenceScan.obj
 0001:000113b0       ?findNormalIatReference@IATReferenceScan@@AEAAXPEAU_DInst@@@Z 00000001400123b0 f   IATReferenceScan.obj
 0001:00011480       ?patchDirectImportInMemory@IATReferenceScan@@AEAAXPEAVIATReference@@@Z 0000000140012480 f   IATReferenceScan.obj
 0001:00011550       ?lookUpIatForPointer@IATReferenceScan@@AEAA_K_K@Z 0000000140012550 f   IATReferenceScan.obj
 0001:00011620       ?patchNewIat@IATReferenceScan@@QEAAX_K0PEAVPeParser@@@Z 0000000140012620 f   IATReferenceScan.obj
 0001:00011790       ?printDirectImportLog@IATReferenceScan@@QEAAXXZ 0000000140012790 f   IATReferenceScan.obj
 0001:00011910       ?checkMemoryRangeAndAddToList@IATReferenceScan@@AEAAXPEAVIATReference@@PEAU_DInst@@@Z 0000000140012910 f   IATReferenceScan.obj
 0001:00011990       ?patchDirectJumpTableEntry@IATReferenceScan@@AEAAX_K0KPEAVPeParser@@PEAEK@Z 0000000140012990 f   IATReferenceScan.obj
 0001:00011b80       ?patchDirectJumpTable@IATReferenceScan@@QEAAX_KKPEAVPeParser@@PEAEK@Z 0000000140012b80 f   IATReferenceScan.obj
 0001:00011f20       ?addAdditionalApisToList@IATReferenceScan@@QEAAKXZ 0000000140012f20 f   IATReferenceScan.obj
 0001:00012210       ?reserve@?$vector@VIATReference@@V?$allocator@VIATReference@@@std@@@std@@QEAAX_K@Z 0000000140013210 f i IATReferenceScan.obj
 0001:00012310       ?push_back@?$vector@VIATReference@@V?$allocator@VIATReference@@@std@@@std@@QEAAXAEBVIATReference@@@Z 0000000140013310 f i IATReferenceScan.obj
 0001:00012390       ?_Reserve@?$vector@VIATReference@@V?$allocator@VIATReference@@@std@@@std@@IEAAX_K@Z 0000000140013390 f i IATReferenceScan.obj
 0001:00012420       ?erase@?$_Tree@V?$_Tset_traits@_KU?$less@_K@std@@V?$allocator@_K@2@$0A@@std@@@std@@QEAA?AV?$_Tree_const_iterator@V?$_Tree_val@V?$_Tset_traits@_KU?$less@_K@std@@V?$allocator@_K@2@$0A@@std@@@std@@@2@V32@0@Z 0000000140013420 f i IATReferenceScan.obj
 0001:00012500       ?erase@?$_Tree@V?$_Tset_traits@_KU?$less@_K@std@@V?$allocator@_K@2@$0A@@std@@@std@@QEAA?AV?$_Tree_const_iterator@V?$_Tree_val@V?$_Tset_traits@_KU?$less@_K@std@@V?$allocator@_K@2@$0A@@std@@@std@@@2@V32@@Z 0000000140013500 f i IATReferenceScan.obj
 0001:00012860       ?clear@?$_Tree@V?$_Tset_traits@_KU?$less@_K@std@@V?$allocator@_K@2@$0A@@std@@@std@@QEAAXXZ 0000000140013860 f i IATReferenceScan.obj
 0001:000128e0       ?_Erase@?$_Tree@V?$_Tset_traits@_KU?$less@_K@std@@V?$allocator@_K@2@$0A@@std@@@std@@IEAAXPEAU_Node@?$_Tree_nod@V?$_Tset_traits@_KU?$less@_K@std@@V?$allocator@_K@2@$0A@@std@@@2@@Z 00000001400138e0 f i IATReferenceScan.obj
 0001:00012930       ?_Lrotate@?$_Tree@V?$_Tset_traits@_KU?$less@_K@std@@V?$allocator@_K@2@$0A@@std@@@std@@IEAAXPEAU_Node@?$_Tree_nod@V?$_Tset_traits@_KU?$less@_K@std@@V?$allocator@_K@2@$0A@@std@@@2@@Z 0000000140013930 f i IATReferenceScan.obj
 0001:00012990       ?_Rrotate@?$_Tree@V?$_Tset_traits@_KU?$less@_K@std@@V?$allocator@_K@2@$0A@@std@@@std@@IEAAXPEAU_Node@?$_Tree_nod@V?$_Tset_traits@_KU?$less@_K@std@@V?$allocator@_K@2@$0A@@std@@@2@@Z 0000000140013990 f i IATReferenceScan.obj
 0001:000129f0       ?_Linsert@?$_Tree@V?$_Tset_traits@_KU?$less@_K@std@@V?$allocator@_K@2@$0A@@std@@@std@@QEAA?AU?$pair@V?$_Tree_const_iterator@V?$_Tree_val@V?$_Tset_traits@_KU?$less@_K@std@@V?$allocator@_K@2@$0A@@std@@@std@@@std@@_N@2@PEAU_Node@?$_Tree_nod@V?$_Tset_traits@_KU?$less@_K@std@@V?$allocator@_K@2@$0A@@std@@@2@_N@Z 00000001400139f0 f i IATReferenceScan.obj
 0001:00012b10       ?_Insert@?$_Tree@V?$_Tset_traits@_KU?$less@_K@std@@V?$allocator@_K@2@$0A@@std@@@std@@IEAA?AV?$_Tree_const_iterator@V?$_Tree_val@V?$_Tset_traits@_KU?$less@_K@std@@V?$allocator@_K@2@$0A@@std@@@std@@@2@_NPEAU_Node@?$_Tree_nod@V?$_Tset_traits@_KU?$less@_K@std@@V?$allocator@_K@2@$0A@@std@@@2@1@Z 0000000140013b10 f i IATReferenceScan.obj
 0001:00012db0       ?_Buynode@?$_Tree_val@V?$_Tset_traits@_KU?$less@_K@std@@V?$allocator@_K@2@$0A@@std@@@std@@QEAAPEAU_Node@?$_Tree_nod@V?$_Tset_traits@_KU?$less@_K@std@@V?$allocator@_K@2@$0A@@std@@@2@XZ 0000000140013db0 f i IATReferenceScan.obj
 0001:00012e30       ??$_Uninit_move@PEAVIATReference@@PEAV1@V?$allocator@VIATReference@@@std@@V1@@std@@YAPEAVIATReference@@PEAV1@00AEAV?$allocator@VIATReference@@@0@0U_Nonscalar_ptr_iterator_tag@0@@Z 0000000140013e30 f i IATReferenceScan.obj
 0001:00012e80       ?findIATAdvanced@IATSearch@@AEAA_N_KPEA_KPEAK@Z 0000000140013e80 f   IATSearch.obj
 0001:00013570       ?findAPIAddressInIAT@IATSearch@@AEAA_K_K@Z 0000000140014570 f   IATSearch.obj
 0001:000136b0       ?findNextFunctionAddress@IATSearch@@AEAA_KXZ 00000001400146b0 f   IATSearch.obj
 0001:00013730       ?findIATPointer@IATSearch@@AEAA_KXZ 0000000140014730 f   IATSearch.obj
 0001:000137b0       ?isIATPointerValid@IATSearch@@AEAA_N_K_N@Z 00000001400147b0 f   IATSearch.obj
 0001:000138a0       ?findIATStartAddress@IATSearch@@AEAA_K_K0PEAE@Z 00000001400148a0 f   IATSearch.obj
 0001:00013a50       ?findIATSize@IATSearch@@AEAAK_K0PEAEK@Z 0000000140014a50 f   IATSearch.obj
 0001:00013c00       ?findExecutableMemoryPagesByStartAddress@IATSearch@@AEAAX_KPEA_K1@Z 0000000140014c00 f   IATSearch.obj
 0001:00013d60       ?filterIATPointersList@IATSearch@@AEAAXAEAV?$set@_KU?$less@_K@std@@V?$allocator@_K@2@@std@@@Z 0000000140014d60 f   IATSearch.obj
 0001:00014200       ?getMemoryBaseAndSizeForIat@IATSearch@@AEAAX_KPEA_KPEAK@Z 0000000140015200 f   IATSearch.obj
 0001:00014360       ??$_Buynode@AEA_K@?$_Tree_val@V?$_Tset_traits@_KU?$less@_K@std@@V?$allocator@_K@2@$0A@@std@@@std@@QEAAPEAU_Node@?$_Tree_nod@V?$_Tset_traits@_KU?$less@_K@std@@V?$allocator@_K@2@$0A@@std@@@1@AEA_K@Z 0000000140015360 f i IATReferenceScan.obj
 0001:00014360       ??$_Buynode@_K@?$_Tree_val@V?$_Tset_traits@_KU?$less@_K@std@@V?$allocator@_K@2@$0A@@std@@@std@@QEAAPEAU_Node@?$_Tree_nod@V?$_Tset_traits@_KU?$less@_K@std@@V?$allocator@_K@2@$0A@@std@@@1@$$QEA_K@Z 0000000140015360 f i IATSearch.obj
 0001:000143a0       ?rebuildImportTable@ImportRebuilder@@QEAA_NPEB_WAEAV?$map@_KVImportModuleThunk@@U?$less@_K@std@@V?$allocator@U?$pair@$$CB_KVImportModuleThunk@@@std@@@3@@std@@@Z 00000001400153a0 f   ImportRebuilder.obj
 0001:000145a0       ?buildNewImportTable@ImportRebuilder@@AEAA_NAEAV?$map@_KVImportModuleThunk@@U?$less@_K@std@@V?$allocator@U?$pair@$$CB_KVImportModuleThunk@@@std@@@3@@std@@@Z 00000001400155a0 f   ImportRebuilder.obj
 0001:00014770       ?createNewImportSection@ImportRebuilder@@AEAA_NAEAV?$map@_KVImportModuleThunk@@U?$less@_K@std@@V?$allocator@U?$pair@$$CB_KVImportModuleThunk@@@std@@@3@@std@@@Z 0000000140015770 f   ImportRebuilder.obj
 0001:000148d0       ?setFlagToIATSection@ImportRebuilder@@AEAAX_K@Z 00000001400158d0 f   ImportRebuilder.obj
 0001:00014970       ?fillImportSection@ImportRebuilder@@AEAAKAEAV?$map@_KVImportModuleThunk@@U?$less@_K@std@@V?$allocator@U?$pair@$$CB_KVImportModuleThunk@@@std@@@3@@std@@@Z 0000000140015970 f   ImportRebuilder.obj
 0001:00014c20       ?addImportDescriptor@ImportRebuilder@@AEAA_KPEAVImportModuleThunk@@KK@Z 0000000140015c20 f   ImportRebuilder.obj
 0001:00014e30       ?addSpecialImportDescriptor@ImportRebuilder@@AEAAX_KK@Z 0000000140015e30 f   ImportRebuilder.obj
 0001:00014ee0       ?calculateImportSizes@ImportRebuilder@@AEAAXAEAV?$map@_KVImportModuleThunk@@U?$less@_K@std@@V?$allocator@U?$pair@$$CB_KVImportModuleThunk@@@std@@@3@@std@@@Z 0000000140015ee0 f   ImportRebuilder.obj
 0001:00015100       ?addImportToImportTable@ImportRebuilder@@AEAA_KPEAVImportThunk@@PEAU_IMAGE_THUNK_DATA64@@PEAU_IMAGE_IMPORT_BY_NAME@@K@Z 0000000140016100 f   ImportRebuilder.obj
 0001:00015230       ?getMemoryPointerFromRVA@ImportRebuilder@@AEAAPEAE_K@Z 0000000140016230 f   ImportRebuilder.obj
 0001:00015380       ?changeIatBaseAddress@ImportRebuilder@@AEAAXAEAV?$map@_KVImportModuleThunk@@U?$less@_K@std@@V?$allocator@U?$pair@$$CB_KVImportModuleThunk@@@std@@@3@@std@@@Z 0000000140016380 f   ImportRebuilder.obj
 0001:000154c0       ?patchFileForDirectImportJumpTable@ImportRebuilder@@AEAAXXZ 00000001400164c0 f   ImportRebuilder.obj
 0001:00015590       ??$insert@V?$_Tree_iterator@V?$_Tree_val@V?$_Tmap_traits@_KVImportModuleThunk@@U?$less@_K@std@@V?$allocator@U?$pair@$$CB_KVImportModuleThunk@@@std@@@3@$0A@@std@@@std@@@std@@@?$_Tree@V?$_Tmap_traits@_KVImportModuleThunk@@U?$less@_K@std@@V?$allocator@U?$pair@$$CB_KVImportModuleThunk@@@std@@@3@$0A@@std@@@std@@QEAAXV?$_Tree_iterator@V?$_Tree_val@V?$_Tmap_traits@_KVImportModuleThunk@@U?$less@_K@std@@V?$allocator@U?$pair@$$CB_KVImportModuleThunk@@@std@@@3@$0A@@std@@@std@@@1@0@Z 0000000140016590 f i ImportRebuilder.obj
 0001:00015650       ?insert@?$_Tree@V?$_Tmap_traits@_KVImportModuleThunk@@U?$less@_K@std@@V?$allocator@U?$pair@$$CB_KVImportModuleThunk@@@std@@@3@$0A@@std@@@std@@QEAA?AV?$_Tree_iterator@V?$_Tree_val@V?$_Tmap_traits@_KVImportModuleThunk@@U?$less@_K@std@@V?$allocator@U?$pair@$$CB_KVImportModuleThunk@@@std@@@3@$0A@@std@@@std@@@2@V?$_Tree_const_iterator@V?$_Tree_val@V?$_Tmap_traits@_KVImportModuleThunk@@U?$less@_K@std@@V?$allocator@U?$pair@$$CB_KVImportModuleThunk@@@std@@@3@$0A@@std@@@std@@@2@AEBU?$pair@$$CB_KVImportModuleThunk@@@2@@Z 0000000140016650 f i ImportRebuilder.obj
 0001:000158d0       ?insert@?$_Tree@V?$_Tmap_traits@_KVImportModuleThunk@@U?$less@_K@std@@V?$allocator@U?$pair@$$CB_KVImportModuleThunk@@@std@@@3@$0A@@std@@@std@@QEAA?AU?$pair@V?$_Tree_iterator@V?$_Tree_val@V?$_Tmap_traits@_KVImportModuleThunk@@U?$less@_K@std@@V?$allocator@U?$pair@$$CB_KVImportModuleThunk@@@std@@@3@$0A@@std@@@std@@@std@@_N@2@AEBU?$pair@$$CB_KVImportModuleThunk@@@2@_N@Z 00000001400168d0 f i ImportRebuilder.obj
 0001:00015a30       ?_Insert@?$_Tree@V?$_Tmap_traits@_KVImportModuleThunk@@U?$less@_K@std@@V?$allocator@U?$pair@$$CB_KVImportModuleThunk@@@std@@@3@$0A@@std@@@std@@IEAA?AV?$_Tree_iterator@V?$_Tree_val@V?$_Tmap_traits@_KVImportModuleThunk@@U?$less@_K@std@@V?$allocator@U?$pair@$$CB_KVImportModuleThunk@@@std@@@3@$0A@@std@@@std@@@2@_NPEAU_Node@?$_Tree_nod@V?$_Tmap_traits@_KVImportModuleThunk@@U?$less@_K@std@@V?$allocator@U?$pair@$$CB_KVImportModuleThunk@@@std@@@3@$0A@@std@@@2@AEBU?$pair@$$CB_KVImportModuleThunk@@@2@@Z 0000000140016a30 f i ImportRebuilder.obj
 0001:00015a90       ?isValid@ImportModuleThunk@@QEBA_NXZ 0000000140016a90 f   ImportsHandling.obj
 0001:00015b20       ??0ImportsHandling@@QEAA@AEAVCMultiSelectTreeViewCtrl@@@Z 0000000140016b20 f   ImportsHandling.obj
 0001:00015ca0       ??1ImportsHandling@@QEAA@XZ 0000000140016ca0 f   ImportsHandling.obj
 0001:00015d80       ?isModule@ImportsHandling@@QEAA_NV?$CTreeItemT@VCWindow@ATL@@@WTL@@@Z 0000000140016d80 f   ImportsHandling.obj
 0001:00015de0       ?isImport@ImportsHandling@@QEAA_NV?$CTreeItemT@VCWindow@ATL@@@WTL@@@Z 0000000140016de0 f   ImportsHandling.obj
 0001:00015e40       ?updateCounts@ImportsHandling@@AEAAXXZ 0000000140016e40 f   ImportsHandling.obj
 0001:00015f90       ?displayAllImports@ImportsHandling@@QEAAXXZ 0000000140016f90 f   ImportsHandling.obj
 0001:00016210       ?clearAllImports@ImportsHandling@@QEAAXXZ 0000000140017210 f   ImportsHandling.obj
 0001:000162d0       ?addDllToTreeView@ImportsHandling@@AEAA?AV?$CTreeItemT@VCWindow@ATL@@@WTL@@AEAVCMultiSelectTreeViewCtrl@@PEAVImportModuleThunk@@@Z 00000001400172d0 f   ImportsHandling.obj
 0001:000163d0       ?addApiToTreeView@ImportsHandling@@AEAA?AV?$CTreeItemT@VCWindow@ATL@@@WTL@@AEAVCMultiSelectTreeViewCtrl@@V23@PEAVImportThunk@@@Z 00000001400173d0 f   ImportsHandling.obj
 0001:000164d0       ?selectImports@ImportsHandling@@QEAAX_N0@Z 00000001400174d0 f   ImportsHandling.obj
 0001:000166d0       ?invalidateImport@ImportsHandling@@QEAA_NV?$CTreeItemT@VCWindow@ATL@@@WTL@@@Z 00000001400176d0 f   ImportsHandling.obj
 0001:00016820       ?invalidateModule@ImportsHandling@@QEAA_NV?$CTreeItemT@VCWindow@ATL@@@WTL@@@Z 0000000140017820 f   ImportsHandling.obj
 0001:000169a0       ?setImport@ImportsHandling@@QEAA_NV?$CTreeItemT@VCWindow@ATL@@@WTL@@PEB_WPEBDGG_N3@Z 00000001400179a0 f   ImportsHandling.obj
 0001:00016b40       ?updateImportInTreeView@ImportsHandling@@AEAAXPEBVImportThunk@@V?$CTreeItemT@VCWindow@ATL@@@WTL@@@Z 0000000140017b40 f   ImportsHandling.obj
 0001:00016d00       ?updateModuleInTreeView@ImportsHandling@@AEAAXPEBVImportModuleThunk@@V?$CTreeItemT@VCWindow@ATL@@@WTL@@@Z 0000000140017d00 f   ImportsHandling.obj
 0001:00016e20       ?cutImport@ImportsHandling@@QEAA_NV?$CTreeItemT@VCWindow@ATL@@@WTL@@@Z 0000000140017e20 f   ImportsHandling.obj
 0001:00017040       ?cutModule@ImportsHandling@@QEAA_NV?$CTreeItemT@VCWindow@ATL@@@WTL@@@Z 0000000140018040 f   ImportsHandling.obj
 0001:00017330       ?scanAndFixModuleList@ImportsHandling@@QEAAXXZ 0000000140018330 f   ImportsHandling.obj
 0001:00017600       ?addModuleToModuleList@ImportsHandling@@AEAA_NPEB_W_K@Z 0000000140018600 f   ImportsHandling.obj
 0001:000176f0       ??4ImportModuleThunk@@QEAAAEAV0@AEBV0@@Z 00000001400186f0 f i ImportsHandling.obj
 0001:000177d0       ?addUnknownModuleToModuleList@ImportsHandling@@AEAAX_K@Z 00000001400187d0 f   ImportsHandling.obj
 0001:000178d0       ?addNotFoundApiToModuleList@ImportsHandling@@AEAA_NPEBVImportThunk@@@Z 00000001400188d0 f   ImportsHandling.obj
 0001:00017c50       ??4ImportThunk@@QEAAAEAV0@AEBV0@@Z 0000000140018c50 f i ImportsHandling.obj
 0001:00017d50       ?addFunctionToModuleList@ImportsHandling@@AEAA_NPEBVImportThunk@@@Z 0000000140018d50 f   ImportsHandling.obj
 0001:00018020       ?changeExpandStateOfTreeNodes@ImportsHandling@@AEAAXI@Z 0000000140019020 f   ImportsHandling.obj
 0001:00018100       ??A?$map@_KVImportModuleThunk@@U?$less@_K@std@@V?$allocator@U?$pair@$$CB_KVImportModuleThunk@@@std@@@3@@std@@QEAAAEAVImportModuleThunk@@AEB_K@Z 0000000140019100 f i ImportsHandling.obj
 0001:00018280       ?erase@?$_Tree@V?$_Tmap_traits@_KVImportModuleThunk@@U?$less@_K@std@@V?$allocator@U?$pair@$$CB_KVImportModuleThunk@@@std@@@3@$0A@@std@@@std@@QEAA_KAEB_K@Z 0000000140019280 f i ImportsHandling.obj
 0001:000183c0       ??0?$hash_map@PEAU_TREEITEM@@UTreeItemData@ImportsHandling@@V?$hash_compare@PEAU_TREEITEM@@U?$less@PEAU_TREEITEM@@@std@@@stdext@@V?$allocator@U?$pair@QEAU_TREEITEM@@UTreeItemData@ImportsHandling@@@std@@@std@@@stdext@@QEAA@XZ 00000001400193c0 f i ImportsHandling.obj
 0001:00018470       ??A?$hash_map@PEAU_TREEITEM@@UTreeItemData@ImportsHandling@@V?$hash_compare@PEAU_TREEITEM@@U?$less@PEAU_TREEITEM@@@std@@@stdext@@V?$allocator@U?$pair@QEAU_TREEITEM@@UTreeItemData@ImportsHandling@@@std@@@std@@@stdext@@QEAAAEAUTreeItemData@ImportsHandling@@AEBQEAU_TREEITEM@@@Z 0000000140019470 f i ImportsHandling.obj
 0001:00018530       ??1?$_Hash@V?$_Hmap_traits@PEAU_TREEITEM@@UTreeItemData@ImportsHandling@@V?$hash_compare@PEAU_TREEITEM@@U?$less@PEAU_TREEITEM@@@std@@@stdext@@V?$allocator@U?$pair@QEAU_TREEITEM@@UTreeItemData@ImportsHandling@@@std@@@std@@$0A@@std@@@std@@QEAA@XZ 0000000140019530 f i ImportsHandling.obj
 0001:000185a0       ?erase@?$_Hash@V?$_Hmap_traits@PEAU_TREEITEM@@UTreeItemData@ImportsHandling@@V?$hash_compare@PEAU_TREEITEM@@U?$less@PEAU_TREEITEM@@@std@@@stdext@@V?$allocator@U?$pair@QEAU_TREEITEM@@UTreeItemData@ImportsHandling@@@std@@@std@@$0A@@std@@@std@@QEAA_KAEBQEAU_TREEITEM@@@Z 00000001400195a0 f i ImportsHandling.obj
 0001:00018640       ?clear@?$_Hash@V?$_Hmap_traits@PEAU_TREEITEM@@UTreeItemData@ImportsHandling@@V?$hash_compare@PEAU_TREEITEM@@U?$less@PEAU_TREEITEM@@@std@@@stdext@@V?$allocator@U?$pair@QEAU_TREEITEM@@UTreeItemData@ImportsHandling@@@std@@@std@@$0A@@std@@@std@@QEAAXXZ 0000000140019640 f i ImportsHandling.obj
 0001:000186a0       ??A?$map@_KVImportThunk@@U?$less@_K@std@@V?$allocator@U?$pair@$$CB_KVImportThunk@@@std@@@3@@std@@QEAAAEAVImportThunk@@AEB_K@Z 00000001400196a0 f i ImportsHandling.obj
 0001:00018800       ?erase@?$_Tree@V?$_Tmap_traits@_KVImportThunk@@U?$less@_K@std@@V?$allocator@U?$pair@$$CB_KVImportThunk@@@std@@@3@$0A@@std@@@std@@QEAA_KAEB_K@Z 0000000140019800 f i ImportsHandling.obj
 0001:00018940       ?SelectAllItems@?$CMultiSelectTreeViewImpl@VCMultiSelectTreeViewCtrl@@V?$CTreeViewCtrlExT@VCWindow@ATL@@@WTL@@V?$CWinTraitsOR@$0CA@$0A@V?$CWinTraits@$0FGAAAAAA@$0A@@ATL@@@ATL@@@@QEAAHH@Z 0000000140019940 f i ImportsHandling.obj
 0001:00018b60       ?lower_bound@?$_Hash@V?$_Hmap_traits@PEAU_TREEITEM@@UTreeItemData@ImportsHandling@@V?$hash_compare@PEAU_TREEITEM@@U?$less@PEAU_TREEITEM@@@std@@@stdext@@V?$allocator@U?$pair@QEAU_TREEITEM@@UTreeItemData@ImportsHandling@@@std@@@std@@$0A@@std@@@std@@QEAA?AV?$_List_iterator@V?$_List_val@U?$pair@QEAU_TREEITEM@@UTreeItemData@ImportsHandling@@@std@@V?$allocator@U?$pair@QEAU_TREEITEM@@UTreeItemData@ImportsHandling@@@std@@@2@@std@@@2@AEBQEAU_TREEITEM@@@Z 0000000140019b60 f i ImportsHandling.obj
 0001:00018c70       ?equal_range@?$_Hash@V?$_Hmap_traits@PEAU_TREEITEM@@UTreeItemData@ImportsHandling@@V?$hash_compare@PEAU_TREEITEM@@U?$less@PEAU_TREEITEM@@@std@@@stdext@@V?$allocator@U?$pair@QEAU_TREEITEM@@UTreeItemData@ImportsHandling@@@std@@@std@@$0A@@std@@@std@@QEAA?AU?$pair@V?$_List_iterator@V?$_List_val@U?$pair@QEAU_TREEITEM@@UTreeItemData@ImportsHandling@@@std@@V?$allocator@U?$pair@QEAU_TREEITEM@@UTreeItemData@ImportsHandling@@@std@@@2@@std@@@std@@V12@@2@AEBQEAU_TREEITEM@@@Z 0000000140019c70 f i ImportsHandling.obj
 0001:00018d70       ?_SelectItem@?$CMultiSelectTreeViewImpl@VCMultiSelectTreeViewCtrl@@V?$CTreeViewCtrlExT@VCWindow@ATL@@@WTL@@V?$CWinTraitsOR@$0CA@$0A@V?$CWinTraits@$0FGAAAAAA@$0A@@ATL@@@ATL@@@@QEAAXH_NH@Z 0000000140019d70 f i ImportsHandling.obj
 0001:00018f80       ?InsertItem@?$CTreeViewCtrlExT@VCWindow@ATL@@@WTL@@QEAA?AV?$CTreeItemT@VCWindow@ATL@@@2@IPEB_WHHII_JPEAU_TREEITEM@@2@Z 0000000140019f80 f i ImportsHandling.obj
 0001:00019020       ?_Copy@?$_Tree@V?$_Tmap_traits@_KVImportModuleThunk@@U?$less@_K@std@@V?$allocator@U?$pair@$$CB_KVImportModuleThunk@@@std@@@3@$0A@@std@@@std@@IEAAXAEBV12@@Z 000000014001a020 f i ImportsHandling.obj
 0001:000190f0       ?erase@?$_Hash@V?$_Hmap_traits@PEAU_TREEITEM@@UTreeItemData@ImportsHandling@@V?$hash_compare@PEAU_TREEITEM@@U?$less@PEAU_TREEITEM@@@std@@@stdext@@V?$allocator@U?$pair@QEAU_TREEITEM@@UTreeItemData@ImportsHandling@@@std@@@std@@$0A@@std@@@std@@QEAA?AV?$_List_iterator@V?$_List_val@U?$pair@QEAU_TREEITEM@@UTreeItemData@ImportsHandling@@@std@@V?$allocator@U?$pair@QEAU_TREEITEM@@UTreeItemData@ImportsHandling@@@std@@@2@@std@@@2@V?$_List_const_iterator@V?$_List_val@U?$pair@QEAU_TREEITEM@@UTreeItemData@ImportsHandling@@@std@@V?$allocator@U?$pair@QEAU_TREEITEM@@UTreeItemData@ImportsHandling@@@std@@@2@@std@@@2@@Z 000000014001a0f0 f i ImportsHandling.obj
 0001:000191f0       ?GetItemData@?$CTreeViewCtrlT@VCWindow@ATL@@@WTL@@QEBA_KPEAU_TREEITEM@@@Z 000000014001a1f0 f i ImportsHandling.obj
 0001:00019250       ?_Copy@?$_Tree@V?$_Tmap_traits@_KVImportModuleThunk@@U?$less@_K@std@@V?$allocator@U?$pair@$$CB_KVImportModuleThunk@@@std@@@3@$0A@@std@@@std@@IEAAPEAU_Node@?$_Tree_nod@V?$_Tmap_traits@_KVImportModuleThunk@@U?$less@_K@std@@V?$allocator@U?$pair@$$CB_KVImportModuleThunk@@@std@@@3@$0A@@std@@@2@PEAU342@0@Z 000000014001a250 f i ImportsHandling.obj
 0001:000192f0       ??$swprintf_s@$0BCM@@@YAHAEAY0BCM@_WPEB_WZZ 000000014001a2f0 f i ImportsHandling.obj
 0001:00019320       ??$swprintf_s@$0CFI@@@YAHAEAY0CFI@_WPEB_WZZ 000000014001a320 f i ImportsHandling.obj
 0001:00019350       ??$_Buynode@U?$pair@$$CB_KVImportModuleThunk@@@std@@@?$_Tree_val@V?$_Tmap_traits@_KVImportModuleThunk@@U?$less@_K@std@@V?$allocator@U?$pair@$$CB_KVImportModuleThunk@@@std@@@3@$0A@@std@@@std@@QEAAPEAU_Node@?$_Tree_nod@V?$_Tmap_traits@_KVImportModuleThunk@@U?$less@_K@std@@V?$allocator@U?$pair@$$CB_KVImportModuleThunk@@@std@@@3@$0A@@std@@@1@$$QEAU?$pair@$$CB_KVImportModuleThunk@@@1@@Z 000000014001a350 f i ImportsHandling.obj
 0001:00019350       ??$_Buynode@U?$pair@_KVImportModuleThunk@@@std@@@?$_Tree_val@V?$_Tmap_traits@_KVImportModuleThunk@@U?$less@_K@std@@V?$allocator@U?$pair@$$CB_KVImportModuleThunk@@@std@@@3@$0A@@std@@@std@@QEAAPEAU_Node@?$_Tree_nod@V?$_Tmap_traits@_KVImportModuleThunk@@U?$less@_K@std@@V?$allocator@U?$pair@$$CB_KVImportModuleThunk@@@std@@@3@$0A@@std@@@1@$$QEAU?$pair@_KVImportModuleThunk@@@1@@Z 000000014001a350 f i ApiReader.obj
 0001:00019350       ??$_Buynode@AEAU?$pair@$$CB_KVImportModuleThunk@@@std@@@?$_Tree_val@V?$_Tmap_traits@_KVImportModuleThunk@@U?$less@_K@std@@V?$allocator@U?$pair@$$CB_KVImportModuleThunk@@@std@@@3@$0A@@std@@@std@@QEAAPEAU_Node@?$_Tree_nod@V?$_Tmap_traits@_KVImportModuleThunk@@U?$less@_K@std@@V?$allocator@U?$pair@$$CB_KVImportModuleThunk@@@std@@@3@$0A@@std@@@1@AEAU?$pair@$$CB_KVImportModuleThunk@@@1@@Z 000000014001a350 f i ImportsHandling.obj
 0001:00019350       ?_Buynode@?$_Tree_val@V?$_Tmap_traits@_KVImportModuleThunk@@U?$less@_K@std@@V?$allocator@U?$pair@$$CB_KVImportModuleThunk@@@std@@@3@$0A@@std@@@std@@QEAAPEAU_Node@?$_Tree_nod@V?$_Tmap_traits@_KVImportModuleThunk@@U?$less@_K@std@@V?$allocator@U?$pair@$$CB_KVImportModuleThunk@@@std@@@3@$0A@@std@@@2@AEBU?$pair@$$CB_KVImportModuleThunk@@@2@@Z 000000014001a350 f i ImportRebuilder.obj
 0001:000193b0       ?_Insert@?$_Tree@V?$_Tmap_traits@_KVImportModuleThunk@@U?$less@_K@std@@V?$allocator@U?$pair@$$CB_KVImportModuleThunk@@@std@@@3@$0A@@std@@@std@@QEAA?AV?$_Tree_iterator@V?$_Tree_val@V?$_Tmap_traits@_KVImportModuleThunk@@U?$less@_K@std@@V?$allocator@U?$pair@$$CB_KVImportModuleThunk@@@std@@@3@$0A@@std@@@std@@@2@V?$_Tree_const_iterator@V?$_Tree_val@V?$_Tmap_traits@_KVImportModuleThunk@@U?$less@_K@std@@V?$allocator@U?$pair@$$CB_KVImportModuleThunk@@@std@@@3@$0A@@std@@@std@@@2@PEAU_Node@?$_Tree_nod@V?$_Tmap_traits@_KVImportModuleThunk@@U?$less@_K@std@@V?$allocator@U?$pair@$$CB_KVImportModuleThunk@@@std@@@3@$0A@@std@@@2@@Z 000000014001a3b0 f i ImportsHandling.obj
 0001:000195e0       ?_Insert@?$_Hash@V?$_Hmap_traits@PEAU_TREEITEM@@UTreeItemData@ImportsHandling@@V?$hash_compare@PEAU_TREEITEM@@U?$less@PEAU_TREEITEM@@@std@@@stdext@@V?$allocator@U?$pair@QEAU_TREEITEM@@UTreeItemData@ImportsHandling@@@std@@@std@@$0A@@std@@@std@@IEAA?AU?$pair@V?$_List_iterator@V?$_List_val@U?$pair@QEAU_TREEITEM@@UTreeItemData@ImportsHandling@@@std@@V?$allocator@U?$pair@QEAU_TREEITEM@@UTreeItemData@ImportsHandling@@@std@@@2@@std@@@std@@_N@2@AEBU?$pair@QEAU_TREEITEM@@UTreeItemData@ImportsHandling@@@2@V?$_List_iterator@V?$_List_val@U?$pair@QEAU_TREEITEM@@UTreeItemData@ImportsHandling@@@std@@V?$allocator@U?$pair@QEAU_TREEITEM@@UTreeItemData@ImportsHandling@@@std@@@2@@std@@@2@@Z 000000014001a5e0 f i ImportsHandling.obj
 0001:00019770       ?_Insert@?$_Tree@V?$_Tmap_traits@_KVImportThunk@@U?$less@_K@std@@V?$allocator@U?$pair@$$CB_KVImportThunk@@@std@@@3@$0A@@std@@@std@@QEAA?AV?$_Tree_iterator@V?$_Tree_val@V?$_Tmap_traits@_KVImportThunk@@U?$less@_K@std@@V?$allocator@U?$pair@$$CB_KVImportThunk@@@std@@@3@$0A@@std@@@std@@@2@V?$_Tree_const_iterator@V?$_Tree_val@V?$_Tmap_traits@_KVImportThunk@@U?$less@_K@std@@V?$allocator@U?$pair@$$CB_KVImportThunk@@@std@@@3@$0A@@std@@@std@@@2@PEAU_Node@?$_Tree_nod@V?$_Tmap_traits@_KVImportThunk@@U?$less@_K@std@@V?$allocator@U?$pair@$$CB_KVImportThunk@@@std@@@3@$0A@@std@@@2@@Z 000000014001a770 f i ImportsHandling.obj
 0001:000199a0       ?_Check_size@?$_Hash@V?$_Hmap_traits@PEAU_TREEITEM@@UTreeItemData@ImportsHandling@@V?$hash_compare@PEAU_TREEITEM@@U?$less@PEAU_TREEITEM@@@std@@@stdext@@V?$allocator@U?$pair@QEAU_TREEITEM@@UTreeItemData@ImportsHandling@@@std@@@std@@$0A@@std@@@std@@IEAAXXZ 000000014001a9a0 f i ImportsHandling.obj
 0001:00019ab0       ?_Splice_same@?$list@U?$pair@QEAU_TREEITEM@@UTreeItemData@ImportsHandling@@@std@@V?$allocator@U?$pair@QEAU_TREEITEM@@UTreeItemData@ImportsHandling@@@std@@@2@@std@@QEAAXV?$_List_const_iterator@V?$_List_val@U?$pair@QEAU_TREEITEM@@UTreeItemData@ImportsHandling@@@std@@V?$allocator@U?$pair@QEAU_TREEITEM@@UTreeItemData@ImportsHandling@@@std@@@2@@std@@@2@AEAV12@00_K@Z 000000014001aab0 f i ImportsHandling.obj
 0001:00019b60       ??$_Uninit_fill_n@PEAV?$_List_iterator@V?$_List_val@U?$pair@$$CB_KPEAVApiInfo@@@std@@V?$allocator@U?$pair@$$CB_KPEAVApiInfo@@@std@@@2@@std@@@std@@_KV12@V?$allocator@V?$_List_iterator@V?$_List_val@U?$pair@$$CB_KPEAVApiInfo@@@std@@V?$allocator@U?$pair@$$CB_KPEAVApiInfo@@@std@@@2@@std@@@std@@@2@V12@@std@@YAXPEAV?$_List_iterator@V?$_List_val@U?$pair@$$CB_KPEAVApiInfo@@@std@@V?$allocator@U?$pair@$$CB_KPEAVApiInfo@@@std@@@2@@std@@@0@_KPEBV10@AEAV?$allocator@V?$_List_iterator@V?$_List_val@U?$pair@$$CB_KPEAVApiInfo@@@std@@V?$allocator@U?$pair@$$CB_KPEAVApiInfo@@@std@@@2@@std@@@std@@@0@0U_Nonscalar_ptr_iterator_tag@0@@Z 000000014001ab60 f i ApiReader.obj
 0001:00019b60       ??$_Uninit_fill_n@PEAV?$_List_iterator@V?$_List_val@U?$pair@QEAU_TREEITEM@@UTreeItemData@ImportsHandling@@@std@@V?$allocator@U?$pair@QEAU_TREEITEM@@UTreeItemData@ImportsHandling@@@std@@@2@@std@@@std@@_KV12@V?$allocator@V?$_List_iterator@V?$_List_val@U?$pair@QEAU_TREEITEM@@UTreeItemData@ImportsHandling@@@std@@V?$allocator@U?$pair@QEAU_TREEITEM@@UTreeItemData@ImportsHandling@@@std@@@2@@std@@@std@@@2@V12@@std@@YAXPEAV?$_List_iterator@V?$_List_val@U?$pair@QEAU_TREEITEM@@UTreeItemData@ImportsHandling@@@std@@V?$allocator@U?$pair@QEAU_TREEITEM@@UTreeItemData@ImportsHandling@@@std@@@2@@std@@@0@_KPEBV10@AEAV?$allocator@V?$_List_iterator@V?$_List_val@U?$pair@QEAU_TREEITEM@@UTreeItemData@ImportsHandling@@@std@@V?$allocator@U?$pair@QEAU_TREEITEM@@UTreeItemData@ImportsHandling@@@std@@@2@@std@@@std@@@0@0U_Nonscalar_ptr_iterator_tag@0@@Z 000000014001ab60 f i ImportsHandling.obj
 0001:00019b90       ??$_Buynode@U?$pair@QEAU_TREEITEM@@UTreeItemData@ImportsHandling@@@std@@@?$_List_val@U?$pair@QEAU_TREEITEM@@UTreeItemData@ImportsHandling@@@std@@V?$allocator@U?$pair@QEAU_TREEITEM@@UTreeItemData@ImportsHandling@@@std@@@2@@std@@QEAAPEAU_Node@?$_List_nod@U?$pair@QEAU_TREEITEM@@UTreeItemData@ImportsHandling@@@std@@V?$allocator@U?$pair@QEAU_TREEITEM@@UTreeItemData@ImportsHandling@@@std@@@2@@1@PEAU231@0$$QEAU?$pair@QEAU_TREEITEM@@UTreeItemData@ImportsHandling@@@1@@Z 000000014001ab90 f i ImportsHandling.obj
 0001:00019c40       ?AtlThrowLastWin32@ATL@@YAXXZ 000000014001ac40 f i Logger.obj
 0001:00019c60       ?log@Logger@@UEAAXPEB_WZZ  000000014001ac60 f   Logger.obj
 0001:00019cc0       ?log@Logger@@UEAAXPEBDZZ   000000014001acc0 f   Logger.obj
 0001:00019d20       ?write@Logger@@MEAAXPEBD@Z 000000014001ad20 f   Logger.obj
 0001:00019da0       ?write@FileLog@@EEAAXPEBD@Z 000000014001ada0 f   Logger.obj
 0001:00019e00       ?write@FileLog@@EEAAXPEB_W@Z 000000014001ae00 f   Logger.obj
 0001:00019e60       ?write@ListboxLog@@EEAAXPEB_W@Z 000000014001ae60 f   Logger.obj
 0001:00019eb0       ?Init@?$CA2WEX@$0IA@@ATL@@AEAAXPEBDI@Z 000000014001aeb0 f i Logger.obj
 0001:00019fc0       ??$AtlConvAllocMemory@_W@ATL@@YAXPEAPEA_WHPEA_WH@Z 000000014001afc0 f i Logger.obj
 0001:0001a070       ?memcpy_s@Checked@ATL@@YAXPEAX_KPEBX1@Z 000000014001b070 f i main.obj
 0001:0001a0c0       ?AtlHresultFromLastError@ATL@@YAJXZ 000000014001b0c0 f i main.obj
 0001:0001a0e0       ?AtlHresultFromWin32@ATL@@YAJK@Z 000000014001b0e0 f i main.obj
 0001:0001a0f0       ?RegDeleteKeyW@CAtlTransactionManager@ATL@@QEAAJPEAUHKEY__@@PEB_W@Z 000000014001b0f0 f i main.obj
 0001:0001a1a0       ??0CAtlModule@ATL@@QEAA@XZ 000000014001b1a0 f i main.obj
 0001:0001a240       ?Term@CAtlModule@ATL@@QEAAXXZ 000000014001b240 f i main.obj
 0001:0001a2f0       ?Lock@CAtlModule@ATL@@UEAAJXZ 000000014001b2f0 f i main.obj
 0001:0001a300       ?Unlock@CAtlModule@ATL@@UEAAJXZ 000000014001b300 f i main.obj
 0001:0001a310       ?GetLockCount@CAtlModule@ATL@@UEAAJXZ 000000014001b310 f i main.obj
 0001:0001a320       ?GetGITPtr@CAtlModule@ATL@@UEAAJPEAPEAUIGlobalInterfaceTable@@@Z 000000014001b320 f i main.obj
 0001:0001a3a0       ?UpdateRegistryFromResourceD@CComModule@ATL@@UEAAJIHPEAU_ATL_REGMAP_ENTRY@2@@Z 000000014001b3a0 f i main.obj
 0001:0001a3a0       ?UpdateRegistryFromResourceD@CComModule@ATL@@UEAAJPEB_WHPEAU_ATL_REGMAP_ENTRY@2@@Z 000000014001b3a0 f i main.obj
 0001:0001a3b0       ?UpdateRegistryFromResourceS@CComModule@ATL@@UEAAJPEB_WHPEAU_ATL_REGMAP_ENTRY@2@@Z 000000014001b3b0 f i main.obj
 0001:0001a3c0       ?UpdateRegistryFromResourceS@CComModule@ATL@@UEAAJIHPEAU_ATL_REGMAP_ENTRY@2@@Z 000000014001b3c0 f i main.obj
 0001:0001a3d0       ??_GCComModule@ATL@@UEAAPEAXI@Z 000000014001b3d0 f i main.obj
 0001:0001a3d0       ??_GCAppModule@WTL@@UEAAPEAXI@Z 000000014001b3d0 f i main.obj
 0001:0001a3d0       ??_ECAppModule@WTL@@UEAAPEAXI@Z 000000014001b3d0 f i  CIL library: CIL module
 0001:0001a3d0       ??_ECComModule@ATL@@UEAAPEAXI@Z 000000014001b3d0 f i  CIL library: CIL module
 0001:0001a410       ??1CRegKey@ATL@@QEAA@XZ    000000014001b410 f i main.obj
 0001:0001a450       ?DeleteSubKey@CRegKey@ATL@@QEAAJPEB_W@Z 000000014001b450 f i main.obj
 0001:0001a500       ?Create@CRegKey@ATL@@QEAAJPEAUHKEY__@@PEB_WPEA_WKKPEAU_SECURITY_ATTRIBUTES@@PEAK@Z 000000014001b500 f i main.obj
 0001:0001a640       ?Open@CRegKey@ATL@@QEAAJPEAUHKEY__@@PEB_WK@Z 000000014001b640 f i main.obj
 0001:0001a740       ?SetMultiStringValue@CRegKey@ATL@@QEAAJPEB_W0@Z 000000014001b740 f i main.obj
 0001:0001a7e0       ?RecurseDeleteKey@CRegKey@ATL@@QEAAJPEB_W@Z 000000014001b7e0 f i main.obj
 0001:0001a930       ?Add@CExpansionVector@ATL@@QEAAHPEB_W0@Z 000000014001b930 f i main.obj
 0001:0001ab50       ?ClearReplacements@CExpansionVector@ATL@@QEAAJXZ 000000014001bb50 f i main.obj
 0001:0001ac20       ??1CParseBuffer@CRegParser@ATL@@QEAA@XZ 000000014001bc20 f i main.obj
 0001:0001ac30       ?Append@CParseBuffer@CRegParser@ATL@@QEAAHPEB_WH@Z 000000014001bc30 f i main.obj
 0001:0001ad20       ?QueryInterface@CRegObject@ATL@@UEAAJAEBU_GUID@@PEAPEAX@Z 000000014001bd20 f i main.obj
 0001:0001ad30       ?AddRef@CRegObject@ATL@@UEAAKXZ 000000014001bd30 f i main.obj
 0001:0001ad40       ??1CRegObject@ATL@@UEAA@XZ 000000014001bd40 f i main.obj
 0001:0001add0       ??_ECRegObject@ATL@@UEAAPEAXI@Z 000000014001bdd0 f i  CIL library: CIL module
 0001:0001add0       ??_GCRegObject@ATL@@UEAAPEAXI@Z 000000014001bdd0 f i main.obj
 0001:0001ae00       ?AddReplacement@CRegObject@ATL@@UEAAJPEB_W0@Z 000000014001be00 f i main.obj
 0001:0001ae90       ?RegisterFromResource@CRegObject@ATL@@IEAAJPEB_W00H@Z 000000014001be90 f i main.obj
 0001:0001b070       ?ClearReplacements@CRegObject@ATL@@UEAAJXZ 000000014001c070 f i main.obj
 0001:0001b0b0       ?VTFromRegType@CRegParser@ATL@@KAHPEB_WAEAG@Z 000000014001c0b0 f i main.obj
 0001:0001b1b0       ?ChToByte@CRegParser@ATL@@KAE_W@Z 000000014001c1b0 f i main.obj
 0001:0001b240       ?StrChrW@CRegParser@ATL@@KAPEA_WPEA_W_W@Z 000000014001c240 f i main.obj
 0001:0001b2b0       ?NextToken@CRegParser@ATL@@IEAAJPEA_W@Z 000000014001c2b0 f i main.obj
 0001:0001b460       ?AddValue@CRegParser@ATL@@IEAAJAEAVCRegKey@2@PEB_WPEA_W@Z 000000014001c460 f i main.obj
 0001:0001b8f0       ?HasSubKeys@CRegParser@ATL@@IEAAHPEAUHKEY__@@@Z 000000014001c8f0 f i main.obj
 0001:0001b950       ?SkipAssignment@CRegParser@ATL@@IEAAJPEA_W@Z 000000014001c950 f i main.obj
 0001:0001ba00       ?PreProcessBuffer@CRegParser@ATL@@QEAAJPEA_WPEAPEA_W@Z 000000014001ca00 f i main.obj
 0001:0001be50       ?RegisterBuffer@CRegParser@ATL@@QEAAJPEA_WH@Z 000000014001ce50 f i main.obj
 0001:0001c040       ?RegisterSubkeys@CRegParser@ATL@@IEAAJPEA_WPEAUHKEY__@@HH@Z 000000014001d040 f i main.obj
 0001:0001c770       ?UpdateRegistryFromResourceS@CAtlModule@ATL@@QEAAJPEB_WHPEAU_ATL_REGMAP_ENTRY@2@@Z 000000014001d770 f i main.obj
 0001:0001cbc0       ?UpdateRegistryFromResourceS@CAtlModule@ATL@@QEAAJIHPEAU_ATL_REGMAP_ENTRY@2@@Z 000000014001dbc0 f i main.obj
 0001:0001cff0       ?Term@CComModule@ATL@@QEAAXXZ 000000014001dff0 f i main.obj
 0001:0001d0e0       ?AtlWinModuleExtractCreateWndData@ATL@@YAPEAXPEAU_ATL_WIN_MODULE70@1@@Z 000000014001e0e0 f i main.obj
 0001:0001d160       ?Run@CMessageLoop@WTL@@QEAAHXZ 000000014001e160 f i main.obj
 0001:0001d250       ?PreTranslateMessage@CMessageLoop@WTL@@UEAAHPEAUtagMSG@@@Z 000000014001e250 f i main.obj
 0001:0001d2e0       ?OnIdle@CMessageLoop@WTL@@UEAAHH@Z 000000014001e2e0 f i main.obj
 0001:0001d350       ?Init@CAppModule@WTL@@QEAAJPEAU_ATL_OBJMAP_ENTRY30@ATL@@PEAUHINSTANCE__@@PEBU_GUID@@@Z 000000014001e350 f i main.obj
 0001:0001d400       ?AddMessageLoop@CAppModule@WTL@@QEAAHPEAVCMessageLoop@2@@Z 000000014001e400 f i main.obj
 0001:0001d4d0       ?TermSettingChangeNotify@CAppModule@WTL@@QEAAXXZ 000000014001e4d0 f i main.obj
 0001:0001d560       ??1IATReferenceScan@@QEAA@XZ 000000014001e560 f i main.obj
 0001:0001d660       wWinMain                   000000014001e660 f   main.obj
 0001:0001d690       ?InitializeGui@@YAHPEAUHINSTANCE__@@_J@Z 000000014001e690 f   main.obj
 0001:0001d810       ??1MainGui@@UEAA@XZ        000000014001e810 f i main.obj
 0001:0001d9a0       ??1CMessageLoop@WTL@@QEAA@XZ 000000014001e9a0 f i main.obj
 0001:0001d9f0       ??1CMultiSelectTreeViewCtrl@@UEAA@XZ 000000014001e9f0 f i main.obj
 0001:0001da50       ?HandleUnknownException@@YAJPEAU_EXCEPTION_POINTERS@@@Z 000000014001ea50 f   main.obj
 0001:0001dc80       ??1?$CAtlSafeAllocBufferManager@VCCRTAllocator@ATL@@@_ATL_SAFE_ALLOCA_IMPL@ATL@@QEAA@XZ 000000014001ec80 f i main.obj
 0001:0001dcb0       ?AddCommonRGSReplacements@?$CAtlModuleT@VCComModule@ATL@@@ATL@@UEAAJPEAUIRegistrarBase@@@Z 000000014001ecb0 f i main.obj
 0001:0001dcd0       ??1?$CAutoVectorPtr@_W@ATL@@QEAA@XZ 000000014001ecd0 f i main.obj
 0001:0001dcf0       ??1?$CTempBuffer@E$0BAA@VCCRTAllocator@ATL@@@ATL@@QEAA@XZ 000000014001ecf0 f i main.obj
 0001:0001dcf0       ??1?$CTempBuffer@_W$0EAA@VCCRTAllocator@ATL@@@ATL@@QEAA@XZ 000000014001ecf0 f i main.obj
 0001:0001dcf0       ??1?$CTempBuffer@_W$0BAA@VCCRTAllocator@ATL@@@ATL@@QEAA@XZ 000000014001ecf0 f i main.obj
 0001:0001dd10       ?Create@?$CDialogImpl@VMainGui@@VCWindow@ATL@@@ATL@@QEAAPEAUHWND__@@PEAU3@_J@Z 000000014001ed10 f i main.obj
 0001:0001dde0       ?FreeHeap@?$CTempBuffer@_W$0BAA@VCCRTAllocator@ATL@@@ATL@@AEAAXXZ 000000014001ede0 f i main.obj
 0001:0001dde0       ?FreeHeap@?$CTempBuffer@E$0BAA@VCCRTAllocator@ATL@@@ATL@@AEAAXXZ 000000014001ede0 f i main.obj
 0001:0001dde0       ?FreeHeap@?$CTempBuffer@_W$0EAA@VCCRTAllocator@ATL@@@ATL@@AEAAXXZ 000000014001ede0 f i main.obj
 0001:0001ddf0       ?AllocateHeap@?$CTempBuffer@E$0BAA@VCCRTAllocator@ATL@@@ATL@@AEAAX_K@Z 000000014001edf0 f i main.obj
 0001:0001ddf0       ?AllocateHeap@?$CTempBuffer@_W$0BAA@VCCRTAllocator@ATL@@@ATL@@AEAAX_K@Z 000000014001edf0 f i main.obj
 0001:0001ddf0       ?AllocateHeap@?$CTempBuffer@_W$0EAA@VCCRTAllocator@ATL@@@ATL@@AEAAX_K@Z 000000014001edf0 f i main.obj
 0001:0001de20       ?StartDialogProc@?$CDialogImplBaseT@VCWindow@ATL@@@ATL@@SA_JPEAUHWND__@@I_K_J@Z 000000014001ee20 f i main.obj
 0001:0001deb0       ?GetMessageLoop@CAppModule@WTL@@QEBAPEAVCMessageLoop@2@K@Z 000000014001eeb0 f i MainGui.obj
 0001:0001df50       ?ResizeClient@CWindow@ATL@@QEAAHHHH@Z 000000014001ef50 f i MainGui.obj
 0001:0001e050       ?DoDataExchange@MainGui@@QEAAHHI@Z 000000014001f050 f i MainGui.obj
 0001:0001e230       ?ProcessWindowMessage@MainGui@@UEAAHPEAUHWND__@@I_K_JAEA_JK@Z 000000014001f230 f i MainGui.obj
 0001:0001e280       ?_ProcessWindowMessage@MainGui@@QEAAHPEAUHWND__@@I_K_JAEA_JK@Z 000000014001f280 f i MainGui.obj
 0001:0001e9b0       ??1DllInjectionPlugin@@QEAA@XZ 000000014001f9b0 f i MainGui.obj
 0001:0001e9f0       ?ProcessWindowMessage@AboutGui@@UEAAHPEAUHWND__@@I_K_JAEA_JK@Z 000000014001f9f0 f i MainGui.obj
 0001:0001ed30       ?ProcessWindowMessage@DonateGui@@UEAAHPEAUHWND__@@I_K_JAEA_JK@Z 000000014001fd30 f i MainGui.obj
 0001:0001ee90       ?ProcessWindowMessage@OptionsGui@@UEAAHPEAUHWND__@@I_K_JAEA_JK@Z 000000014001fe90 f i MainGui.obj
 0001:0001efb0       ??0MainGui@@QEAA@XZ        000000014001ffb0 f   MainGui.obj
 0001:0001f300       ??_GMainGui@@UEAAPEAXI@Z   0000000140020300 f i MainGui.obj
 0001:0001f300       ??_EMainGui@@UEAAPEAXI@Z   0000000140020300 f i  CIL library: CIL module
 0001:0001f330       ??_ECMultiSelectTreeViewCtrl@@UEAAPEAXI@Z 0000000140020330 f i  CIL library: CIL module
 0001:0001f330       ??_GCMultiSelectTreeViewCtrl@@UEAAPEAXI@Z 0000000140020330 f i MainGui.obj
 0001:0001f3b0       ?PreTranslateMessage@MainGui@@MEAAHPEAUtagMSG@@@Z 00000001400203b0 f   MainGui.obj
 0001:0001f410       ?InitDllStartWithPreSelect@MainGui@@IEAAXPEAU_GUI_DLL_PARAMETER@@@Z 0000000140020410 f   MainGui.obj
 0001:0001f690       ?OnInitDialog@MainGui@@IEAAHVCWindow@ATL@@_J@Z 0000000140020690 f   MainGui.obj
 0001:0001f800       ?OnCommand@MainGui@@IEAAXIHVCWindow@ATL@@@Z 0000000140020800 f   MainGui.obj
 0001:0001f8b0       ?OnTreeImportsDoubleClick@MainGui@@IEAA_JPEBUtagNMHDR@@@Z 00000001400208b0 f   MainGui.obj
 0001:0001f9a0       ?OnTreeImportsKeyDown@MainGui@@IEAA_JPEBUtagNMHDR@@@Z 00000001400209a0 f   MainGui.obj
 0001:0001fa50       ?OnInvalidImports@MainGui@@IEAAXIHVCWindow@ATL@@@Z 0000000140020a50 f   MainGui.obj
 0001:0001fa90       ?OnSuspectImports@MainGui@@IEAAXIHVCWindow@ATL@@@Z 0000000140020a90 f   MainGui.obj
 0001:0001fad0       ?OnExit@MainGui@@IEAAXIHVCWindow@ATL@@@Z 0000000140020ad0 f   MainGui.obj
 0001:0001fb60       ?setupStatusBar@MainGui@@IEAAXXZ 0000000140020b60 f   MainGui.obj
 0001:0001fc80       ?updateStatusBar@MainGui@@IEAAXXZ 0000000140020c80 f   MainGui.obj
 0001:0001fe40       ?pickDllActionHandler@MainGui@@IEAAXXZ 0000000140020e40 f   MainGui.obj
 0001:0001ffe0       ?pickApiActionHandler@MainGui@@IEAAXV?$CTreeItemT@VCWindow@ATL@@@WTL@@@Z 0000000140020fe0 f   MainGui.obj
 0001:00020170       ??1PickApiGui@@UEAA@XZ     0000000140021170 f i MainGui.obj
 0001:00020170       ??1PickDllGui@@UEAA@XZ     0000000140021170 f i MainGui.obj
 0001:000201b0       ?startDisassemblerGui@MainGui@@IEAAXV?$CTreeItemT@VCWindow@ATL@@@WTL@@@Z 00000001400211b0 f   MainGui.obj
 0001:000202f0       ?processSelectedActionHandler@MainGui@@IEAAXH@Z 00000001400212f0 f   MainGui.obj
 0001:000204c0       ?fillProcessListComboBox@MainGui@@IEAAXAEAV?$CComboBoxT@VCWindow@ATL@@@WTL@@@Z 00000001400214c0 f   MainGui.obj
 0001:000205b0       ?saveLogToFile@MainGui@@IEAA_NPEB_W@Z 00000001400215b0 f   MainGui.obj
 0001:000207d0       ?deleteSelectedImportsActionHandler@MainGui@@IEAAXXZ 00000001400217d0 f   MainGui.obj
 0001:00020a70       ?invalidateSelectedImportsActionHandler@MainGui@@IEAAXXZ 0000000140021a70 f   MainGui.obj
 0001:00020cf0       ?loadTreeActionHandler@MainGui@@IEAAXXZ 0000000140021cf0 f   MainGui.obj
 0001:00020f40       ?saveTreeActionHandler@MainGui@@IEAAXXZ 0000000140021f40 f   MainGui.obj
 0001:00021120       ?iatAutosearchActionHandler@MainGui@@IEAAXXZ 0000000140022120 f   MainGui.obj
 0001:000213d0       ?getImportsActionHandler@MainGui@@IEAAXXZ 00000001400223d0 f   MainGui.obj
 0001:000216c0       ?SetupImportsMenuItems@MainGui@@IEAAXV?$CTreeItemT@VCWindow@ATL@@@WTL@@@Z 00000001400226c0 f   MainGui.obj
 0001:000217b0       ?DisplayContextMenuImports@MainGui@@IEAAXVCWindow@ATL@@VCPoint@WTL@@@Z 00000001400227b0 f   MainGui.obj
 0001:00021ba0       ?DisplayContextMenuLog@MainGui@@IEAAXVCWindow@ATL@@VCPoint@WTL@@@Z 0000000140022ba0 f   MainGui.obj
 0001:00021d60       ?appendPluginListToMenu@MainGui@@IEAAXV?$CMenuT@$0A@@WTL@@@Z 0000000140022d60 f   MainGui.obj
 0001:00021f70       ?dumpMemoryActionHandler@MainGui@@IEAAXXZ 0000000140022f70 f   MainGui.obj
 0001:00022190       ?dumpSectionActionHandler@MainGui@@IEAAXXZ 0000000140023190 f   MainGui.obj
 0001:00022610       ?dumpActionHandler@MainGui@@IEAAXXZ 0000000140023610 f   MainGui.obj
 0001:00022960       ?peRebuildActionHandler@MainGui@@IEAAXXZ 0000000140023960 f   MainGui.obj
 0001:00022e40       ?dumpFixActionHandler@MainGui@@IEAAXXZ 0000000140023e40 f   MainGui.obj
 0001:000232e0       ?enableDialogControls@MainGui@@IEAAXH@Z 00000001400242e0 f   MainGui.obj
 0001:00023510       ?showAboutDialog@MainGui@@IEAAXXZ 0000000140024510 f   MainGui.obj
 0001:000235b0       ??1?$CDialogImpl@VDumpSectionGui@@VCWindow@ATL@@@ATL@@UEAA@XZ 00000001400245b0 f i DumpSectionGui.obj
 0001:000235b0       ??1?$CHexEdit@K@@UEAA@XZ   00000001400245b0 f i DumpMemoryGui.obj
 0001:000235b0       ??1DonateGui@@UEAA@XZ      00000001400245b0 f i MainGui.obj
 0001:000235b0       ??1?$CHexEdit@_K@@UEAA@XZ  00000001400245b0 f i DisassemblerGui.obj
 0001:000235b0       ??1OptionsGui@@UEAA@XZ     00000001400245b0 f i MainGui.obj
 0001:000235b0       ??1?$CDialogImpl@VDumpMemoryGui@@VCWindow@ATL@@@ATL@@UEAA@XZ 00000001400245b0 f i DumpMemoryGui.obj
 0001:000235b0       ??1?$CDialogImpl@VMainGui@@VCWindow@ATL@@@ATL@@UEAA@XZ 00000001400245b0 f i main.obj
 0001:000235b0       ??1AboutGui@@UEAA@XZ       00000001400245b0 f i MainGui.obj
 0001:000235b0       ??1?$CDialogImpl@VDisassemblerGui@@VCWindow@ATL@@@ATL@@UEAA@XZ 00000001400245b0 f i DisassemblerGui.obj
 0001:000235d0       ??_GAboutGui@@UEAAPEAXI@Z  00000001400245d0 f i MainGui.obj
 0001:000235d0       ??_EOptionsGui@@UEAAPEAXI@Z 00000001400245d0 f i  CIL library: CIL module
 0001:000235d0       ??_GDonateGui@@UEAAPEAXI@Z 00000001400245d0 f i MainGui.obj
 0001:000235d0       ??_GOptionsGui@@UEAAPEAXI@Z 00000001400245d0 f i MainGui.obj
 0001:000235d0       ??_E?$CHexEdit@K@@UEAAPEAXI@Z 00000001400245d0 f i  CIL library: CIL module
 0001:000235d0       ??_G?$CHexEdit@K@@UEAAPEAXI@Z 00000001400245d0 f i DumpMemoryGui.obj
 0001:000235d0       ??_G?$CHexEdit@_K@@UEAAPEAXI@Z 00000001400245d0 f i DisassemblerGui.obj
 0001:000235d0       ??_E?$CHexEdit@_K@@UEAAPEAXI@Z 00000001400245d0 f i  CIL library: CIL module
 0001:000235d0       ??_EAboutGui@@UEAAPEAXI@Z  00000001400245d0 f i  CIL library: CIL module
 0001:000235d0       ??_EDonateGui@@UEAAPEAXI@Z 00000001400245d0 f i  CIL library: CIL module
 0001:00023610       ?dllInjectActionHandler@MainGui@@IEAAXXZ 0000000140024610 f   MainGui.obj
 0001:000237c0       ?disassemblerActionHandler@MainGui@@IEAAXXZ 00000001400247c0 f   MainGui.obj
 0001:00023840       ?optionsActionHandler@MainGui@@IEAAXXZ 0000000140024840 f   MainGui.obj
 0001:000238d0       ?pluginActionHandler@MainGui@@IEAAXH@Z 00000001400248d0 f   MainGui.obj
 0001:000239f0       ?getCurrentModulePath@MainGui@@IEAA_NPEA_W_K@Z 00000001400249f0 f   MainGui.obj
 0001:00023a50       ?checkSuspendProcess@MainGui@@IEAAXXZ 0000000140024a50 f   MainGui.obj
 0001:00023ad0       ?setDialogIATAddressAndSize@MainGui@@IEAAX_KK@Z 0000000140024ad0 f   MainGui.obj
 0001:00023b90       ?Add@?$CSimpleArray@PEAVCMessageFilter@WTL@@V?$CSimpleArrayEqualHelper@PEAVCMessageFilter@WTL@@@ATL@@@ATL@@QEAAHAEBQEAVCMessageFilter@WTL@@@Z 0000000140024b90 f i MainGui.obj
 0001:00023c40       ?ProcessWindowMessage@?$CMultiSelectTreeViewImpl@VCMultiSelectTreeViewCtrl@@V?$CTreeViewCtrlExT@VCWindow@ATL@@@WTL@@V?$CWinTraitsOR@$0CA@$0A@V?$CWinTraits@$0FGAAAAAA@$0A@@ATL@@@ATL@@@@UEAAHPEAUHWND__@@I_K_JAEA_JK@Z 0000000140024c40 f i MainGui.obj
 0001:00023c90       ?DoModal@?$CDialogImpl@VPickDllGui@@VCWindow@ATL@@@ATL@@QEAA_JPEAUHWND__@@_J@Z 0000000140024c90 f i MainGui.obj
 0001:00023d60       ?DoModal@?$CDialogImpl@VDumpMemoryGui@@VCWindow@ATL@@@ATL@@QEAA_JPEAUHWND__@@_J@Z 0000000140024d60 f i MainGui.obj
 0001:00023e30       ?DoModal@?$CDialogImpl@VDumpSectionGui@@VCWindow@ATL@@@ATL@@QEAA_JPEAUHWND__@@_J@Z 0000000140024e30 f i MainGui.obj
 0001:00023f00       ?DlgResize_Init@?$CDialogResize@VMainGui@@@WTL@@QEAAX_N0K@Z 0000000140024f00 f i MainGui.obj
 0001:000242e0       ?Create@?$CStatusBarCtrlT@VCWindow@ATL@@@WTL@@QEAAPEAUHWND__@@PEAU3@V_U_RECT@ATL@@PEB_WKKV_U_MENUorID@5@PEAX@Z 00000001400252e0 f i MainGui.obj
 0001:00024370       ?DoModal@?$CDialogImpl@VDisassemblerGui@@VCWindow@ATL@@@ATL@@QEAA_JPEAUHWND__@@_J@Z 0000000140025370 f i MainGui.obj
 0001:00024440       ?DoModal@?$CDialogImpl@VPickApiGui@@VCWindow@ATL@@@ATL@@QEAA_JPEAUHWND__@@_J@Z 0000000140025440 f i MainGui.obj
 0001:00024510       ?DoModal@?$CDialogImpl@VAboutGui@@VCWindow@ATL@@@ATL@@QEAA_JPEAUHWND__@@_J@Z 0000000140025510 f i MainGui.obj
 0001:000245e0       ?DoModal@?$CDialogImpl@VDonateGui@@VCWindow@ATL@@@ATL@@QEAA_JPEAUHWND__@@_J@Z 00000001400255e0 f i MainGui.obj
 0001:000246b0       ?DoModal@?$CDialogImpl@VOptionsGui@@VCWindow@ATL@@@ATL@@QEAA_JPEAUHWND__@@_J@Z 00000001400256b0 f i MainGui.obj
 0001:00024780       ?GetSubMenu@?$CMenuT@$0A@@WTL@@QEBA?AV12@H@Z 0000000140025780 f i MainGui.obj
 0001:000247b0       ?_ProcessWindowMessage@?$CMultiSelectTreeViewImpl@VCMultiSelectTreeViewCtrl@@V?$CTreeViewCtrlExT@VCWindow@ATL@@@WTL@@V?$CWinTraitsOR@$0CA@$0A@V?$CWinTraits@$0FGAAAAAA@$0A@@ATL@@@ATL@@@@QEAAHPEAUHWND__@@I_K_JAEA_JK@Z 00000001400257b0 f i MainGui.obj
 0001:00024ac0       ?OnSize@?$CDialogResize@VMainGui@@@WTL@@QEAA_JI_K_JAEAH@Z 0000000140025ac0 f i MainGui.obj
 0001:00024b50       ?OnCreate@?$CMultiSelectTreeViewImpl@VCMultiSelectTreeViewCtrl@@V?$CTreeViewCtrlExT@VCWindow@ATL@@@WTL@@V?$CWinTraitsOR@$0CA@$0A@V?$CWinTraits@$0FGAAAAAA@$0A@@ATL@@@ATL@@@@QEAA_JI_K_J@Z 0000000140025b50 f i MainGui.obj
 0001:00024bd0       ?OnKeyDown@?$CMultiSelectTreeViewImpl@VCMultiSelectTreeViewCtrl@@V?$CTreeViewCtrlExT@VCWindow@ATL@@@WTL@@V?$CWinTraitsOR@$0CA@$0A@V?$CWinTraits@$0FGAAAAAA@$0A@@ATL@@@ATL@@@@QEAAXIII@Z 0000000140025bd0 f i MainGui.obj
 0001:00024ca0       ?OnKeyUp@?$CMultiSelectTreeViewImpl@VCMultiSelectTreeViewCtrl@@V?$CTreeViewCtrlExT@VCWindow@ATL@@@WTL@@V?$CWinTraitsOR@$0CA@$0A@V?$CWinTraits@$0FGAAAAAA@$0A@@ATL@@@ATL@@@@QEAAXIII@Z 0000000140025ca0 f i MainGui.obj
 0001:00024de0       ?OnChar@?$CMultiSelectTreeViewImpl@VCMultiSelectTreeViewCtrl@@V?$CTreeViewCtrlExT@VCWindow@ATL@@@WTL@@V?$CWinTraitsOR@$0CA@$0A@V?$CWinTraits@$0FGAAAAAA@$0A@@ATL@@@ATL@@@@QEAAXIII@Z 0000000140025de0 f i MainGui.obj
 0001:00024ec0       ?OnLButtonDown@?$CMultiSelectTreeViewImpl@VCMultiSelectTreeViewCtrl@@V?$CTreeViewCtrlExT@VCWindow@ATL@@@WTL@@V?$CWinTraitsOR@$0CA@$0A@V?$CWinTraits@$0FGAAAAAA@$0A@@ATL@@@ATL@@@@QEAAXIVCPoint@WTL@@@Z 0000000140025ec0 f i MainGui.obj
 0001:00025250       ?OnMouseMove@?$CMultiSelectTreeViewImpl@VCMultiSelectTreeViewCtrl@@V?$CTreeViewCtrlExT@VCWindow@ATL@@@WTL@@V?$CWinTraitsOR@$0CA@$0A@V?$CWinTraits@$0FGAAAAAA@$0A@@ATL@@@ATL@@@@QEAAXIVCPoint@WTL@@@Z 0000000140026250 f i MainGui.obj
 0001:00025330       ?OnInsertItem@?$CMultiSelectTreeViewImpl@VCMultiSelectTreeViewCtrl@@V?$CTreeViewCtrlExT@VCWindow@ATL@@@WTL@@V?$CWinTraitsOR@$0CA@$0A@V?$CWinTraits@$0FGAAAAAA@$0A@@ATL@@@ATL@@@@QEAA_JI_K_J@Z 0000000140026330 f i MainGui.obj
 0001:00025400       ?DlgResize_UpdateLayout@?$CDialogResize@VMainGui@@@WTL@@QEAAXHH@Z 0000000140026400 f i MainGui.obj
 0001:00025700       ?_SelectTree@?$CMultiSelectTreeViewImpl@VCMultiSelectTreeViewCtrl@@V?$CTreeViewCtrlExT@VCWindow@ATL@@@WTL@@V?$CWinTraitsOR@$0CA@$0A@V?$CWinTraits@$0FGAAAAAA@$0A@@ATL@@@ATL@@@@QEAAXPEAU_TREEITEM@@0H@Z 0000000140026700 f i MainGui.obj
 0001:000257b0       ?_SelectBox@?$CMultiSelectTreeViewImpl@VCMultiSelectTreeViewCtrl@@V?$CTreeViewCtrlExT@VCWindow@ATL@@@WTL@@V?$CWinTraitsOR@$0CA@$0A@V?$CWinTraits@$0FGAAAAAA@$0A@@ATL@@@ATL@@@@QEAAXVCRect@WTL@@@Z 00000001400267b0 f i MainGui.obj
 0001:00025930       ?_DrawDragRect@?$CMultiSelectTreeViewImpl@VCMultiSelectTreeViewCtrl@@V?$CTreeViewCtrlExT@VCWindow@ATL@@@WTL@@V?$CWinTraitsOR@$0CA@$0A@V?$CWinTraits@$0FGAAAAAA@$0A@@ATL@@@ATL@@@@QEAAXVCPoint@WTL@@@Z 0000000140026930 f i MainGui.obj
 0001:000259f0       ?OnCustomDraw@?$CCustomDraw@VCMultiSelectTreeViewCtrl@@@WTL@@QEAA_JHPEAUtagNMHDR@@AEAH@Z 00000001400269f0 f i MainGui.obj
 0001:00025a80       ?DlgResize_PositionControl@?$CDialogResize@VMainGui@@@WTL@@QEAA_NHHAEAUtagRECT@@AEAU_AtlDlgResizeData@12@_NPEAU412@@Z 0000000140026a80 f i MainGui.obj
 0001:00025ea0       ?DrawDragRect@?$CDCT@$00@WTL@@QEAAXPEBUtagRECT@@UtagSIZE@@01PEAUHBRUSH__@@2@Z 0000000140026ea0 f i MainGui.obj
 0001:00026040       ?RemoveAt@?$CSimpleMap@PEAU_TREEITEM@@_NV?$CSimpleMapEqualHelper@PEAU_TREEITEM@@_N@ATL@@@ATL@@QEAAHH@Z 0000000140027040 f i MainGui.obj
 0001:000261a0       ?_SelectTreeSub@?$CMultiSelectTreeViewImpl@VCMultiSelectTreeViewCtrl@@V?$CTreeViewCtrlExT@VCWindow@ATL@@@WTL@@V?$CWinTraitsOR@$0CA@$0A@V?$CWinTraits@$0FGAAAAAA@$0A@@ATL@@@ATL@@@@QEAA_NPEAU_TREEITEM@@0H@Z 00000001400271a0 f i MainGui.obj
 0001:000262a0       ?OnItemPrePaint@?$CMultiSelectTreeViewImpl@VCMultiSelectTreeViewCtrl@@V?$CTreeViewCtrlExT@VCWindow@ATL@@@WTL@@V?$CWinTraitsOR@$0CA@$0A@V?$CWinTraits@$0FGAAAAAA@$0A@@ATL@@@ATL@@@@QEAAKHPEAUtagNMCUSTOMDRAWINFO@@@Z 00000001400272a0 f i MainGui.obj
 0001:000263c0       ?GetHalftoneBrush@?$CDCT@$0A@@WTL@@SA?AV?$CBrushT@$0A@@2@XZ 00000001400273c0 f i MainGui.obj
 0001:00026470       ?ReflectNotifications@?$CWindowImplRoot@VCWindow@ATL@@@ATL@@QEAA_JI_K_JAEAH@Z 0000000140027470 f i MainGui.obj
 0001:000265e0       ?SubclassWindow@?$CMultiSelectTreeViewImpl@VCMultiSelectTreeViewCtrl@@V?$CTreeViewCtrlExT@VCWindow@ATL@@@WTL@@V?$CWinTraitsOR@$0CA@$0A@V?$CWinTraits@$0FGAAAAAA@$0A@@ATL@@@ATL@@@@QEAAHPEAUHWND__@@@Z 00000001400275e0 f i MainGui.obj
 0001:00026680       ?SubclassWindow@?$CContainedWindowT@VCWindow@ATL@@V?$CWinTraits@$0FGAAAAAA@$0A@@2@@ATL@@QEAAHPEAUHWND__@@@Z 0000000140027680 f i MainGui.obj
 0001:00026730       ?WindowProc@?$CContainedWindowT@VCWindow@ATL@@V?$CWinTraits@$0FGAAAAAA@$0A@@2@@ATL@@SA_JPEAUHWND__@@I_K_J@Z 0000000140027730 f i MainGui.obj
 0001:000268a0       ?initialize@NativeWinApi@@SAXXZ 00000001400278a0 f   NativeWinApi.obj
 0001:00026a90       ?DoDataExchange@OptionsGui@@QEAAHHI@Z 0000000140027a90 f i OptionsGui.obj
 0001:00026c50       ?saveOptions@OptionsGui@@IEBAXXZ 0000000140027c50 f   OptionsGui.obj
 0001:00026f00       ?loadOptions@OptionsGui@@IEAAXXZ 0000000140027f00 f   OptionsGui.obj
 0001:000271b0       ?DDX_Text@?$CWinDataExchange@VOptionsGui@@@WTL@@QEAAHIPEA_WHHHH@Z 00000001400281b0 f i OptionsGui.obj
 0001:00027280       ?DDX_Check@?$CWinDataExchange@VOptionsGui@@@WTL@@QEAAXIAEA_NH@Z 0000000140028280 f i OptionsGui.obj
 0001:00027310       ??0PeParser@@QEAA@PEB_W_N@Z 0000000140028310 f   PeParser.obj
 0001:000273d0       ??0PeParser@@QEAA@_K_N@Z   00000001400283d0 f   PeParser.obj
 0001:00027490       ??1PeParser@@QEAA@XZ       0000000140028490 f   PeParser.obj
 0001:000275d0       ?readPeHeaderFromProcess@PeParser@@IEAA_N_N@Z 00000001400285d0 f   PeParser.obj
 0001:00027710       ?readPeHeaderFromFile@PeParser@@IEAA_N_N@Z 0000000140028710 f   PeParser.obj
 0001:000278e0       ?readPeSectionsFromProcess@PeParser@@QEAA_NXZ 00000001400288e0 f   PeParser.obj
 0001:000279a0       ?readPeSectionsFromFile@PeParser@@QEAA_NXZ 00000001400289a0 f   PeParser.obj
 0001:00027a90       ?getSectionHeaders@PeParser@@IEAA_NXZ 0000000140028a90 f   PeParser.obj
 0001:00027c80       ?getDosAndNtHeader@PeParser@@IEAAXPEAEJ@Z 0000000140028c80 f   PeParser.obj
 0001:00027ce0       ?calcCorrectPeHeaderSize@PeParser@@IEAAK_N@Z 0000000140028ce0 f   PeParser.obj
 0001:00027d80       ?getSectionHeaderBasedFileSize@PeParser@@QEAAKXZ 0000000140028d80 f   PeParser.obj
 0001:00027df0       ?getSectionHeaderBasedSizeOfImage@PeParser@@QEAAKXZ 0000000140028df0 f   PeParser.obj
 0001:00027e60       ?openFileHandle@PeParser@@IEAA_NXZ 0000000140028e60 f   PeParser.obj
 0001:00027ee0       ?readSectionFrom@PeParser@@IEAA_N_KAEAVPeFileSection@@_N@Z 0000000140028ee0 f   PeParser.obj
 0001:00028160       ?savePeFileToDisk@PeParser@@QEAA_NPEB_W@Z 0000000140029160 f   PeParser.obj
 0001:000284d0       ?readPeSectionFromFile@PeParser@@IEAA_NKAEAVPeFileSection@@@Z 00000001400294d0 f   PeParser.obj
 0001:00028550       ?addNewLastSection@PeParser@@IEAA_NPEBDKPEAE@Z 0000000140029550 f   PeParser.obj
 0001:000286c0       ?fixPeHeader@PeParser@@QEAAXXZ 00000001400296c0 f   PeParser.obj
 0001:00028930       ?removeIatDirectory@PeParser@@IEAAXXZ 0000000140029930 f   PeParser.obj
 0001:000289f0       ?PeFileSectionSortByPointerToRawData@@YA_NAEBVPeFileSection@@0@Z 00000001400299f0 f   PeParser.obj
 0001:00028a00       ?PeFileSectionSortByVirtualAddress@@YA_NAEBVPeFileSection@@0@Z 0000000140029a00 f   PeParser.obj
 0001:00028a10       ?alignAllSectionHeaders@PeParser@@QEAAXXZ 0000000140029a10 f   PeParser.obj
 0001:00028bb0       ?dumpProcess@PeParser@@QEAA_N_K0PEB_W@Z 0000000140029bb0 f   PeParser.obj
 0001:00028c70       ?dumpProcess@PeParser@@QEAA_N_K0PEB_WAEAV?$vector@VPeSection@@V?$allocator@VPeSection@@@std@@@std@@@Z 0000000140029c70 f   PeParser.obj
 0001:00028df0       ?setEntryPointRva@PeParser@@QEAAXK@Z 0000000140029df0 f   PeParser.obj
 0001:00028e70       ?getFileOverlay@PeParser@@IEAA_NXZ 0000000140029e70 f   PeParser.obj
 0001:00028fb0       ?updatePeHeaderChecksum@PeParser@@SA_NPEB_WK@Z 0000000140029fb0 f   PeParser.obj
 0001:000290b0       ?push_back@?$vector@VPeFileSection@@V?$allocator@VPeFileSection@@@std@@@std@@QEAAXAEBVPeFileSection@@@Z 000000014002a0b0 f i PeParser.obj
 0001:00029170       ??$_Sort@PEAVPeFileSection@@_JP6A_NAEBV1@0@Z@std@@YAXPEAVPeFileSection@@0_JP6A_NAEBV1@2@Z@Z 000000014002a170 f i PeParser.obj
 0001:00029310       ??$_Unguarded_partition@PEAVPeFileSection@@P6A_NAEBV1@0@Z@std@@YA?AU?$pair@PEAVPeFileSection@@PEAV1@@0@PEAVPeFileSection@@0P6A_NAEBV2@1@Z@Z 000000014002a310 f i PeParser.obj
 0001:00029830       ??$_Median@PEAVPeFileSection@@P6A_NAEBV1@0@Z@std@@YAXPEAVPeFileSection@@00P6A_NAEBV1@1@Z@Z 000000014002a830 f i PeParser.obj
 0001:00029920       ??$_Make_heap@PEAVPeFileSection@@_JV1@P6A_NAEBV1@0@Z@std@@YAXPEAVPeFileSection@@0P6A_NAEBV1@1@ZPEA_J0@Z 000000014002a920 f i PeParser.obj
 0001:00029b30       ??$_Sort_heap@PEAVPeFileSection@@P6A_NAEBV1@0@Z@std@@YAXPEAVPeFileSection@@0P6A_NAEBV1@1@Z@Z 000000014002ab30 f i PeParser.obj
 0001:00029be0       ??$_Insertion_sort1@PEAVPeFileSection@@P6A_NAEBV1@0@ZV1@@std@@YAXPEAVPeFileSection@@0P6A_NAEBV1@1@Z0@Z 000000014002abe0 f i PeParser.obj
 0001:00029df0       ??$_Med3@PEAVPeFileSection@@P6A_NAEBV1@0@Z@std@@YAXPEAVPeFileSection@@00P6A_NAEBV1@1@Z@Z 000000014002adf0 f i PeParser.obj
 0001:00029fb0       ??$_Adjust_heap@PEAVPeFileSection@@_JV1@P6A_NAEBV1@0@Z@std@@YAXPEAVPeFileSection@@_J1$$QEAV1@P6A_NAEBV1@3@Z@Z 000000014002afb0 f i PeParser.obj
 0001:0002a1b0       ??$_Push_heap@PEAVPeFileSection@@_JV1@P6A_NAEBV1@0@Z@std@@YAXPEAVPeFileSection@@_J1$$QEAV1@P6A_NAEBV1@3@Z@Z 000000014002b1b0 f i PeParser.obj
 0001:0002a2d0       ??$_Pop_heap_0@PEAVPeFileSection@@V1@P6A_NAEBV1@0@Z@std@@YAXPEAVPeFileSection@@0P6A_NAEBV1@1@Z0@Z 000000014002b2d0 f i PeParser.obj
 0001:0002a3a0       ?DoDataExchange@PickApiGui@@QEAAHHI@Z 000000014002b3a0 f i PickApiGui.obj
 0001:0002a450       ?ProcessWindowMessage@PickApiGui@@UEAAHPEAUHWND__@@I_K_JAEA_JK@Z 000000014002b450 f i PickApiGui.obj
 0001:0002a6b0       ??_GPickDllGui@@UEAAPEAXI@Z 000000014002b6b0 f i PickDllGui.obj
 0001:0002a6b0       ??_GPickApiGui@@UEAAPEAXI@Z 000000014002b6b0 f i PickApiGui.obj
 0001:0002a6b0       ??_EPickApiGui@@UEAAPEAXI@Z 000000014002b6b0 f i  CIL library: CIL module
 0001:0002a6b0       ??_EPickDllGui@@UEAAPEAXI@Z 000000014002b6b0 f i  CIL library: CIL module
 0001:0002a710       ?OnApiFilterUpdated@PickApiGui@@IEAAXIHVCWindow@ATL@@@Z 000000014002b710 f   PickApiGui.obj
 0001:0002abd0       ?actionApiSelected@PickApiGui@@IEAAXXZ 000000014002bbd0 f   PickApiGui.obj
 0001:0002ac70       ?fillDllComboBox@PickApiGui@@IEAAXAEAV?$CComboBoxT@VCWindow@ATL@@@WTL@@@Z 000000014002bc70 f   PickApiGui.obj
 0001:0002ad40       ?fillApiListBox@PickApiGui@@IEAAXAEAV?$CListBoxT@VCWindow@ATL@@@WTL@@AEBV?$vector@PEAVApiInfo@@V?$allocator@PEAVApiInfo@@@std@@@std@@@Z 000000014002bd40 f   PickApiGui.obj
 0001:0002ae90       ??4?$vector@PEAVApiInfo@@V?$allocator@PEAVApiInfo@@@std@@@std@@QEAAAEAV01@AEBV01@@Z 000000014002be90 f i PickApiGui.obj
 0001:0002b010       ?DlgResize_Init@?$CDialogResize@VPickApiGui@@@WTL@@QEAAX_N0K@Z 000000014002c010 f i PickApiGui.obj
 0001:0002b3f0       ??1?$CA2WEX@$0IA@@ATL@@QEAA@XZ 000000014002c3f0 f i Logger.obj
 0001:0002b3f0       ??1?$CA2WEX@$0BAE@@ATL@@QEAA@XZ 000000014002c3f0 f i PickApiGui.obj
 0001:0002b410       ?_Buy@?$vector@PEAVApiInfo@@V?$allocator@PEAVApiInfo@@@std@@@std@@IEAA_N_K@Z 000000014002c410 f i PickApiGui.obj
 0001:0002b480       ?Init@?$CA2WEX@$0BAE@@ATL@@AEAAXPEBDI@Z 000000014002c480 f i PickApiGui.obj
 0001:0002b590       ??$swprintf_s@$05@@YAHAEAY05_WPEB_WZZ 000000014002c590 f i PickApiGui.obj
 0001:0002b5c0       ?ProcessWindowMessage@PickDllGui@@UEAAHPEAUHWND__@@I_K_JAEA_JK@Z 000000014002c5c0 f i PickDllGui.obj
 0001:0002b7c0       ?OnInitDialog@PickDllGui@@IEAAHVCWindow@ATL@@_J@Z 000000014002c7c0 f   PickDllGui.obj
 0001:0002b840       ?OnListDllDoubleClick@PickDllGui@@IEAA_JPEAUtagNMHDR@@@Z 000000014002c840 f   PickDllGui.obj
 0001:0002b900       ?OnOK@PickDllGui@@IEAAXIHVCWindow@ATL@@@Z 000000014002c900 f   PickDllGui.obj
 0001:0002b990       ?addColumnsToModuleList@PickDllGui@@IEAAXAEAV?$CListViewCtrlT@VCWindow@ATL@@@WTL@@@Z 000000014002c990 f   PickDllGui.obj
 0001:0002bac0       ?displayModuleList@PickDllGui@@IEAAXAEAV?$CListViewCtrlT@VCWindow@ATL@@@WTL@@@Z 000000014002cac0 f   PickDllGui.obj
 0001:0002bd80       ?listviewCompareFunc@PickDllGui@@KAH_J00@Z 000000014002cd80 f   PickDllGui.obj
 0001:0002be50       ?DlgResize_Init@?$CDialogResize@VPickDllGui@@@WTL@@QEAAX_N0K@Z 000000014002ce50 f i PickDllGui.obj
 0001:0002c230       ?Add@?$CSimpleArray@U_AtlDlgResizeData@?$CDialogResize@VPickApiGui@@@WTL@@V?$CSimpleArrayEqualHelper@U_AtlDlgResizeData@?$CDialogResize@VPickApiGui@@@WTL@@@ATL@@@ATL@@QEAAHAEBU_AtlDlgResizeData@?$CDialogResize@VPickApiGui@@@WTL@@@Z 000000014002d230 f i PickApiGui.obj
 0001:0002c230       ?Add@?$CSimpleArray@U_AtlDlgResizeData@?$CDialogResize@VPickDllGui@@@WTL@@V?$CSimpleArrayEqualHelper@U_AtlDlgResizeData@?$CDialogResize@VPickDllGui@@@WTL@@@ATL@@@ATL@@QEAAHAEBU_AtlDlgResizeData@?$CDialogResize@VPickDllGui@@@WTL@@@Z 000000014002d230 f i PickDllGui.obj
 0001:0002c230       ?Add@?$CSimpleArray@U_AtlDlgResizeData@?$CDialogResize@VMainGui@@@WTL@@V?$CSimpleArrayEqualHelper@U_AtlDlgResizeData@?$CDialogResize@VMainGui@@@WTL@@@ATL@@@ATL@@QEAAHAEBU_AtlDlgResizeData@?$CDialogResize@VMainGui@@@WTL@@@Z 000000014002d230 f i MainGui.obj
 0001:0002c230       ?Add@?$CSimpleArray@U_AtlDlgResizeData@?$CDialogResize@VDisassemblerGui@@@WTL@@V?$CSimpleArrayEqualHelper@U_AtlDlgResizeData@?$CDialogResize@VDisassemblerGui@@@WTL@@@ATL@@@ATL@@QEAAHAEBU_AtlDlgResizeData@?$CDialogResize@VDisassemblerGui@@@WTL@@@Z 000000014002d230 f i DisassemblerGui.obj
 0001:0002c230       ?Add@?$CSimpleArray@U_AtlDlgResizeData@?$CDialogResize@VDumpMemoryGui@@@WTL@@V?$CSimpleArrayEqualHelper@U_AtlDlgResizeData@?$CDialogResize@VDumpMemoryGui@@@WTL@@@ATL@@@ATL@@QEAAHAEBU_AtlDlgResizeData@?$CDialogResize@VDumpMemoryGui@@@WTL@@@Z 000000014002d230 f i DumpMemoryGui.obj
 0001:0002c230       ?Add@?$CSimpleArray@U_AtlDlgResizeData@?$CDialogResize@VDumpSectionGui@@@WTL@@V?$CSimpleArrayEqualHelper@U_AtlDlgResizeData@?$CDialogResize@VDumpSectionGui@@@WTL@@@ATL@@@ATL@@QEAAHAEBU_AtlDlgResizeData@?$CDialogResize@VDumpSectionGui@@@WTL@@@Z 000000014002d230 f i DumpSectionGui.obj
 0001:0002c310       ?searchForPlugin@PluginLoader@@AEAA_NAEAV?$vector@VPlugin@@V?$allocator@VPlugin@@@std@@@std@@PEB_W_N@Z 000000014002d310 f   PluginLoader.obj
 0001:0002c440       ?getScyllaPluginName@PluginLoader@@AEAA_NPEAVPlugin@@@Z 000000014002d440 f   PluginLoader.obj
 0001:0002c530       ?buildSearchString@PluginLoader@@AEAA_NXZ 000000014002d530 f   PluginLoader.obj
 0001:0002c5e0       ?isValidDllFile@PluginLoader@@CA_NPEB_W@Z 000000014002d5e0 f   PluginLoader.obj
 0001:0002c6e0       ?push_back@?$vector@VPlugin@@V?$allocator@VPlugin@@@std@@@std@@QEAAXAEBVPlugin@@@Z 000000014002d6e0 f i PluginLoader.obj
 0001:0002c780       ?clear@?$vector@VPlugin@@V?$allocator@VPlugin@@@std@@@std@@QEAAXXZ 000000014002d780 f i PluginLoader.obj
 0001:0002c7f0       ?_Reserve@?$vector@VPlugin@@V?$allocator@VPlugin@@@std@@@std@@IEAAX_K@Z 000000014002d7f0 f i PluginLoader.obj
 0001:0002c8b0       ?reserve@?$vector@VPlugin@@V?$allocator@VPlugin@@@std@@@std@@QEAAX_K@Z 000000014002d8b0 f i PluginLoader.obj
 0001:0002c9f0       ??$_Uninit_move@PEAVPlugin@@PEAV1@V?$allocator@VPlugin@@@std@@V1@@std@@YAPEAVPlugin@@PEAV1@00AEAV?$allocator@VPlugin@@@0@0U_Nonscalar_ptr_iterator_tag@0@@Z 000000014002d9f0 f i PluginLoader.obj
 0001:0002ca50       ?openProcessHandle@ProcessAccessHelp@@SA_NK@Z 000000014002da50 f   ProcessAccessHelp.obj
 0001:0002cae0       ?readMemoryPartlyFromProcess@ProcessAccessHelp@@SA_N_K0PEAX@Z 000000014002dae0 f   ProcessAccessHelp.obj
 0001:0002ccb0       ?readMemoryFromProcess@ProcessAccessHelp@@SA_N_K0PEAX@Z 000000014002dcb0 f   ProcessAccessHelp.obj
 0001:0002cdb0       ?decomposeMemory@ProcessAccessHelp@@SA_NPEAE_K1@Z 000000014002ddb0 f   ProcessAccessHelp.obj
 0001:0002ce30       ?getFileSize@ProcessAccessHelp@@SA_JPEB_W@Z 000000014002de30 f   ProcessAccessHelp.obj
 0001:0002cec0       ?writeMemoryToFile@ProcessAccessHelp@@SA_NPEAXJKPEBX@Z 000000014002dec0 f   ProcessAccessHelp.obj
 0001:0002cf60       ?createFileMappingView@ProcessAccessHelp@@SAPEAXPEB_WKKK@Z 000000014002df60 f   ProcessAccessHelp.obj
 0001:0002d040       ?getProcessModules@ProcessAccessHelp@@SA_NPEAXAEAV?$vector@VModuleInfo@@V?$allocator@VModuleInfo@@@std@@@std@@@Z 000000014002e040 f   ProcessAccessHelp.obj
 0001:0002d390       ?getSizeOfImageProcess@ProcessAccessHelp@@SA_KPEAX_K@Z 000000014002e390 f   ProcessAccessHelp.obj
 0001:0002d510       ?getEntryPointFromFile@ProcessAccessHelp@@SAKPEB_W@Z 000000014002e510 f   ProcessAccessHelp.obj
 0001:0002d610       ?reserve@?$vector@VModuleInfo@@V?$allocator@VModuleInfo@@@std@@@std@@QEAAX_K@Z 000000014002e610 f i ProcessAccessHelp.obj
 0001:0002d760       ?push_back@?$vector@VModuleInfo@@V?$allocator@VModuleInfo@@@std@@@std@@QEAAXAEBVModuleInfo@@@Z 000000014002e760 f i ProcessAccessHelp.obj
 0001:0002d820       ?erase@?$vector@VModuleInfo@@V?$allocator@VModuleInfo@@@std@@@std@@QEAA?AV?$_Vector_iterator@V?$_Vector_val@VModuleInfo@@V?$allocator@VModuleInfo@@@std@@@std@@@2@V?$_Vector_const_iterator@V?$_Vector_val@VModuleInfo@@V?$allocator@VModuleInfo@@@std@@@std@@@2@0@Z 000000014002e820 f i ProcessAccessHelp.obj
 0001:0002d8e0       ?_Destroy@?$vector@VModuleInfo@@V?$allocator@VModuleInfo@@@std@@@std@@IEAAXPEAVModuleInfo@@0@Z 000000014002e8e0 f i ProcessAccessHelp.obj
 0001:0002d940       ?_Reserve@?$vector@VModuleInfo@@V?$allocator@VModuleInfo@@@std@@@std@@IEAAX_K@Z 000000014002e940 f i ProcessAccessHelp.obj
 0001:0002da00       ??$_Move@PEAVModuleInfo@@PEAV1@@std@@YAPEAVModuleInfo@@PEAV1@00U_Nonscalar_ptr_iterator_tag@0@@Z 000000014002ea00 f i ProcessAccessHelp.obj
 0001:0002dad0       ??0ModuleInfo@@QEAA@AEBV0@@Z 000000014002ead0 f i ProcessAccessHelp.obj
 0001:0002db50       ??0?$vector@PEAVApiInfo@@V?$allocator@PEAVApiInfo@@@std@@@std@@QEAA@AEBV01@@Z 000000014002eb50 f i ProcessAccessHelp.obj
 0001:0002dc00       ??$_Uninit_move@PEAVModuleInfo@@PEAV1@V?$allocator@VModuleInfo@@@std@@V1@@std@@YAPEAVModuleInfo@@PEAV1@00AEAV?$allocator@VModuleInfo@@@0@0U_Nonscalar_ptr_iterator_tag@0@@Z 000000014002ec00 f i ProcessAccessHelp.obj
 0001:0002dcc0       ??1ModuleInfo@@QEAA@XZ     000000014002ecc0 f i ProcessAccessHelp.obj
 0001:0002dcc0       ??$_Dest_val@V?$allocator@VModuleInfo@@@std@@VModuleInfo@@@std@@YAXAEAV?$allocator@VModuleInfo@@@0@PEAVModuleInfo@@@Z 000000014002ecc0 f i ProcessAccessHelp.obj
 0001:0002dd00       ??$_Uninit_copy@V?$_Vector_const_iterator@V?$_Vector_val@PEAVApiInfo@@V?$allocator@PEAVApiInfo@@@std@@@std@@@std@@PEAPEAVApiInfo@@V?$allocator@PEAVApiInfo@@@2@@std@@YAPEAPEAVApiInfo@@V?$_Vector_const_iterator@V?$_Vector_val@PEAVApiInfo@@V?$allocator@PEAVApiInfo@@@std@@@std@@@0@0PEAPEAV1@AEAV?$allocator@PEAVApiInfo@@@0@U_Nonscalar_ptr_iterator_tag@0@@Z 000000014002ed00 f i ProcessAccessHelp.obj
 0001:0002dd40       ?setDebugPrivileges@ProcessLister@@SAKXZ 000000014002ed40 f   ProcessLister.obj
 0001:0002de20       ?getAbsoluteFilePath@ProcessLister@@AEAA_NPEAXPEAVProcess@@@Z 000000014002ee20 f   ProcessLister.obj
 0001:0002df00       ?getProcessListSnapshotNative@ProcessLister@@QEAAAEAV?$vector@VProcess@@V?$allocator@VProcess@@@std@@@std@@XZ 000000014002ef00 f   ProcessLister.obj
 0001:0002e000       ?handleProcessInformationAndAddToList@ProcessLister@@AEAAXPEAU_SYSTEM_PROCESS_INFORMATION@@@Z 000000014002f000 f   ProcessLister.obj
 0001:0002e250       ?getPebAddressFromProcess@ProcessLister@@AEAA_KPEAX@Z 000000014002f250 f   ProcessLister.obj
 0001:0002e320       ?reserve@?$vector@VProcess@@V?$allocator@VProcess@@@std@@@std@@QEAAX_K@Z 000000014002f320 f i ProcessLister.obj
 0001:0002e480       ?_Reserve@?$vector@VProcess@@V?$allocator@VProcess@@@std@@@std@@IEAAX_K@Z 000000014002f480 f i ProcessLister.obj
 0001:0002e540       ??$_Reverse@PEAVProcess@@@std@@YAXPEAVProcess@@0Ubidirectional_iterator_tag@0@@Z 000000014002f540 f i ProcessLister.obj
 0001:0002e5d0       ??$_Uninit_move@PEAVProcess@@PEAV1@V?$allocator@VProcess@@@std@@V1@@std@@YAPEAVProcess@@PEAV1@00AEAV?$allocator@VProcess@@@0@0U_Nonscalar_ptr_iterator_tag@0@@Z 000000014002f5d0 f i ProcessLister.obj
 0001:0002e630       ?initAsGuiApp@Scylla@@SAXXZ 000000014002f630 f   Scylla.obj
 0001:0002e6e0       ?ToASCII@StringConversion@@SAPEBDPEB_WPEAD_K@Z 000000014002f6e0 f   StringConversion.obj
 0001:0002e780       ?ToUTF16@StringConversion@@SAPEB_WPEBDPEA_W_K@Z 000000014002f780 f   StringConversion.obj
 0001:0002e820       ?Init@?$CW2AEX@$0IA@@ATL@@AEAAXPEB_WI@Z 000000014002f820 f i StringConversion.obj
 0001:0002e950       ??$AtlConvAllocMemory@D@ATL@@YAXPEAPEADHPEADH@Z 000000014002f950 f i StringConversion.obj
 0001:0002ea00       ?getSystemInformation@SystemInformation@@SA_NXZ 000000014002fa00 f   SystemInformation.obj
 0001:0002ebf0       ??1TiXmlString@@QEAA@XZ    000000014002fbf0 f i TreeImportExport.obj
 0001:0002ec10       ?Release@CRegObject@ATL@@UEAAKXZ 000000014002fc10 f i main.obj
 0001:0002ec10       ?ToDocument@TiXmlNode@@UEBAPEBVTiXmlDocument@@XZ 000000014002fc10 f i tinyxml:tinyxml.obj
 0001:0002ec10       ?ToComment@TiXmlNode@@UEBAPEBVTiXmlComment@@XZ 000000014002fc10 f i TreeImportExport.obj
 0001:0002ec10       ?ToText@TiXmlNode@@UEBAPEBVTiXmlText@@XZ 000000014002fc10 f i TreeImportExport.obj
 0001:0002ec10       ?ToComment@TiXmlNode@@UEAAPEAVTiXmlComment@@XZ 000000014002fc10 f i TreeImportExport.obj
 0001:0002ec10       ?ToText@TiXmlNode@@UEAAPEAVTiXmlText@@XZ 000000014002fc10 f i TreeImportExport.obj
 0001:0002ec10       ?ToElement@TiXmlNode@@UEBAPEBVTiXmlElement@@XZ 000000014002fc10 f i TreeImportExport.obj
 0001:0002ec10       ?ToDeclaration@TiXmlNode@@UEAAPEAVTiXmlDeclaration@@XZ 000000014002fc10 f i TreeImportExport.obj
 0001:0002ec10       ?ToElement@TiXmlNode@@UEAAPEAVTiXmlElement@@XZ 000000014002fc10 f i TreeImportExport.obj
 0001:0002ec10       ?ToDeclaration@TiXmlNode@@UEBAPEBVTiXmlDeclaration@@XZ 000000014002fc10 f i TreeImportExport.obj
 0001:0002ec10       ?ToUnknown@TiXmlNode@@UEAAPEAVTiXmlUnknown@@XZ 000000014002fc10 f i TreeImportExport.obj
 0001:0002ec10       ?ToDocument@TiXmlNode@@UEAAPEAVTiXmlDocument@@XZ 000000014002fc10 f i tinyxml:tinyxml.obj
 0001:0002ec10       ?ToUnknown@TiXmlNode@@UEBAPEBVTiXmlUnknown@@XZ 000000014002fc10 f i TreeImportExport.obj
 0001:0002ec20       ??1TiXmlDocument@@UEAA@XZ  000000014002fc20 f i TreeImportExport.obj
 0001:0002ec60       ??_GTiXmlDocument@@UEAAPEAXI@Z 000000014002fc60 f i TreeImportExport.obj
 0001:0002ec60       ??_ETiXmlDocument@@UEAAPEAXI@Z 000000014002fc60 f i  CIL library: CIL module
 0001:0002ecc0       ?exportTreeList@TreeImportExport@@QEAA_NAEBV?$map@_KVImportModuleThunk@@U?$less@_K@std@@V?$allocator@U?$pair@$$CB_KVImportModuleThunk@@@std@@@3@@std@@PEBVProcess@@_K2K@Z 000000014002fcc0 f   TreeImportExport.obj
 0001:0002ee40       ?importTreeList@TreeImportExport@@QEAA_NAEAV?$map@_KVImportModuleThunk@@U?$less@_K@std@@V?$allocator@U?$pair@$$CB_KVImportModuleThunk@@@std@@@3@@std@@PEA_K1PEAK@Z 000000014002fe40 f   TreeImportExport.obj
 0001:0002f050       ?setTargetInformation@TreeImportExport@@AEAAXPEAVTiXmlElement@@PEBVProcess@@_K2K@Z 0000000140030050 f   TreeImportExport.obj
 0001:0002f110       ?addModuleListToRootElement@TreeImportExport@@AEAAXPEAVTiXmlElement@@AEBV?$map@_KVImportModuleThunk@@U?$less@_K@std@@V?$allocator@U?$pair@$$CB_KVImportModuleThunk@@@std@@@3@@std@@@Z 0000000140030110 f   TreeImportExport.obj
 0001:0002f2a0       ?getModuleXmlElement@TreeImportExport@@AEAAPEAVTiXmlElement@@PEBVImportModuleThunk@@@Z 00000001400302a0 f   TreeImportExport.obj
 0001:0002f370       ?getImportXmlElement@TreeImportExport@@AEAAPEAVTiXmlElement@@PEBVImportThunk@@@Z 0000000140030370 f   TreeImportExport.obj
 0001:0002f530       ?parseAllElementModules@TreeImportExport@@AEAAXPEAVTiXmlElement@@AEAV?$map@_KVImportModuleThunk@@U?$less@_K@std@@V?$allocator@U?$pair@$$CB_KVImportModuleThunk@@@std@@@3@@std@@@Z 0000000140030530 f   TreeImportExport.obj
 0001:0002f750       ?parseAllElementImports@TreeImportExport@@AEAAXPEAVTiXmlElement@@PEAVImportModuleThunk@@@Z 0000000140030750 f   TreeImportExport.obj
 0001:0002f960       ??$sprintf_s@$0BAE@@@YAHAEAY0BAE@DPEBDZZ 0000000140030960 f i TreeImportExport.obj
 0001:0002f990       distorm_decompose64        0000000140030990 f   diStorm:distorm.obj
 0001:0002fd70       distorm_format64           0000000140030d70 f   diStorm:distorm.obj
 0001:00030460       distorm_decode64           0000000140031460 f   diStorm:distorm.obj
 0001:00030d00       decode_internal            0000000140031d00 f   diStorm:decoder.obj
 0001:00031140       strclear_WS                0000000140032140 f   diStorm:wstring.obj
 0001:00031150       chrcat_WS                  0000000140032150 f   diStorm:wstring.obj
 0001:00031170       strcpylen_WS               0000000140032170 f   diStorm:wstring.obj
 0001:00031180       strcatlen_WS               0000000140032180 f   diStorm:wstring.obj
 0001:000311b0       strcat_WS                  00000001400321b0 f   diStorm:wstring.obj
 0001:000311f0       str_hex_b                  00000001400321f0 f   diStorm:textdefs.obj
 0001:00031220       str_code_hb                0000000140032220 f   diStorm:textdefs.obj
 0001:00031270       str_code_hdw               0000000140032270 f   diStorm:textdefs.obj
 0001:00031300       str_code_hqw               0000000140032300 f   diStorm:textdefs.obj
 0001:000313e0       str_off64                  00000001400323e0 f   diStorm:textdefs.obj
 0001:00031bc0       operands_extract           0000000140032bc0 f   diStorm:operands.obj
 0001:00032f30       prefixes_is_valid          0000000140033f30 f   diStorm:prefix.obj
 0001:00033050       prefixes_ignore            0000000140034050 f   diStorm:prefix.obj
 0001:00033070       prefixes_ignore_all        0000000140034070 f   diStorm:prefix.obj
 0001:000330a0       prefixes_set_unused_mask   00000001400340a0 f   diStorm:prefix.obj
 0001:00033140       prefixes_decode            0000000140034140 f   diStorm:prefix.obj
 0001:000334b0       prefixes_use_segment       00000001400344b0 f   diStorm:prefix.obj
 0001:00033930       inst_lookup                0000000140034930 f   diStorm:instructions.obj
 0001:00033db0       inst_lookup_3dnow          0000000140034db0 f   diStorm:instructions.obj
 0001:00033e30       ?reserve@TiXmlString@@QEAAX_K@Z 0000000140034e30 f   tinyxml:tinystr.obj
 0001:00033ee0       ?assign@TiXmlString@@QEAAAEAV1@PEBD_K@Z 0000000140034ee0 f   tinyxml:tinystr.obj
 0001:00033fc0       ?append@TiXmlString@@QEAAAEAV1@PEBD_K@Z 0000000140034fc0 f   tinyxml:tinystr.obj
 0001:00034040       ??1TiXmlBase@@UEAA@XZ      0000000140035040 f i tinyxml:tinyxml.obj
 0001:00034050       ??_ETiXmlBase@@UEAAPEAXI@Z 0000000140035050 f i tinyxml:tinyxml.obj
 0001:00034050       ??_GTiXmlBase@@UEAAPEAXI@Z 0000000140035050 f i tinyxml:tinyxml.obj
 0001:00034080       ?CopyTo@TiXmlNode@@IEBAXPEAV1@@Z 0000000140035080 f   tinyxml:tinyxml.obj
 0001:000340e0       ?Clear@TiXmlNode@@QEAAXXZ  00000001400350e0 f   tinyxml:tinyxml.obj
 0001:00034140       ?FirstChildElement@TiXmlNode@@QEBAPEBVTiXmlElement@@XZ 0000000140035140 f   tinyxml:tinyxml.obj
 0001:00034180       ?NextSiblingElement@TiXmlNode@@QEBAPEBVTiXmlElement@@XZ 0000000140035180 f   tinyxml:tinyxml.obj
 0001:000341c0       ?GetDocument@TiXmlNode@@QEBAPEBVTiXmlDocument@@XZ 00000001400351c0 f   tinyxml:tinyxml.obj
 0001:00034200       ?Accept@TiXmlElement@@UEBA_NPEAVTiXmlVisitor@@@Z 0000000140035200 f   tinyxml:tinyxml.obj
 0001:00034280       ?LoadFile@TiXmlDocument@@QEAA_NPEAU_iobuf@@W4TiXmlEncoding@@@Z 0000000140035280 f   tinyxml:tinyxml.obj
 0001:000343f0       ?Print@TiXmlDocument@@UEBAXPEAU_iobuf@@H@Z 00000001400353f0 f   tinyxml:tinyxml.obj
 0001:00034450       ?Accept@TiXmlDocument@@UEBA_NPEAVTiXmlVisitor@@@Z 0000000140035450 f   tinyxml:tinyxml.obj
 0001:000344c0       ?Next@TiXmlAttribute@@QEBAPEBV1@XZ 00000001400354c0 f   tinyxml:tinyxml.obj
 0001:000344e0       ?Print@TiXmlComment@@UEBAXPEAU_iobuf@@H@Z 00000001400354e0 f   tinyxml:tinyxml.obj
 0001:00034540       ?CopyTo@TiXmlComment@@IEBAXPEAV1@@Z 0000000140035540 f   tinyxml:tinyxml.obj
 0001:00034540       ?CopyTo@TiXmlUnknown@@IEBAXPEAV1@@Z 0000000140035540 f   tinyxml:tinyxml.obj
 0001:00034550       ?Accept@TiXmlComment@@UEBA_NPEAVTiXmlVisitor@@@Z 0000000140035550 f   tinyxml:tinyxml.obj
 0001:00034560       ?CopyTo@TiXmlText@@IEBAXPEAV1@@Z 0000000140035560 f   tinyxml:tinyxml.obj
 0001:00034590       ?Accept@TiXmlText@@UEBA_NPEAVTiXmlVisitor@@@Z 0000000140035590 f   tinyxml:tinyxml.obj
 0001:000345a0       ?Accept@TiXmlDeclaration@@UEBA_NPEAVTiXmlVisitor@@@Z 00000001400355a0 f   tinyxml:tinyxml.obj
 0001:000345b0       ?Print@TiXmlUnknown@@UEBAXPEAU_iobuf@@H@Z 00000001400355b0 f   tinyxml:tinyxml.obj
 0001:00034610       ?Accept@TiXmlUnknown@@UEBA_NPEAVTiXmlVisitor@@@Z 0000000140035610 f   tinyxml:tinyxml.obj
 0001:00034620       ?Add@TiXmlAttributeSet@@QEAAXPEAVTiXmlAttribute@@@Z 0000000140035620 f   tinyxml:tinyxml.obj
 0001:00034640       ?Remove@TiXmlAttributeSet@@QEAAXPEAVTiXmlAttribute@@@Z 0000000140035640 f   tinyxml:tinyxml.obj
 0001:00034690       ?Find@TiXmlAttributeSet@@QEBAPEAVTiXmlAttribute@@PEBD@Z 0000000140035690 f   tinyxml:tinyxml.obj
 0001:000346e0       ??$_snprintf_s@$0CA@@@YAHAEAY0CA@D_KPEBDZZ 00000001400356e0 f i tinyxml:tinyxml.obj
 0001:00034710       ??1TiXmlAttribute@@UEAA@XZ 0000000140035710 f i tinyxml:tinyxml.obj
 0001:00034710       ??1TiXmlAttributeSet@@QEAA@XZ 0000000140035710 f i tinyxml:tinyxml.obj
 0001:00034770       ?EncodeString@TiXmlBase@@SAXAEBVTiXmlString@@PEAV2@@Z 0000000140035770 f   tinyxml:tinyxml.obj
 0001:00034910       ??0TiXmlNode@@IEAA@W4NodeType@0@@Z 0000000140035910 f   tinyxml:tinyxml.obj
 0001:00034950       ??1TiXmlNode@@UEAA@XZ      0000000140035950 f   tinyxml:tinyxml.obj
 0001:000349d0       ?LinkEndChild@TiXmlNode@@QEAAPEAV1@PEAV1@@Z 00000001400359d0 f   tinyxml:tinyxml.obj
 0001:00034a70       ?ClearThis@TiXmlElement@@IEAAXXZ 0000000140035a70 f   tinyxml:tinyxml.obj
 0001:00034ac0       ?Attribute@TiXmlElement@@QEBAPEBDPEBD@Z 0000000140035ac0 f   tinyxml:tinyxml.obj
 0001:00034af0       ?Print@TiXmlElement@@UEBAXPEAU_iobuf@@H@Z 0000000140035af0 f   tinyxml:tinyxml.obj
 0001:00034ca0       ??0TiXmlDocument@@QEAA@XZ  0000000140035ca0 f   tinyxml:tinyxml.obj
 0001:00034d10       ?CopyTo@TiXmlDocument@@AEBAXPEAV1@@Z 0000000140035d10 f   tinyxml:tinyxml.obj
 0001:00034da0       ?Clone@TiXmlDocument@@MEBAPEAVTiXmlNode@@XZ 0000000140035da0 f   tinyxml:tinyxml.obj
 0001:00034e00       ?Print@TiXmlAttribute@@QEBAXPEAU_iobuf@@HPEAVTiXmlString@@@Z 0000000140035e00 f   tinyxml:tinyxml.obj
 0001:00034fc0       ?Print@TiXmlText@@UEBAXPEAU_iobuf@@H@Z 0000000140035fc0 f   tinyxml:tinyxml.obj
 0001:00035080       ??0TiXmlDeclaration@@QEAA@PEBD00@Z 0000000140036080 f   tinyxml:tinyxml.obj
 0001:00035160       ?Print@TiXmlDeclaration@@UEBAXPEAU_iobuf@@H@Z 0000000140036160 f i tinyxml:tinyxml.obj
 0001:00035170       ?Print@TiXmlDeclaration@@UEBAXPEAU_iobuf@@HPEAVTiXmlString@@@Z 0000000140036170 f   tinyxml:tinyxml.obj
 0001:00035320       ?CopyTo@TiXmlDeclaration@@IEBAXPEAV1@@Z 0000000140036320 f   tinyxml:tinyxml.obj
 0001:00035380       ??0TiXmlAttributeSet@@QEAA@XZ 0000000140036380 f   tinyxml:tinyxml.obj
 0001:000353c0       ?FindOrCreate@TiXmlAttributeSet@@QEAAPEAVTiXmlAttribute@@PEBD@Z 00000001400363c0 f   tinyxml:tinyxml.obj
 0001:00035470       ?Print@TiXmlAttribute@@UEBAXPEAU_iobuf@@H@Z 0000000140036470 f i tinyxml:tinyxml.obj
 0001:00035480       ??_GTiXmlAttribute@@UEAAPEAXI@Z 0000000140036480 f i tinyxml:tinyxml.obj
 0001:00035480       ??_ETiXmlAttribute@@UEAAPEAXI@Z 0000000140036480 f i tinyxml:tinyxml.obj
 0001:00035500       ??0TiXmlComment@@QEAA@XZ   0000000140036500 f i tinyxml:tinyxml.obj
 0001:00035520       ??_GTiXmlComment@@UEAAPEAXI@Z 0000000140036520 f i tinyxml:tinyxml.obj
 0001:00035520       ??_ETiXmlComment@@UEAAPEAXI@Z 0000000140036520 f i tinyxml:tinyxml.obj
 0001:00035560       ??0TiXmlText@@QEAA@PEBD@Z  0000000140036560 f i tinyxml:tinyxml.obj
 0001:000355d0       ?ToDeclaration@TiXmlDeclaration@@UEAAPEAV1@XZ 00000001400365d0 f i tinyxml:tinyxml.obj
 0001:000355d0       ?ToDocument@TiXmlDocument@@UEAAPEAV1@XZ 00000001400365d0 f i TreeImportExport.obj
 0001:000355d0       ?ToText@TiXmlText@@UEAAPEAV1@XZ 00000001400365d0 f i tinyxml:tinyxml.obj
 0001:000355d0       ?ToUnknown@TiXmlUnknown@@UEAAPEAV1@XZ 00000001400365d0 f i tinyxml:tinyxml.obj
 0001:000355d0       ?ToDeclaration@TiXmlDeclaration@@UEBAPEBV1@XZ 00000001400365d0 f i tinyxml:tinyxml.obj
 0001:000355d0       ?ToElement@TiXmlElement@@UEBAPEBV1@XZ 00000001400365d0 f i tinyxml:tinyxml.obj
 0001:000355d0       ?ToComment@TiXmlComment@@UEBAPEBV1@XZ 00000001400365d0 f i tinyxml:tinyxml.obj
 0001:000355d0       ?ToDocument@TiXmlDocument@@UEBAPEBV1@XZ 00000001400365d0 f i TreeImportExport.obj
 0001:000355d0       ?ToComment@TiXmlComment@@UEAAPEAV1@XZ 00000001400365d0 f i tinyxml:tinyxml.obj
 0001:000355d0       ?ToUnknown@TiXmlUnknown@@UEBAPEBV1@XZ 00000001400365d0 f i tinyxml:tinyxml.obj
 0001:000355d0       ?ToText@TiXmlText@@UEBAPEBV1@XZ 00000001400365d0 f i tinyxml:tinyxml.obj
 0001:000355d0       ?ToElement@TiXmlElement@@UEAAPEAV1@XZ 00000001400365d0 f i tinyxml:tinyxml.obj
 0001:000355e0       ??_GTiXmlText@@UEAAPEAXI@Z 00000001400365e0 f i tinyxml:tinyxml.obj
 0001:000355e0       ??_ETiXmlText@@UEAAPEAXI@Z 00000001400365e0 f i tinyxml:tinyxml.obj
 0001:00035620       ??0TiXmlDeclaration@@QEAA@XZ 0000000140036620 f i tinyxml:tinyxml.obj
 0001:00035660       ??1TiXmlDeclaration@@UEAA@XZ 0000000140036660 f i tinyxml:tinyxml.obj
 0001:000356d0       ??_ETiXmlDeclaration@@UEAAPEAXI@Z 00000001400366d0 f i tinyxml:tinyxml.obj
 0001:000356d0       ??_GTiXmlDeclaration@@UEAAPEAXI@Z 00000001400366d0 f i tinyxml:tinyxml.obj
 0001:00035700       ??0TiXmlUnknown@@QEAA@XZ   0000000140036700 f i tinyxml:tinyxml.obj
 0001:00035720       ??_ETiXmlUnknown@@UEAAPEAXI@Z 0000000140036720 f i tinyxml:tinyxml.obj
 0001:00035720       ??_GTiXmlUnknown@@UEAAPEAXI@Z 0000000140036720 f i tinyxml:tinyxml.obj
 0001:00035760       ??_ETiXmlNode@@UEAAPEAXI@Z 0000000140036760 f i tinyxml:tinyxml.obj
 0001:00035760       ??_GTiXmlNode@@UEAAPEAXI@Z 0000000140036760 f i tinyxml:tinyxml.obj
 0001:00035790       ??0TiXmlElement@@QEAA@PEBD@Z 0000000140036790 f   tinyxml:tinyxml.obj
 0001:00035810       ??1TiXmlElement@@UEAA@XZ   0000000140036810 f   tinyxml:tinyxml.obj
 0001:00035850       ?SetAttribute@TiXmlElement@@QEAAXPEBD0@Z 0000000140036850 f   tinyxml:tinyxml.obj
 0001:000358a0       ?CopyTo@TiXmlElement@@IEBAXPEAV1@@Z 00000001400368a0 f   tinyxml:tinyxml.obj
 0001:00035930       ?Clone@TiXmlElement@@UEBAPEAVTiXmlNode@@XZ 0000000140036930 f   tinyxml:tinyxml.obj
 0001:000359a0       ?Clone@TiXmlComment@@UEBAPEAVTiXmlNode@@XZ 00000001400369a0 f   tinyxml:tinyxml.obj
 0001:00035a00       ?Clone@TiXmlText@@MEBAPEAVTiXmlNode@@XZ 0000000140036a00 f   tinyxml:tinyxml.obj
 0001:00035a90       ?Clone@TiXmlDeclaration@@UEBAPEAVTiXmlNode@@XZ 0000000140036a90 f   tinyxml:tinyxml.obj
 0001:00035b00       ?Clone@TiXmlUnknown@@UEBAPEAVTiXmlNode@@XZ 0000000140036b00 f   tinyxml:tinyxml.obj
 0001:00035b60       ??_GTiXmlElement@@UEAAPEAXI@Z 0000000140036b60 f i tinyxml:tinyxml.obj
 0001:00035b60       ??_ETiXmlElement@@UEAAPEAXI@Z 0000000140036b60 f i tinyxml:tinyxml.obj
 0001:00035b90       ?IsWhiteSpace@TiXmlBase@@KA_ND@Z 0000000140036b90 f i tinyxml:tinyxmlparser.obj
 0001:00035bc0       ?ConvertUTF32ToUTF8@TiXmlBase@@KAXKPEADPEAH@Z 0000000140036bc0 f   tinyxml:tinyxmlparser.obj
 0001:00035cd0       ?IsAlpha@TiXmlBase@@KAHEW4TiXmlEncoding@@@Z 0000000140036cd0 f   tinyxml:tinyxmlparser.obj
 0001:00035cf0       ?IsAlphaNum@TiXmlBase@@KAHEW4TiXmlEncoding@@@Z 0000000140036cf0 f   tinyxml:tinyxmlparser.obj
 0001:00035d10       ?Stamp@TiXmlParsingData@@QEAAXPEBDW4TiXmlEncoding@@@Z 0000000140036d10 f   tinyxml:tinyxmlparser.obj
 0001:00035e60       ?SkipWhiteSpace@TiXmlBase@@KAPEBDPEBDW4TiXmlEncoding@@@Z 0000000140036e60 f   tinyxml:tinyxmlparser.obj
 0001:00035f40       ?ReadName@TiXmlBase@@KAPEBDPEBDPEAVTiXmlString@@W4TiXmlEncoding@@@Z 0000000140036f40 f   tinyxml:tinyxmlparser.obj
 0001:00036000       ?StringEqual@TiXmlBase@@KA_NPEBD0_NW4TiXmlEncoding@@@Z 0000000140037000 f   tinyxml:tinyxmlparser.obj
 0001:000360d0       ?SetError@TiXmlDocument@@QEAAXHPEBDPEAVTiXmlParsingData@@W4TiXmlEncoding@@@Z 00000001400370d0 f   tinyxml:tinyxmlparser.obj
 0001:00036170       ?Parse@TiXmlUnknown@@UEAAPEBDPEBDPEAVTiXmlParsingData@@W4TiXmlEncoding@@@Z 0000000140037170 f   tinyxml:tinyxmlparser.obj
 0001:00036280       ?Parse@TiXmlComment@@UEAAPEBDPEBDPEAVTiXmlParsingData@@W4TiXmlEncoding@@@Z 0000000140037280 f   tinyxml:tinyxmlparser.obj
 0001:000363a0       ?Blank@TiXmlText@@IEBA_NXZ 00000001400373a0 f   tinyxml:tinyxmlparser.obj
 0001:00036410       ?GetEntity@TiXmlBase@@KAPEBDPEBDPEADPEAHW4TiXmlEncoding@@@Z 0000000140037410 f   tinyxml:tinyxmlparser.obj
 0001:00036600       ?Identify@TiXmlNode@@IEAAPEAV1@PEBDW4TiXmlEncoding@@@Z 0000000140037600 f   tinyxml:tinyxmlparser.obj
 0001:000367d0       ?ReadValue@TiXmlElement@@IEAAPEBDPEBDPEAVTiXmlParsingData@@W4TiXmlEncoding@@@Z 00000001400377d0 f   tinyxml:tinyxmlparser.obj
 0001:00036980       ?ReadText@TiXmlBase@@KAPEBDPEBDPEAVTiXmlString@@_N02W4TiXmlEncoding@@@Z 0000000140037980 f   tinyxml:tinyxmlparser.obj
 0001:00036c70       ?Parse@TiXmlDocument@@UEAAPEBDPEBDPEAVTiXmlParsingData@@W4TiXmlEncoding@@@Z 0000000140037c70 f   tinyxml:tinyxmlparser.obj
 0001:00036e60       ?Parse@TiXmlElement@@UEAAPEBDPEBDPEAVTiXmlParsingData@@W4TiXmlEncoding@@@Z 0000000140037e60 f   tinyxml:tinyxmlparser.obj
 0001:000372b0       ?Parse@TiXmlAttribute@@UEAAPEBDPEBDPEAVTiXmlParsingData@@W4TiXmlEncoding@@@Z 00000001400382b0 f   tinyxml:tinyxmlparser.obj
 0001:000374b0       ?Parse@TiXmlText@@UEAAPEBDPEBDPEAVTiXmlParsingData@@W4TiXmlEncoding@@@Z 00000001400384b0 f   tinyxml:tinyxmlparser.obj
 0001:00037640       ?Parse@TiXmlDeclaration@@UEAAPEBDPEBDPEAVTiXmlParsingData@@W4TiXmlEncoding@@@Z 0000000140038640 f   tinyxml:tinyxmlparser.obj
 0001:00037a04       ??1CAtlBaseModule@ATL@@QEAA@XZ 0000000140038a04 f   atls:atlbase.obj
 0001:00037a38       ??0CAtlBaseModule@ATL@@QEAA@XZ 0000000140038a38 f   atls:atlbase.obj
 0001:00037ad0       ?__FreeStdCallThunk@ATL@@YAXPEAX@Z 0000000140038ad0 f   atls:atlthunk.obj
 0001:00037ae4       ?__AllocStdCallThunk_cmn@@YAPEAXXZ 0000000140038ae4 f   atls:atlthunk.obj
 0001:00037c08       ?__AllocStdCallThunk@ATL@@YAPEAXXZ 0000000140038c08 f   atls:atlthunk.obj
 0001:00037c10       ?Term@CAtlComModule@ATL@@QEAAXXZ 0000000140038c10 f i atls:atlcommodule.obj
 0001:00037c74       ??0CAtlComModule@ATL@@QEAA@XZ 0000000140038c74 f i atls:atlcommodule.obj
 0001:00037cfc       ?AtlWinModuleTerm@ATL@@YAJPEAU_ATL_WIN_MODULE70@1@PEAUHINSTANCE__@@@Z 0000000140038cfc f i atls:atlwinmodule.obj
 0001:00037db0       ??0CAtlWinModule@ATL@@QEAA@XZ 0000000140038db0 f i atls:atlwinmodule.obj
 0001:00037e24       ??1length_error@std@@UEAA@XZ 0000000140038e24 f i libcpmt:xthrow.obj
 0001:00037e24       ??1out_of_range@std@@UEAA@XZ 0000000140038e24 f i libcpmt:xthrow.obj
 0001:00037e2c       ??0logic_error@std@@QEAA@AEBV01@@Z 0000000140038e2c f i libcpmt:xthrow.obj
 0001:00037e50       ?_Xlength_error@std@@YAXPEBD@Z 0000000140038e50 f   libcpmt:xthrow.obj
 0001:00037e88       ??0length_error@std@@QEAA@AEBV01@@Z 0000000140038e88 f i libcpmt:xthrow.obj
 0001:00037eac       ?_Xout_of_range@std@@YAXPEBD@Z 0000000140038eac f   libcpmt:xthrow.obj
 0001:00037ee4       ??0out_of_range@std@@QEAA@AEBV01@@Z 0000000140038ee4 f i libcpmt:xthrow.obj
 0001:00037f08       ??_Elogic_error@std@@UEAAPEAXI@Z 0000000140038f08 f i libcpmt:xthrow.obj
 0001:00037f08       ??_Elength_error@std@@UEAAPEAXI@Z 0000000140038f08 f i libcpmt:xthrow.obj
 0001:00037f08       ??_Gout_of_range@std@@UEAAPEAXI@Z 0000000140038f08 f i libcpmt:xthrow.obj
 0001:00037f08       ??_Glogic_error@std@@UEAAPEAXI@Z 0000000140038f08 f i libcpmt:xthrow.obj
 0001:00037f08       ??_Glength_error@std@@UEAAPEAXI@Z 0000000140038f08 f i libcpmt:xthrow.obj
 0001:00037f08       ??_Eout_of_range@std@@UEAAPEAXI@Z 0000000140038f08 f i libcpmt:xthrow.obj
 0001:00037f38       ??_U@YAPEAX_K@Z            0000000140038f38 f   libcpmt:newaop.obj
 0001:00037f40       ??3@YAXPEAX@Z              0000000140038f40 f   LIBCMT:delete.obj
 0001:00037f60       __security_check_cookie    0000000140038f60 f   LIBCMT:amdsecgs.obj
 0001:00037f80       ??_V@YAXPEAX@Z             0000000140038f80 f   LIBCMT:delete2.obj
 0001:00037f88       ??_Etype_info@@UEAAPEAXI@Z 0000000140038f88 f i LIBCMT:typinfo.obj
 0001:00037f88       ??_Gtype_info@@UEAAPEAXI@Z 0000000140038f88 f i LIBCMT:typinfo.obj
 0001:00037fc4       ??8type_info@@QEBA_NAEBV0@@Z 0000000140038fc4 f   LIBCMT:typinfo.obj
 0001:00037fe4       wcscpy_s                   0000000140038fe4 f   LIBCMT:wcscpy_s.obj
 0001:00038050       ??0_LocaleUpdate@@QEAA@PEAUlocaleinfo_struct@@@Z 0000000140039050 f i LIBCMT:wcsicmp.obj
 0001:000380f4       _wcsicmp_l                 00000001400390f4 f   LIBCMT:wcsicmp.obj
 0001:000381f8       _wcsicmp                   00000001400391f8 f   LIBCMT:wcsicmp.obj
 0001:00038280       __ascii_strnicmp           0000000140039280 f   LIBCMT:strnicmp.obj
 0001:000382c8       _strnicmp_l                00000001400392c8 f   LIBCMT:strnicmp.obj
 0001:000383cc       _strnicmp                  00000001400393cc f   LIBCMT:strnicmp.obj
 0001:0003841c       ??0exception@std@@QEAA@AEBQEBDH@Z 000000014003941c f   LIBCMT:stdexcpt.obj
 0001:00038438       ?what@exception@std@@UEBAPEBDXZ 0000000140039438 f   LIBCMT:stdexcpt.obj
 0001:0003844c       ?_Copy_str@exception@std@@AEAAXPEBD@Z 000000014003944c f   LIBCMT:stdexcpt.obj
 0001:000384a8       ?_Tidy@exception@std@@AEAAXXZ 00000001400394a8 f   LIBCMT:stdexcpt.obj
 0001:000384d0       ??0exception@std@@QEAA@AEBQEBD@Z 00000001400394d0 f   LIBCMT:stdexcpt.obj
 0001:00038500       ??4exception@std@@QEAAAEAV01@AEBV01@@Z 0000000140039500 f   LIBCMT:stdexcpt.obj
 0001:00038544       ??1exception@std@@UEAA@XZ  0000000140039544 f   LIBCMT:stdexcpt.obj
 0001:00038554       ??_Eexception@std@@UEAAPEAXI@Z 0000000140039554 f i LIBCMT:stdexcpt.obj
 0001:00038554       ??_Gexception@std@@UEAAPEAXI@Z 0000000140039554 f i LIBCMT:stdexcpt.obj
 0001:00038590       ??0exception@std@@QEAA@AEBV01@@Z 0000000140039590 f   LIBCMT:stdexcpt.obj
 0001:000385d0       memcpy                     00000001400395d0 f   LIBCMT:memcpy.obj
 0001:000385d0       memmove                    00000001400395d0     LIBCMT:memcpy.obj
 0001:00038904       _wcsnicmp_l                0000000140039904 f   LIBCMT:wcsnicmp.obj
 0001:00038a1c       _wcsnicmp                  0000000140039a1c f   LIBCMT:wcsnicmp.obj
 0001:00038ab4       strchr                     0000000140039ab4 f   LIBCMT:strchr.obj
 0001:00038ad0       atoi                       0000000140039ad0 f   LIBCMT:atox.obj
 0001:00038adc       __onexitinit               0000000140039adc f   LIBCMT:onexit.obj
 0001:00038b20       _onexit                    0000000140039b20 f   LIBCMT:onexit.obj
 0001:00038c2c       atexit                     0000000140039c2c f   LIBCMT:onexit.obj
 0001:00038c44       wcsrchr                    0000000140039c44 f   LIBCMT:wcsrchr.obj
 0001:00038c70       wcsstr                     0000000140039c70 f   LIBCMT:wcsstr.obj
 0001:00038cd4       strcpy_s                   0000000140039cd4 f   LIBCMT:strcpy_s.obj
 0001:00038d38       strrchr                    0000000140039d38 f   LIBCMT:strrchr.obj
 0001:00038d60       ldiv                       0000000140039d60 f   LIBCMT:ldiv.obj
 0001:00038d78       strcat_s                   0000000140039d78 f   LIBCMT:strcat_s.obj
 0001:00038df4       strncpy_s                  0000000140039df4 f   LIBCMT:strncpy_s.obj
 0001:00038eb4       ??2@YAPEAX_K@Z             0000000140039eb4 f   LIBCMT:new.obj
 0001:00038f58       wcsncpy_s                  0000000140039f58 f   LIBCMT:wcsncpy_s.obj
 0001:00039028       _vswprintf_helper          000000014003a028 f   LIBCMT:vswprnc.obj
 0001:00039144       _vswprintf_s_l             000000014003a144 f   LIBCMT:vswprnc.obj
 0001:000391c0       vswprintf_s                000000014003a1c0 f   LIBCMT:vswprnc.obj
 0001:000391d8       _vsnwprintf_s_l            000000014003a1d8 f   LIBCMT:vswprnc.obj
 0001:00039328       _vsnwprintf_s              000000014003a328 f   LIBCMT:vswprnc.obj
 0001:000395cc       _wcstoui64                 000000014003a5cc f   LIBCMT:wcstoq.obj
 0001:00039600       free                       000000014003a600 f   LIBCMT:free.obj
 0001:00039640       malloc                     000000014003a640 f   LIBCMT:malloc.obj
 0001:000396f8       wcscat_s                   000000014003a6f8 f   LIBCMT:wcscat_s.obj
 0001:00039780       _towupper_l                000000014003a780 f   LIBCMT:towupper.obj
 0001:0003985c       towupper                   000000014003a85c f   LIBCMT:towupper.obj
 0001:00039864       _recalloc                  000000014003a864 f   LIBCMT:recalloc.obj
 0001:000398ec       _isleadbyte_l              000000014003a8ec f i LIBCMT:_wctype.obj
 0001:00039934       isleadbyte                 000000014003a934 f i LIBCMT:_wctype.obj
 0001:0003997c       iswprint                   000000014003a97c f i LIBCMT:_wctype.obj
 0001:00039988       calloc                     000000014003a988 f   LIBCMT:calloc.obj
 0001:000399cc       _wfsopen                   000000014003a9cc f   LIBCMT:wfopen.obj
 0001:00039aac       _wfopen_s                  000000014003aaac f   LIBCMT:wfopen.obj
 0001:00039b00       _vsnprintf_helper          000000014003ab00 f   LIBCMT:vsnprnc.obj
 0001:00039be8       _vsprintf_s_l              000000014003abe8 f   LIBCMT:vsnprnc.obj
 0001:00039c58       vsprintf_s                 000000014003ac58 f   LIBCMT:vsnprnc.obj
 0001:00039c70       _vsnprintf_s_l             000000014003ac70 f   LIBCMT:vsnprnc.obj
 0001:00039db8       _vsnprintf_s               000000014003adb8 f   LIBCMT:vsnprnc.obj
 0001:00039dd8       fputs                      000000014003add8 f   LIBCMT:fputs.obj
 0001:00039f0c       _purecall                  000000014003af0c f   LIBCMT:purevirt.obj
 0001:00039f44       fputws                     000000014003af44 f   LIBCMT:fputws.obj
 0001:00039ffc       _fclose_nolock             000000014003affc f   LIBCMT:fclose.obj
 0001:0003a078       fclose                     000000014003b078 f   LIBCMT:fclose.obj
 0001:0003a0e0       swprintf_s                 000000014003b0e0 f   LIBCMT:swprintf.obj
 0001:0003a104       memcpy_s                   000000014003b104 f   LIBCMT:memcpy_s.obj
 0001:0003a18c       memmove_s                  000000014003b18c f   LIBCMT:memmove_s.obj
 0001:0003a448       _strtoi64                  000000014003b448 f   LIBCMT:strtoq.obj
 0001:0003a6e4       strtol                     000000014003b6e4 f   LIBCMT:strtol.obj
 0001:0003a714       strtoul                    000000014003b714 f   LIBCMT:strtol.obj
 0001:0003a8e4       wWinMainCRTStartup         000000014003b8e4 f   LIBCMT:wwincrt0.obj
 0001:0003a8f8       __GSHandlerCheckCommon     000000014003b8f8 f   LIBCMT:gshandler.obj
 0001:0003a95c       __GSHandlerCheck           000000014003b95c f   LIBCMT:gshandler.obj
 0001:0003a97c       ?_GetEstablisherFrame@@YAPEA_KPEA_KPEAU_xDISPATCHER_CONTEXT@@PEBU_s_FuncInfo@@0@Z 000000014003b97c f   LIBCMT:trnsctrl.obj
 0001:0003aa68       _GetImageBase              000000014003ba68 f   LIBCMT:trnsctrl.obj
 0001:0003aa80       _GetThrowImageBase         000000014003ba80 f   LIBCMT:trnsctrl.obj
 0001:0003aa98       _SetImageBase              000000014003ba98 f   LIBCMT:trnsctrl.obj
 0001:0003aab4       _SetThrowImageBase         000000014003bab4 f   LIBCMT:trnsctrl.obj
 0001:0003aad0       ?__FrameUnwindToEmptyState@@YAXPEA_KPEAU_xDISPATCHER_CONTEXT@@PEBU_s_FuncInfo@@@Z 000000014003bad0 f   LIBCMT:trnsctrl.obj
 0001:0003ab7c       __CxxFrameHandler3         000000014003bb7c f   LIBCMT:trnsctrl.obj
 0001:0003ac04       ?__SehTransFilter@@YAHPEAU_EXCEPTION_POINTERS@@PEAUEHExceptionRecord@@PEA_KPEAU_CONTEXT@@PEAU_xDISPATCHER_CONTEXT@@PEBU_s_FuncInfo@@PEAH@Z 000000014003bc04 f   LIBCMT:trnsctrl.obj
 0001:0003aca8       _CallSETranslator          000000014003bca8 f   LIBCMT:trnsctrl.obj
 0001:0003acfc       ?_GetRangeOfTrysToCheck@@YAPEBU_s_TryBlockMapEntry@@PEA_KPEBU_s_FuncInfo@@HHPEAI2PEAU_xDISPATCHER_CONTEXT@@@Z 000000014003bcfc f   LIBCMT:trnsctrl.obj
 0001:0003ae28       _CreateFrameInfo           000000014003be28 f   LIBCMT:trnsctrl.obj
 0001:0003ae6c       _IsExceptionObjectToBeDestroyed 000000014003be6c f   LIBCMT:trnsctrl.obj
 0001:0003aea0       _FindAndUnlinkFrame        000000014003bea0 f   LIBCMT:trnsctrl.obj
 0001:0003af00       _UnwindNestedFrames        000000014003bf00 f   LIBCMT:trnsctrl.obj
 0001:0003aff0       _fread_nolock_s            000000014003bff0 f   LIBCMT:fread.obj
 0001:0003b228       fread_s                    000000014003c228 f   LIBCMT:fread.obj
 0001:0003b2d0       fread                      000000014003c2d0 f   LIBCMT:fread.obj
 0001:0003b2f0       _ftell_nolock              000000014003c2f0 f   LIBCMT:ftell.obj
 0001:0003b4a8       ftell                      000000014003c4a8 f   LIBCMT:ftell.obj
 0001:0003b500       _fseek_nolock              000000014003c500 f   LIBCMT:fseek.obj
 0001:0003b5b4       fseek                      000000014003c5b4 f   LIBCMT:fseek.obj
 0001:0003b630       fprintf                    000000014003c630 f   LIBCMT:fprintf.obj
 0001:0003b760       _cfltcvt_init              000000014003c760 f   LIBCMT:_fpinit_.obj
 0001:0003b7e8       _fpmath                    000000014003c7e8 f   LIBCMT:_fpinit_.obj
 0001:0003b7f0       isalpha                    000000014003c7f0 f i LIBCMT:_ctype.obj
 0001:0003b874       isdigit                    000000014003c874 f i LIBCMT:_ctype.obj
 0001:0003b8f4       isspace                    000000014003c8f4 f i LIBCMT:_ctype.obj
 0001:0003b974       isalnum                    000000014003c974 f i LIBCMT:_ctype.obj
 0001:0003b9f8       _tolower_l                 000000014003c9f8 f   LIBCMT:tolower.obj
 0001:0003bb48       tolower                    000000014003cb48 f   LIBCMT:tolower.obj
 0001:0003bb80       strncmp                    000000014003cb80 f   LIBCMT:strncmp.obj
 0001:0003bc50       memset                     000000014003cc50 f   LIBCMT:memset.obj
 0001:0003bd3c       _CxxThrowException         000000014003cd3c f   LIBCMT:throw.obj
 0001:0003bdd0       __report_gsfailure         000000014003cdd0 f   LIBCMT:gs_report.obj
 0001:0003bf1c       ?terminate@@YAXXZ          000000014003cf1c f   LIBCMT:hooks.obj
 0001:0003bf40       ?_inconsistency@@YAXXZ     000000014003cf40 f   LIBCMT:hooks.obj
 0001:0003bf68       _initp_eh_hooks            000000014003cf68 f   LIBCMT:hooks.obj
 0001:0003bf88       __C_specific_handler       000000014003cf88 f   LIBCMT:chandler.obj
 0001:0003c188       ?_Type_info_dtor@type_info@@CAXPEAV1@@Z 000000014003d188 f   LIBCMT:typname.obj
 0001:0003c210       strcmp                     000000014003d210 f   LIBCMT:strcmp.obj
 0001:0003c2c0       _initp_misc_invarg         000000014003d2c0 f   LIBCMT:invarg.obj
 0001:0003c2c8       _call_reportfault          000000014003d2c8 f   LIBCMT:invarg.obj
 0001:0003c414       _invoke_watson             000000014003d414 f   LIBCMT:invarg.obj
 0001:0003c448       _invalid_parameter         000000014003d448 f   LIBCMT:invarg.obj
 0001:0003c4b8       _invalid_parameter_noinfo  000000014003d4b8 f   LIBCMT:invarg.obj
 0001:0003c4d8       _get_errno_from_oserr      000000014003d4d8 f   LIBCMT:dosmap.obj
 0001:0003c520       _errno                     000000014003d520 f   LIBCMT:dosmap.obj
 0001:0003c540       __doserrno                 000000014003d540 f   LIBCMT:dosmap.obj
 0001:0003c560       _dosmaperr                 000000014003d560 f   LIBCMT:dosmap.obj
 0001:0003c824       __updatetmbcinfo           000000014003d824 f   LIBCMT:mbctype.obj
 0001:0003c970       _setmbcp_nolock            000000014003d970 f   LIBCMT:mbctype.obj
 0001:0003cbe8       _setmbcp                   000000014003dbe8 f   LIBCMT:mbctype.obj
 0001:0003cdc8       __initmbctable             000000014003ddc8 f   LIBCMT:mbctype.obj
 0001:0003cdf0       __addlocaleref             000000014003ddf0 f   LIBCMT:localref.obj
 0001:0003ce7c       __removelocaleref          000000014003de7c f   LIBCMT:localref.obj
 0001:0003cf20       __freetlocinfo             000000014003df20 f   LIBCMT:localref.obj
 0001:0003d09c       _updatetlocinfoEx_nolock   000000014003e09c f   LIBCMT:localref.obj
 0001:0003d0f4       __updatetlocinfo           000000014003e0f4 f   LIBCMT:localref.obj
 0001:0003d16c       _encoded_null              000000014003e16c f   LIBCMT:tidtable.obj
 0001:0003d178       _mtterm                    000000014003e178 f   LIBCMT:tidtable.obj
 0001:0003d1a0       _initptd                   000000014003e1a0 f   LIBCMT:tidtable.obj
 0001:0003d258       _getptd_noexit             000000014003e258 f   LIBCMT:tidtable.obj
 0001:0003d2dc       _getptd                    000000014003e2dc f   LIBCMT:tidtable.obj
 0001:0003d300       _freefls                   000000014003e300 f   LIBCMT:tidtable.obj
 0001:0003d434       _mtinit                    000000014003e434 f   LIBCMT:tidtable.obj
 0001:0003d4b8       _towlower_l                000000014003e4b8 f   LIBCMT:towlower.obj
 0001:0003d5a0       strlen                     000000014003e5a0 f   LIBCMT:strlen.obj
 0001:0003d648       _malloc_crt                000000014003e648 f   LIBCMT:crtheap.obj
 0001:0003d6c8       _calloc_crt                000000014003e6c8 f   LIBCMT:crtheap.obj
 0001:0003d74c       _realloc_crt               000000014003e74c f   LIBCMT:crtheap.obj
 0001:0003d7d4       _msize                     000000014003e7d4 f   LIBCMT:msize.obj
 0001:0003d810       __crtCorExitProcess        000000014003e810 f   LIBCMT:crt0dat.obj
 0001:0003d84c       __crtExitProcess           000000014003e84c f   LIBCMT:crt0dat.obj
 0001:0003d864       _lockexit                  000000014003e864 f   LIBCMT:crt0dat.obj
 0001:0003d870       _unlockexit                000000014003e870 f   LIBCMT:crt0dat.obj
 0001:0003d87c       _init_pointers             000000014003e87c f   LIBCMT:crt0dat.obj
 0001:0003d8f4       _initterm_e                000000014003e8f4 f   LIBCMT:crt0dat.obj
 0001:0003d930       _cinit                     000000014003e930 f   LIBCMT:crt0dat.obj
 0001:0003db70       exit                       000000014003eb70 f   LIBCMT:crt0dat.obj
 0001:0003db7c       _exit                      000000014003eb7c f   LIBCMT:crt0dat.obj
 0001:0003db88       _cexit                     000000014003eb88 f   LIBCMT:crt0dat.obj
 0001:0003db98       _c_exit                    000000014003eb98 f   LIBCMT:crt0dat.obj
 0001:0003dba8       _amsg_exit                 000000014003eba8 f   LIBCMT:crt0dat.obj
 0001:0003dbd0       _initp_heap_handler        000000014003ebd0 f   LIBCMT:handler.obj
 0001:0003dbd8       _callnewh                  000000014003ebd8 f   LIBCMT:handler.obj
 0001:0003dc0c       _flsbuf                    000000014003ec0c f   LIBCMT:_flsbuf.obj
 0001:0003dec4       _woutput_s_l               000000014003eec4 f   LIBCMT:woutputs.obj
 0001:0003ea20       _wchartodigit              000000014003fa20 f   LIBCMT:wchtodig.obj
 0001:0003ebb8       iswctype                   000000014003fbb8 f   LIBCMT:iswctype.obj
 0001:0003ec20       _heap_init                 000000014003fc20 f   LIBCMT:heapinit.obj
 0001:0003ec78       _GET_RTERRMSG              000000014003fc78 f   LIBCMT:crt0msg.obj
 0001:0003eca4       _NMSG_WRITE                000000014003fca4 f   LIBCMT:crt0msg.obj
 0001:0003ef04       _FF_MSGBANNER              000000014003ff04 f   LIBCMT:crt0msg.obj
 0001:0003ef48       __crtLCMapStringW          000000014003ff48 f   LIBCMT:w_map.obj
 0001:0003efa8       realloc                    000000014003ffa8 f   LIBCMT:realloc.obj
 0001:0003f07c       _calloc_impl               000000014004007c f   LIBCMT:calloc_impl.obj
 0001:0003f118       __iob_func                 0000000140040118 f   LIBCMT:_file.obj
 0001:0003f120       __initstdio                0000000140040120 f   LIBCMT:_file.obj
 0001:0003f200       __endstdio                 0000000140040200 f   LIBCMT:_file.obj
 0001:0003f228       _lock_file                 0000000140040228 f   LIBCMT:_file.obj
 0001:0003f28c       _lock_file2                000000014004028c f   LIBCMT:_file.obj
 0001:0003f2c0       _unlock_file               00000001400402c0 f   LIBCMT:_file.obj
 0001:0003f30c       _unlock_file2              000000014004030c f   LIBCMT:_file.obj
 0001:0003f32c       _wopenfile                 000000014004032c f   LIBCMT:_wopen.obj
 0001:0003f60c       _getstream                 000000014004060c f   LIBCMT:stream.obj
 0001:0003f780       _local_unwind              0000000140040780 f   LIBCMT:jmpuwind.obj
 0001:0003f7b0       _NLG_Notify                00000001400407b0 f   LIBCMT:jmpuwind.obj
 0001:0003f7d0       __NLG_Dispatch2            00000001400407d0 f   LIBCMT:jmpuwind.obj
 0001:0003f7e0       __NLG_Return2              00000001400407e0 f   LIBCMT:jmpuwind.obj
 0001:0003f82c       _output_l                  000000014004082c f   LIBCMT:output.obj
 0001:000403c4       _output_s_l                00000001400413c4 f   LIBCMT:outputs.obj
 0001:00040e94       _stbuf                     0000000140041e94 f   LIBCMT:_sftbuf.obj
 0001:00040f68       _ftbuf                     0000000140041f68 f   LIBCMT:_sftbuf.obj
 0001:00040fa0       _fwrite_nolock             0000000140041fa0 f   LIBCMT:fwrite.obj
 0001:0004112c       _ioinit                    000000014004212c f   LIBCMT:ioinit.obj
 0001:00041400       _fileno                    0000000140042400 f   LIBCMT:fileno.obj
 0001:00041428       abort                      0000000140042428 f   LIBCMT:abort.obj
 0001:00041468       _set_abort_behavior        0000000140042468 f   LIBCMT:abort.obj
 0001:00041484       _initp_misc_purevirt       0000000140042484 f   LIBCMT:inithelp.obj
 0001:0004148c       _fputwc_nolock             000000014004248c f   LIBCMT:fputwc.obj
 0001:0004168c       wcslen                     000000014004268c f   LIBCMT:wcslen.obj
 0001:000416a8       _close_nolock              00000001400426a8 f   LIBCMT:close.obj
 0001:00041764       _close                     0000000140042764 f   LIBCMT:close.obj
 0001:00041828       _freebuf                   0000000140042828 f   LIBCMT:_freebuf.obj
 0001:00041860       _flush                     0000000140042860 f   LIBCMT:fflush.obj
 0001:000418dc       _fflush_nolock             00000001400428dc f   LIBCMT:fflush.obj
 0001:00041a14       _flushall                  0000000140042a14 f   LIBCMT:fflush.obj
 0001:00041a20       _isctype_l                 0000000140042a20 f   LIBCMT:isctype.obj
 0001:00041b08       ?__CxxUnhandledExceptionFilter@@YAJPEAU_EXCEPTION_POINTERS@@@Z 0000000140042b08 f   LIBCMT:unhandld.obj
 0001:00041b4c       __CxxSetUnhandledExceptionFilter 0000000140042b4c f   LIBCMT:unhandld.obj
 0001:00041b64       _XcptFilter                0000000140042b64 f   LIBCMT:winxfltr.obj
 0001:00041d34       _wwincmdln                 0000000140042d34 f   LIBCMT:wwncmdln.obj
 0001:00041d8c       _wsetenvp                  0000000140042d8c f   LIBCMT:wstdenvp.obj
 0001:0004205c       _wsetargv                  000000014004305c f   LIBCMT:wstdargv.obj
 0001:0004214c       __crtGetEnvironmentStringsW 000000014004314c f   LIBCMT:w_env.obj
 0001:000421d4       _RTC_Initialize            00000001400431d4 f   LIBCMT:_initsect_.obj
 0001:0004220c       _RTC_Terminate             000000014004320c f   LIBCMT:_initsect_.obj
 0001:00042244       __security_init_cookie     0000000140043244 f   LIBCMT:gs_support.obj
 0001:000422f8       ?__StateFromIp@@YAHPEBU_s_FuncInfo@@PEAU_xDISPATCHER_CONTEXT@@_J@Z 00000001400432f8 f   LIBCMT:ehstate.obj
 0001:00042384       ?__StateFromControlPc@@YAHPEBU_s_FuncInfo@@PEAU_xDISPATCHER_CONTEXT@@@Z 0000000140043384 f   LIBCMT:ehstate.obj
 0001:0004238c       ?__GetCurrentState@@YAHPEA_KPEAU_xDISPATCHER_CONTEXT@@PEBU_s_FuncInfo@@@Z 000000014004338c f   LIBCMT:ehstate.obj
 0001:000423b4       ?__SetState@@YAXPEA_KPEAU_xDISPATCHER_CONTEXT@@PEBU_s_FuncInfo@@H@Z 00000001400433b4 f   LIBCMT:ehstate.obj
 0001:000423c0       ?__SetUnwindTryBlock@@YAXPEA_KPEAU_xDISPATCHER_CONTEXT@@PEBU_s_FuncInfo@@H@Z 00000001400433c0 f   LIBCMT:ehstate.obj
 0001:000423fc       ?__GetUnwindTryBlock@@YAHPEA_KPEAU_xDISPATCHER_CONTEXT@@PEBU_s_FuncInfo@@@Z 00000001400433fc f   LIBCMT:ehstate.obj
 0001:00042428       ??1bad_exception@std@@UEAA@XZ 0000000140043428 f i LIBCMT:frame.obj
 0001:00042438       ??_Gbad_exception@std@@UEAAPEAXI@Z 0000000140043438 f i LIBCMT:frame.obj
 0001:00042438       ??_Ebad_exception@std@@UEAAPEAXI@Z 0000000140043438 f i LIBCMT:frame.obj
 0001:00042474       __TypeMatch                0000000140043474 f   LIBCMT:frame.obj
 0001:00042598       __FrameUnwindFilter        0000000140043598 f   LIBCMT:frame.obj
 0001:000425ec       __FrameUnwindToState       00000001400435ec f   LIBCMT:frame.obj
 0001:00042778       __DestructExceptionObject  0000000140043778 f   LIBCMT:frame.obj
 0001:000427bc       __AdjustPointer            00000001400437bc f   LIBCMT:frame.obj
 0001:000428b4       __CxxCallCatchBlock        00000001400438b4 f   LIBCMT:frame.obj
 0001:00042ac8       __BuildCatchObjectHelper   0000000140043ac8 f   LIBCMT:frame.obj
 0001:00042ccc       __BuildCatchObject         0000000140043ccc f   LIBCMT:frame.obj
 0001:00043548       ??0bad_exception@std@@QEAA@AEBV01@@Z 0000000140044548 f i LIBCMT:frame.obj
 0001:0004356c       __InternalCxxFrameHandler  000000014004456c f   LIBCMT:frame.obj
 0001:00043794       _filbuf                    0000000140044794 f   LIBCMT:_filbuf.obj
 0001:000438e8       _read_nolock               00000001400448e8 f   LIBCMT:read.obj
 0001:0004400c       _read                      000000014004500c f   LIBCMT:read.obj
 0001:00044128       _lseek_nolock              0000000140045128 f   LIBCMT:lseek.obj
 0001:000441c0       _lseek                     00000001400451c0 f   LIBCMT:lseek.obj
 0001:000442a0       __strgtold12_l             00000001400452a0 f   LIBCMT:_strgtold_.obj
 0001:00044b04       _forcdecpt_l               0000000140045b04 f   LIBCMT:cvt.obj
 0001:00044b84       _cropzeros_l               0000000140045b84 f   LIBCMT:cvt.obj
 0001:00044c24       _positive                  0000000140045c24 f   LIBCMT:cvt.obj
 0001:00044c3c       _fassign_l                 0000000140045c3c f   LIBCMT:cvt.obj
 0001:00044c80       _fassign                   0000000140045c80 f   LIBCMT:cvt.obj
 0001:00044c88       _forcdecpt                 0000000140045c88 f   LIBCMT:cvt.obj
 0001:00044c90       _cropzeros                 0000000140045c90 f   LIBCMT:cvt.obj
 0001:00044ecc       _cftoe_l                   0000000140045ecc f   LIBCMT:cvt.obj
 0001:00044fc4       _cftoa_l                   0000000140045fc4 f   LIBCMT:cvt.obj
 0001:00045540       _cftof_l                   0000000140046540 f   LIBCMT:cvt.obj
 0001:00045614       _cftog_l                   0000000140046614 f   LIBCMT:cvt.obj
 0001:00045748       _cfltcvt_l                 0000000140046748 f   LIBCMT:cvt.obj
 0001:000457e0       _cfltcvt                   00000001400467e0 f   LIBCMT:cvt.obj
 0001:00045804       _initp_misc_cfltcvt_tab    0000000140046804 f   LIBCMT:cmiscdat.obj
 0001:00045b08       __crtLCMapStringA          0000000140046b08 f   LIBCMT:a_map.obj
 0001:00045ba0       __crt_debugger_hook        0000000140046ba0 f   LIBCMT:dbghook.obj
 0001:00045bb0       _ValidateImageBase         0000000140046bb0 f   LIBCMT:pesect.obj
 0001:00045be0       _FindPESection             0000000140046be0 f   LIBCMT:pesect.obj
 0001:00045c30       _IsNonwritableInCurrentImage 0000000140046c30 f   LIBCMT:pesect.obj
 0001:00045c74       _mtinitlocks               0000000140046c74 f   LIBCMT:mlock.obj
 0001:00045cf8       _mtdeletelocks             0000000140046cf8 f   LIBCMT:mlock.obj
 0001:00045d80       _unlock                    0000000140046d80 f   LIBCMT:mlock.obj
 0001:00045d98       _mtinitlocknum             0000000140046d98 f   LIBCMT:mlock.obj
 0001:00045e80       _lock                      0000000140046e80 f   LIBCMT:mlock.obj
 0001:00046024       __crtGetStringTypeA        0000000140047024 f   LIBCMT:a_str.obj
 0001:000460a4       __free_lc_time             00000001400470a4 f   LIBCMT:inittime.obj
 0001:00046494       __free_lconv_num           0000000140047494 f   LIBCMT:initnum.obj
 0001:00046500       __free_lconv_mon           0000000140047500 f   LIBCMT:initmon.obj
 0001:00046620       memcmp                     0000000140047620 f   LIBCMT:memcmp.obj
 0001:000466e8       _initp_misc_winsig         00000001400476e8 f   LIBCMT:winsig.obj
 0001:00046708       __get_sigabrt              0000000140047708 f   LIBCMT:winsig.obj
 0001:00046718       raise                      0000000140047718 f   LIBCMT:winsig.obj
 0001:0004694c       _initp_misc_rand_s         000000014004794c f   LIBCMT:rand_s.obj
 0001:00046954       _lseeki64_nolock           0000000140047954 f   LIBCMT:lseeki64.obj
 0001:000469ec       _lseeki64                  00000001400479ec f   LIBCMT:lseeki64.obj
 0001:00046ad0       _write_nolock              0000000140047ad0 f   LIBCMT:write.obj
 0001:00047230       _write                     0000000140048230 f   LIBCMT:write.obj
 0001:00047310       _getbuf                    0000000140048310 f   LIBCMT:_getbuf.obj
 0001:00047364       _isatty                    0000000140048364 f   LIBCMT:isatty.obj
 0001:000473c4       _get_printf_count_output   00000001400483c4 f   LIBCMT:printf.obj
 0001:000473dc       _mbtowc_l                  00000001400483dc f   LIBCMT:mbtowc.obj
 0001:00047554       mbtowc                     0000000140048554 f   LIBCMT:mbtowc.obj
 0001:0004755c       __crtMessageBoxW           000000014004855c f   LIBCMT:crtmboxw.obj
 0001:00047764       _set_error_mode            0000000140048764 f   LIBCMT:errmode.obj
 0001:000477a4       wcsnlen                    00000001400487a4 f   LIBCMT:wcslen_s.obj
 0001:000477c4       _fcloseall                 00000001400487c4 f   LIBCMT:closeall.obj
 0001:00048018       _wsopen_helper             0000000140049018 f   LIBCMT:wopen.obj
 0001:000480ec       _wsopen_s                  00000001400490ec f   LIBCMT:wopen.obj
 0001:00048120       wcsncmp                    0000000140049120 f   LIBCMT:wcsncmp.obj
 0001:0004814c       _wctomb_s_l                000000014004914c f   LIBCMT:wctomb.obj
 0001:00048310       wctomb_s                   0000000140049310 f   LIBCMT:wctomb.obj
 0001:00048324       _flswbuf                   0000000140049324 f   LIBCMT:_flswbuf.obj
 0001:000484b4       _set_osfhnd                00000001400494b4 f   LIBCMT:osfinfo.obj
 0001:00048564       _free_osfhnd               0000000140049564 f   LIBCMT:osfinfo.obj
 0001:00048610       _get_osfhandle             0000000140049610 f   LIBCMT:osfinfo.obj
 0001:00048684       __lock_fhandle             0000000140049684 f   LIBCMT:osfinfo.obj
 0001:0004872c       _unlock_fhandle            000000014004972c f   LIBCMT:osfinfo.obj
 0001:00048754       _alloc_osfhnd              0000000140049754 f   LIBCMT:osfinfo.obj
 0001:0004895c       _commit                    000000014004995c f   LIBCMT:commit.obj
 0001:00048a50       _CallSettingFrame          0000000140049a50 f   LIBCMT:handlers.obj
 0001:00048a90       _GetNextInstrOffset        0000000140049a90 f   LIBCMT:handlers.obj
 0001:00048a98       ?_ValidateRead@@YAHPEBXI@Z 0000000140049a98 f   LIBCMT:validate.obj
 0001:00048a98       ?_ValidateExecute@@YAHP6A_JXZ@Z 0000000140049a98 f   LIBCMT:validate.obj
 0001:00048a98       ?_ValidateWrite@@YAHPEAXI@Z 0000000140049a98 f   LIBCMT:validate.obj
 0001:00048aa4       _ld12tod                   0000000140049aa4 f   LIBCMT:_intrncvt_.obj
 0001:00049070       _ld12tof                   000000014004a070 f   LIBCMT:_intrncvt_.obj
 0001:0004963c       __mtold12                  000000014004a63c f   LIBCMT:_mantold_.obj
 0001:00049864       _atodbl_l                  000000014004a864 f   LIBCMT:atodbl.obj
 0001:00049964       _atoflt_l                  000000014004a964 f   LIBCMT:atodbl.obj
 0001:00049a64       _fptostr                   000000014004aa64 f   LIBCMT:_fptostr.obj
 0001:00049b30       __dtold                    000000014004ab30 f   LIBCMT:_cfout_.obj
 0001:00049bf8       _fltout2                   000000014004abf8 f   LIBCMT:_cfout_.obj
 0001:00049cb0       _fptrap                    000000014004acb0 f   LIBCMT:crt0fp.obj
 0001:00049cd0       _alloca_probe              000000014004acd0     LIBCMT:chkstk.obj
 0001:00049cd0       __chkstk                   000000014004acd0 f   LIBCMT:chkstk.obj
 0001:00049d20       _putwch_nolock             000000014004ad20 f   LIBCMT:putwch.obj
 0001:00049d7c       _chsize_nolock             000000014004ad7c f   LIBCMT:chsize.obj
 0001:00049f14       _setmode_nolock            000000014004af14 f   LIBCMT:setmode.obj
 0001:00049fe4       _get_fmode                 000000014004afe4 f   LIBCMT:setmode.obj
 0001:0004a014       $I10_OUTPUT                000000014004b014 f   LIBCMT:_x10fout_.obj
 0001:0004aac0       __initconout               000000014004bac0 f   LIBCMT:initcon.obj
 0001:0004aafc       __termconout               000000014004bafc f   LIBCMT:initcon.obj
 0001:0004ab1e       RtlLookupFunctionEntry     000000014004bb1e f   kernel32:KERNEL32.dll
 0001:0004ab24       RtlUnwindEx                000000014004bb24 f   kernel32:KERNEL32.dll
 0001:0004ab2a       RtlPcToFileHeader          000000014004bb2a f   kernel32:KERNEL32.dll
 0001:0004ab30       RtlVirtualUnwind           000000014004bb30 f   kernel32:KERNEL32.dll
 0001:0004ab38       __GSHandlerCheck_EH        000000014004bb38 f   LIBCMT:gshandlereh.obj
 0002:00000000       __imp_RegCloseKey          000000014004e000     advapi32:ADVAPI32.dll
 0002:00000008       __imp_RegCreateKeyExW      000000014004e008     advapi32:ADVAPI32.dll
 0002:00000010       __imp_RegDeleteKeyW        000000014004e010     advapi32:ADVAPI32.dll
 0002:00000018       __imp_RegDeleteValueW      000000014004e018     advapi32:ADVAPI32.dll
 0002:00000020       __imp_RegOpenKeyExW        000000014004e020     advapi32:ADVAPI32.dll
 0002:00000028       __imp_AdjustTokenPrivileges 000000014004e028     advapi32:ADVAPI32.dll
 0002:00000030       __imp_LookupPrivilegeValueW 000000014004e030     advapi32:ADVAPI32.dll
 0002:00000038       __imp_OpenProcessToken     000000014004e038     advapi32:ADVAPI32.dll
 0002:00000040       __imp_RegSetValueExW       000000014004e040     advapi32:ADVAPI32.dll
 0002:00000048       __imp_RegQueryInfoKeyW     000000014004e048     advapi32:ADVAPI32.dll
 0002:00000050       __imp_RegEnumKeyExW        000000014004e050     advapi32:ADVAPI32.dll
 0002:00000058       \177ADVAPI32_NULL_THUNK_DATA 000000014004e058     advapi32:ADVAPI32.dll
 0002:00000060       __imp_ImageList_ReplaceIcon 000000014004e060     comctl32:COMCTL32.dll
 0002:00000068       __imp_ImageList_Create     000000014004e068     comctl32:COMCTL32.dll
 0002:00000070       __imp_InitCommonControlsEx 000000014004e070     comctl32:COMCTL32.dll
 0002:00000078       __imp_ImageList_Destroy    000000014004e078     comctl32:COMCTL32.dll
 0002:00000080       \177COMCTL32_NULL_THUNK_DATA 000000014004e080     comctl32:COMCTL32.dll
 0002:00000088       __imp_GetSaveFileNameW     000000014004e088     comdlg32:COMDLG32.dll
 0002:00000090       __imp_GetOpenFileNameW     000000014004e090     comdlg32:COMDLG32.dll
 0002:00000098       \177COMDLG32_NULL_THUNK_DATA 000000014004e098     comdlg32:COMDLG32.dll
 0002:000000a0       __imp_GetObjectW           000000014004e0a0     gdi32:GDI32.dll
 0002:000000a8       __imp_DeleteObject         000000014004e0a8     gdi32:GDI32.dll
 0002:000000b0       __imp_CreateFontIndirectW  000000014004e0b0     gdi32:GDI32.dll
 0002:000000b8       __imp_GetDeviceCaps        000000014004e0b8     gdi32:GDI32.dll
 0002:000000c0       __imp_GetClipBox           000000014004e0c0     gdi32:GDI32.dll
 0002:000000c8       __imp_CreatePatternBrush   000000014004e0c8     gdi32:GDI32.dll
 0002:000000d0       __imp_CreateRectRgn        000000014004e0d0     gdi32:GDI32.dll
 0002:000000d8       __imp_CombineRgn           000000014004e0d8     gdi32:GDI32.dll
 0002:000000e0       __imp_CreateRectRgnIndirect 000000014004e0e0     gdi32:GDI32.dll
 0002:000000e8       __imp_SelectClipRgn        000000014004e0e8     gdi32:GDI32.dll
 0002:000000f0       __imp_SelectObject         000000014004e0f0     gdi32:GDI32.dll
 0002:000000f8       __imp_PatBlt               000000014004e0f8     gdi32:GDI32.dll
 0002:00000100       __imp_CreateBitmap         000000014004e100     gdi32:GDI32.dll
 0002:00000108       \177GDI32_NULL_THUNK_DATA  000000014004e108     gdi32:GDI32.dll
 0002:00000110       __imp_LoadResource         000000014004e110     kernel32:KERNEL32.dll
 0002:00000118       __imp_SetUnhandledExceptionFilter 000000014004e118     kernel32:KERNEL32.dll
 0002:00000120       __imp_LoadLibraryExW       000000014004e120     kernel32:KERNEL32.dll
 0002:00000128       __imp_InitializeCriticalSectionAndSpinCount 000000014004e128     kernel32:KERNEL32.dll
 0002:00000130       __imp_SizeofResource       000000014004e130     kernel32:KERNEL32.dll
 0002:00000138       __imp_LeaveCriticalSection 000000014004e138     kernel32:KERNEL32.dll
 0002:00000140       __imp_lstrlenW             000000014004e140     kernel32:KERNEL32.dll
 0002:00000148       __imp_SetLastError         000000014004e148     kernel32:KERNEL32.dll
 0002:00000150       __imp_EnterCriticalSection 000000014004e150     kernel32:KERNEL32.dll
 0002:00000158       __imp_lstrcmpiW            000000014004e158     kernel32:KERNEL32.dll
 0002:00000160       __imp_DeleteCriticalSection 000000014004e160     kernel32:KERNEL32.dll
 0002:00000168       __imp_GetCurrentThreadId   000000014004e168     kernel32:KERNEL32.dll
 0002:00000170       __imp_GetVersion           000000014004e170     kernel32:KERNEL32.dll
 0002:00000178       __imp_CreateFileW          000000014004e178     kernel32:KERNEL32.dll
 0002:00000180       __imp_SetFilePointer       000000014004e180     kernel32:KERNEL32.dll
 0002:00000188       __imp_SetEndOfFile         000000014004e188     kernel32:KERNEL32.dll
 0002:00000190       __imp_ReadFile             000000014004e190     kernel32:KERNEL32.dll
 0002:00000198       __imp_FindFirstFileW       000000014004e198     kernel32:KERNEL32.dll
 0002:000001a0       __imp_FindClose            000000014004e1a0     kernel32:KERNEL32.dll
 0002:000001a8       __imp_FindNextFileW        000000014004e1a8     kernel32:KERNEL32.dll
 0002:000001b0       __imp_WriteFile            000000014004e1b0     kernel32:KERNEL32.dll
 0002:000001b8       __imp_CopyFileW            000000014004e1b8     kernel32:KERNEL32.dll
 0002:000001c0       __imp_ReadProcessMemory    000000014004e1c0     kernel32:KERNEL32.dll
 0002:000001c8       __imp_GetFileSizeEx        000000014004e1c8     kernel32:KERNEL32.dll
 0002:000001d0       __imp_VirtualProtectEx     000000014004e1d0     kernel32:KERNEL32.dll
 0002:000001d8       __imp_WideCharToMultiByte  000000014004e1d8     kernel32:KERNEL32.dll
 0002:000001e0       __imp_GetVersionExW        000000014004e1e0     kernel32:KERNEL32.dll
 0002:000001e8       __imp_GetSystemInfo        000000014004e1e8     kernel32:KERNEL32.dll
 0002:000001f0       __imp_GetSystemTimeAsFileTime 000000014004e1f0     kernel32:KERNEL32.dll
 0002:000001f8       __imp_GetCurrentProcessId  000000014004e1f8     kernel32:KERNEL32.dll
 0002:00000200       __imp_GetTickCount         000000014004e200     kernel32:KERNEL32.dll
 0002:00000208       __imp_QueryPerformanceCounter 000000014004e208     kernel32:KERNEL32.dll
 0002:00000210       __imp_GetEnvironmentStringsW 000000014004e210     kernel32:KERNEL32.dll
 0002:00000218       __imp_FreeEnvironmentStringsW 000000014004e218     kernel32:KERNEL32.dll
 0002:00000220       __imp_GetFileType          000000014004e220     kernel32:KERNEL32.dll
 0002:00000228       __imp_SetHandleCount       000000014004e228     kernel32:KERNEL32.dll
 0002:00000230       __imp_HeapReAlloc          000000014004e230     kernel32:KERNEL32.dll
 0002:00000238       __imp_FindResourceW        000000014004e238     kernel32:KERNEL32.dll
 0002:00000240       __imp_GetStdHandle         000000014004e240     kernel32:KERNEL32.dll
 0002:00000248       __imp_HeapCreate           000000014004e248     kernel32:KERNEL32.dll
 0002:00000250       __imp_HeapSetInformation   000000014004e250     kernel32:KERNEL32.dll
 0002:00000258       __imp_GetStringTypeW       000000014004e258     kernel32:KERNEL32.dll
 0002:00000260       __imp_ExitProcess          000000014004e260     kernel32:KERNEL32.dll
 0002:00000268       __imp_HeapSize             000000014004e268     kernel32:KERNEL32.dll
 0002:00000270       __imp_Sleep                000000014004e270     kernel32:KERNEL32.dll
 0002:00000278       __imp_FlsAlloc             000000014004e278     kernel32:KERNEL32.dll
 0002:00000280       __imp_FlsFree              000000014004e280     kernel32:KERNEL32.dll
 0002:00000288       __imp_FlsSetValue          000000014004e288     kernel32:KERNEL32.dll
 0002:00000290       __imp_FlsGetValue          000000014004e290     kernel32:KERNEL32.dll
 0002:00000298       __imp_IsValidCodePage      000000014004e298     kernel32:KERNEL32.dll
 0002:000002a0       __imp_GetOEMCP             000000014004e2a0     kernel32:KERNEL32.dll
 0002:000002a8       __imp_GetACP               000000014004e2a8     kernel32:KERNEL32.dll
 0002:000002b0       __imp_GetCPInfo            000000014004e2b0     kernel32:KERNEL32.dll
 0002:000002b8       __imp_RtlCaptureContext    000000014004e2b8     kernel32:KERNEL32.dll
 0002:000002c0       __imp_RtlVirtualUnwind     000000014004e2c0     kernel32:KERNEL32.dll
 0002:000002c8       __imp_IsDebuggerPresent    000000014004e2c8     kernel32:KERNEL32.dll
 0002:000002d0       __imp_UnhandledExceptionFilter 000000014004e2d0     kernel32:KERNEL32.dll
 0002:000002d8       __imp_TerminateProcess     000000014004e2d8     kernel32:KERNEL32.dll
 0002:000002e0       __imp_RtlPcToFileHeader    000000014004e2e0     kernel32:KERNEL32.dll
 0002:000002e8       __imp_RtlUnwindEx          000000014004e2e8     kernel32:KERNEL32.dll
 0002:000002f0       __imp_RtlLookupFunctionEntry 000000014004e2f0     kernel32:KERNEL32.dll
 0002:000002f8       __imp_GetStartupInfoW      000000014004e2f8     kernel32:KERNEL32.dll
 0002:00000300       __imp_GetCommandLineW      000000014004e300     kernel32:KERNEL32.dll
 0002:00000308       __imp_DecodePointer        000000014004e308     kernel32:KERNEL32.dll
 0002:00000310       __imp_EncodePointer        000000014004e310     kernel32:KERNEL32.dll
 0002:00000318       __imp_InterlockedPopEntrySList 000000014004e318     kernel32:KERNEL32.dll
 0002:00000320       __imp_VirtualAlloc         000000014004e320     kernel32:KERNEL32.dll
 0002:00000328       __imp_VirtualFree          000000014004e328     kernel32:KERNEL32.dll
 0002:00000330       __imp_GetProcessHeap       000000014004e330     kernel32:KERNEL32.dll
 0002:00000338       __imp_HeapAlloc            000000014004e338     kernel32:KERNEL32.dll
 0002:00000340       __imp_HeapFree             000000014004e340     kernel32:KERNEL32.dll
 0002:00000348       __imp_InterlockedPushEntrySList 000000014004e348     kernel32:KERNEL32.dll
 0002:00000350       __imp_GetLastError         000000014004e350     kernel32:KERNEL32.dll
 0002:00000358       __imp_lstrlenA             000000014004e358     kernel32:KERNEL32.dll
 0002:00000360       __imp_MultiByteToWideChar  000000014004e360     kernel32:KERNEL32.dll
 0002:00000368       __imp_CreateFileMappingW   000000014004e368     kernel32:KERNEL32.dll
 0002:00000370       __imp_MapViewOfFile        000000014004e370     kernel32:KERNEL32.dll
 0002:00000378       __imp_GetConsoleCP         000000014004e378     kernel32:KERNEL32.dll
 0002:00000380       __imp_GetConsoleMode       000000014004e380     kernel32:KERNEL32.dll
 0002:00000388       __imp_SetStdHandle         000000014004e388     kernel32:KERNEL32.dll
 0002:00000390       __imp_FlushFileBuffers     000000014004e390     kernel32:KERNEL32.dll
 0002:00000398       __imp_WriteConsoleW        000000014004e398     kernel32:KERNEL32.dll
 0002:000003a0       __imp_ResumeThread         000000014004e3a0     kernel32:KERNEL32.dll
 0002:000003a8       __imp_WriteProcessMemory   000000014004e3a8     kernel32:KERNEL32.dll
 0002:000003b0       __imp_CloseHandle          000000014004e3b0     kernel32:KERNEL32.dll
 0002:000003b8       __imp_GetExitCodeThread    000000014004e3b8     kernel32:KERNEL32.dll
 0002:000003c0       __imp_VirtualAllocEx       000000014004e3c0     kernel32:KERNEL32.dll
 0002:000003c8       __imp_SetThreadPriority    000000014004e3c8     kernel32:KERNEL32.dll
 0002:000003d0       __imp_LoadLibraryW         000000014004e3d0     kernel32:KERNEL32.dll
 0002:000003d8       __imp_VirtualFreeEx        000000014004e3d8     kernel32:KERNEL32.dll
 0002:000003e0       __imp_CreateRemoteThread   000000014004e3e0     kernel32:KERNEL32.dll
 0002:000003e8       __imp_WaitForSingleObject  000000014004e3e8     kernel32:KERNEL32.dll
 0002:000003f0       __imp_FreeLibrary          000000014004e3f0     kernel32:KERNEL32.dll
 0002:000003f8       __imp_GlobalFree           000000014004e3f8     kernel32:KERNEL32.dll
 0002:00000400       __imp_RaiseException       000000014004e400     kernel32:KERNEL32.dll
 0002:00000408       __imp_FlushInstructionCache 000000014004e408     kernel32:KERNEL32.dll
 0002:00000410       __imp_GlobalUnlock         000000014004e410     kernel32:KERNEL32.dll
 0002:00000418       __imp_MulDiv               000000014004e418     kernel32:KERNEL32.dll
 0002:00000420       __imp_GlobalAlloc          000000014004e420     kernel32:KERNEL32.dll
 0002:00000428       __imp_GlobalLock           000000014004e428     kernel32:KERNEL32.dll
 0002:00000430       __imp_GetCurrentProcess    000000014004e430     kernel32:KERNEL32.dll
 0002:00000438       __imp_QueryDosDeviceW      000000014004e438     kernel32:KERNEL32.dll
 0002:00000440       __imp_GetPrivateProfileIntW 000000014004e440     kernel32:KERNEL32.dll
 0002:00000448       __imp_WritePrivateProfileStringW 000000014004e448     kernel32:KERNEL32.dll
 0002:00000450       __imp_GetModuleFileNameW   000000014004e450     kernel32:KERNEL32.dll
 0002:00000458       __imp_GetPrivateProfileStringW 000000014004e458     kernel32:KERNEL32.dll
 0002:00000460       __imp_GetModuleHandleA     000000014004e460     kernel32:KERNEL32.dll
 0002:00000468       __imp_LoadLibraryA         000000014004e468     kernel32:KERNEL32.dll
 0002:00000470       __imp_GetProcAddress       000000014004e470     kernel32:KERNEL32.dll
 0002:00000478       __imp_VirtualQueryEx       000000014004e478     kernel32:KERNEL32.dll
 0002:00000480       __imp_GetModuleHandleW     000000014004e480     kernel32:KERNEL32.dll
 0002:00000488       __imp_LCMapStringW         000000014004e488     kernel32:KERNEL32.dll
 0002:00000490       __imp_UnmapViewOfFile      000000014004e490     kernel32:KERNEL32.dll
 0002:00000498       \177KERNEL32_NULL_THUNK_DATA 000000014004e498     kernel32:KERNEL32.dll
 0002:000004a0       __imp_VarUI4FromStr        000000014004e4a0     oleaut32:OLEAUT32.dll
 0002:000004a8       \177OLEAUT32_NULL_THUNK_DATA 000000014004e4a8     oleaut32:OLEAUT32.dll
 0002:000004b0       __imp_GetModuleFileNameExW 000000014004e4b0     Psapi:PSAPI.DLL
 0002:000004b8       __imp_GetMappedFileNameW   000000014004e4b8     Psapi:PSAPI.DLL
 0002:000004c0       __imp_EnumProcessModules   000000014004e4c0     Psapi:PSAPI.DLL
 0002:000004c8       __imp_GetProcessImageFileNameW 000000014004e4c8     Psapi:PSAPI.DLL
 0002:000004d0       \177PSAPI_NULL_THUNK_DATA  000000014004e4d0     Psapi:PSAPI.DLL
 0002:000004d8       __imp_ShellExecuteW        000000014004e4d8     shell32:SHELL32.dll
 0002:000004e0       \177SHELL32_NULL_THUNK_DATA 000000014004e4e0     shell32:SHELL32.dll
 0002:000004e8       __imp_PathAppendW          000000014004e4e8     shlwapi:SHLWAPI.dll
 0002:000004f0       __imp_PathRemoveFileSpecW  000000014004e4f0     shlwapi:SHLWAPI.dll
 0002:000004f8       \177SHLWAPI_NULL_THUNK_DATA 000000014004e4f8     shlwapi:SHLWAPI.dll
 0002:00000500       __imp_LoadIconW            000000014004e500     user32:USER32.dll
 0002:00000508       __imp_DragDetect           000000014004e508     user32:USER32.dll
 0002:00000510       __imp_IntersectRect        000000014004e510     user32:USER32.dll
 0002:00000518       __imp_IsDialogMessageW     000000014004e518     user32:USER32.dll
 0002:00000520       __imp_GetMenu              000000014004e520     user32:USER32.dll
 0002:00000528       __imp_AppendMenuW          000000014004e528     user32:USER32.dll
 0002:00000530       __imp_InflateRect          000000014004e530     user32:USER32.dll
 0002:00000538       __imp_GetKeyState          000000014004e538     user32:USER32.dll
 0002:00000540       __imp_GetSysColor          000000014004e540     user32:USER32.dll
 0002:00000548       __imp_GetActiveWindow      000000014004e548     user32:USER32.dll
 0002:00000550       __imp_AdjustWindowRectEx   000000014004e550     user32:USER32.dll
 0002:00000558       __imp_ReleaseCapture       000000014004e558     user32:USER32.dll
 0002:00000560       __imp_SetCapture           000000014004e560     user32:USER32.dll
 0002:00000568       __imp_PostQuitMessage      000000014004e568     user32:USER32.dll
 0002:00000570       __imp_ScreenToClient       000000014004e570     user32:USER32.dll
 0002:00000578       __imp_LoadAcceleratorsW    000000014004e578     user32:USER32.dll
 0002:00000580       __imp_ReleaseDC            000000014004e580     user32:USER32.dll
 0002:00000588       __imp_DialogBoxParamW      000000014004e588     user32:USER32.dll
 0002:00000590       __imp_EnableWindow         000000014004e590     user32:USER32.dll
 0002:00000598       __imp_GetMessagePos        000000014004e598     user32:USER32.dll
 0002:000005a0       __imp_DestroyAcceleratorTable 000000014004e5a0     user32:USER32.dll
 0002:000005a8       __imp_GetMessageW          000000014004e5a8     user32:USER32.dll
 0002:000005b0       __imp_CharNextW            000000014004e5b0     user32:USER32.dll
 0002:000005b8       __imp_TranslateAcceleratorW 000000014004e5b8     user32:USER32.dll
 0002:000005c0       __imp_GetWindowTextLengthW 000000014004e5c0     user32:USER32.dll
 0002:000005c8       __imp_SetDlgItemTextW      000000014004e5c8     user32:USER32.dll
 0002:000005d0       __imp_EnableMenuItem       000000014004e5d0     user32:USER32.dll
 0002:000005d8       __imp_TranslateMessage     000000014004e5d8     user32:USER32.dll
 0002:000005e0       __imp_PeekMessageW         000000014004e5e0     user32:USER32.dll
 0002:000005e8       __imp_CreateDialogParamW   000000014004e5e8     user32:USER32.dll
 0002:000005f0       __imp_DispatchMessageW     000000014004e5f0     user32:USER32.dll
 0002:000005f8       __imp_UpdateWindow         000000014004e5f8     user32:USER32.dll
 0002:00000600       __imp_LoadImageW           000000014004e600     user32:USER32.dll
 0002:00000608       __imp_GetDC                000000014004e608     user32:USER32.dll
 0002:00000610       __imp_GetDesktopWindow     000000014004e610     user32:USER32.dll
 0002:00000618       __imp_DestroyIcon          000000014004e618     user32:USER32.dll
 0002:00000620       __imp_SetFocus             000000014004e620     user32:USER32.dll
 0002:00000628       __imp_ClientToScreen       000000014004e628     user32:USER32.dll
 0002:00000630       __imp_CloseClipboard       000000014004e630     user32:USER32.dll
 0002:00000638       __imp_MonitorFromPoint     000000014004e638     user32:USER32.dll
 0002:00000640       __imp_TrackPopupMenu       000000014004e640     user32:USER32.dll
 0002:00000648       __imp_GetSubMenu           000000014004e648     user32:USER32.dll
 0002:00000650       __imp_IsClipboardFormatAvailable 000000014004e650     user32:USER32.dll
 0002:00000658       __imp_MessageBeep          000000014004e658     user32:USER32.dll
 0002:00000660       __imp_GetWindowLongPtrW    000000014004e660     user32:USER32.dll
 0002:00000668       __imp_InvalidateRect       000000014004e668     user32:USER32.dll
 0002:00000670       __imp_LoadMenuW            000000014004e670     user32:USER32.dll
 0002:00000678       __imp_GetClipboardData     000000014004e678     user32:USER32.dll
 0002:00000680       __imp_GetWindowTextW       000000014004e680     user32:USER32.dll
 0002:00000688       __imp_EmptyClipboard       000000014004e688     user32:USER32.dll
 0002:00000690       __imp_SetWindowLongW       000000014004e690     user32:USER32.dll
 0002:00000698       __imp_RedrawWindow         000000014004e698     user32:USER32.dll
 0002:000006a0       __imp_ShowWindow           000000014004e6a0     user32:USER32.dll
 0002:000006a8       __imp_IsWindow             000000014004e6a8     user32:USER32.dll
 0002:000006b0       __imp_OpenClipboard        000000014004e6b0     user32:USER32.dll
 0002:000006b8       __imp_MessageBoxW          000000014004e6b8     user32:USER32.dll
 0002:000006c0       __imp_IsWindowVisible      000000014004e6c0     user32:USER32.dll
 0002:000006c8       __imp_SetWindowLongPtrW    000000014004e6c8     user32:USER32.dll
 0002:000006d0       __imp_SetClipboardData     000000014004e6d0     user32:USER32.dll
 0002:000006d8       __imp_DestroyMenu          000000014004e6d8     user32:USER32.dll
 0002:000006e0       __imp_GetDlgCtrlID         000000014004e6e0     user32:USER32.dll
 0002:000006e8       __imp_CallWindowProcW      000000014004e6e8     user32:USER32.dll
 0002:000006f0       __imp_DefWindowProcW       000000014004e6f0     user32:USER32.dll
 0002:000006f8       __imp_DestroyWindow        000000014004e6f8     user32:USER32.dll
 0002:00000700       __imp_GetWindowRect        000000014004e700     user32:USER32.dll
 0002:00000708       __imp_GetParent            000000014004e708     user32:USER32.dll
 0002:00000710       __imp_GetClientRect        000000014004e710     user32:USER32.dll
 0002:00000718       __imp_GetWindowLongW       000000014004e718     user32:USER32.dll
 0002:00000720       __imp_MonitorFromWindow    000000014004e720     user32:USER32.dll
 0002:00000728       __imp_GetDlgItem           000000014004e728     user32:USER32.dll
 0002:00000730       __imp_EndDialog            000000014004e730     user32:USER32.dll
 0002:00000738       __imp_SetWindowPos         000000014004e738     user32:USER32.dll
 0002:00000740       __imp_CreateWindowExW      000000014004e740     user32:USER32.dll
 0002:00000748       __imp_SendMessageW         000000014004e748     user32:USER32.dll
 0002:00000750       __imp_MapWindowPoints      000000014004e750     user32:USER32.dll
 0002:00000758       __imp_SetWindowTextW       000000014004e758     user32:USER32.dll
 0002:00000760       __imp_GetMonitorInfoW      000000014004e760     user32:USER32.dll
 0002:00000768       __imp_GetWindow            000000014004e768     user32:USER32.dll
 0002:00000770       __imp_CreatePopupMenu      000000014004e770     user32:USER32.dll
 0002:00000778       __imp_UnregisterClassA     000000014004e778     user32:USER32.dll
 0002:00000780       \177USER32_NULL_THUNK_DATA 000000014004e780     user32:USER32.dll
 0002:00000788       __imp_CheckSumMappedFile   000000014004e788     Imagehlp:imagehlp.dll
 0002:00000790       \177imagehlp_NULL_THUNK_DATA 000000014004e790     Imagehlp:imagehlp.dll
 0002:00000798       __imp_CoTaskMemFree        000000014004e798     ole32:ole32.dll
 0002:000007a0       __imp_CoTaskMemRealloc     000000014004e7a0     ole32:ole32.dll
 0002:000007a8       __imp_CoUninitialize       000000014004e7a8     ole32:ole32.dll
 0002:000007b0       __imp_CoCreateInstance     000000014004e7b0     ole32:ole32.dll
 0002:000007b8       __imp_CoInitialize         000000014004e7b8     ole32:ole32.dll
 0002:000007c0       __imp_CoTaskMemAlloc       000000014004e7c0     ole32:ole32.dll
 0002:000007c8       \177ole32_NULL_THUNK_DATA  000000014004e7c8     ole32:ole32.dll
 0002:000007d0       __xc_a                     000000014004e7d0     LIBCMT:crt0init.obj
 0002:00000838       __xc_z                     000000014004e838     LIBCMT:crt0init.obj
 0002:00000840       __xi_a                     000000014004e840     LIBCMT:crt0init.obj
 0002:00000868       __xi_z                     000000014004e868     LIBCMT:crt0init.obj
 0002:00000870       __xp_a                     000000014004e870     LIBCMT:crt0init.obj
 0002:00000888       __xp_z                     000000014004e888     LIBCMT:crt0init.obj
 0002:00000890       __xt_a                     000000014004e890     LIBCMT:crt0init.obj
 0002:00000898       __xt_z                     000000014004e898     LIBCMT:crt0init.obj
 0002:000008a0       ??_C@_06JMOFLNKF@YWORD?5?$AA@ 000000014004e8a0     diStorm:distorm.obj
 0002:000008a8       ??_C@_07PKJDDPMC@DQWORD?5?$AA@ 000000014004e8a8     diStorm:distorm.obj
 0002:000008b0       ??_C@_06GFCABIIE@TBYTE?5?$AA@ 000000014004e8b0     diStorm:distorm.obj
 0002:000008b8       ??_C@_06KPAKPDMC@QWORD?5?$AA@ 000000014004e8b8     diStorm:distorm.obj
 0002:000008c0       ??_C@_06JKOMEAKL@DWORD?5?$AA@ 000000014004e8c0     diStorm:distorm.obj
 0002:000008c8       ??_C@_05GAGGPBM@WORD?5?$AA@ 000000014004e8c8     diStorm:distorm.obj
 0002:000008d0       ??_C@_05JOBEKLPN@BYTE?5?$AA@ 000000014004e8d0     diStorm:distorm.obj
 0002:000008d8       ??_C@_0M@KOOLNINB@?5?$DLNOT?5TAKEN?$AA@ 000000014004e8d8     diStorm:distorm.obj
 0002:000008e8       ??_C@_07GPPNHKOM@?5?$DLTAKEN?$AA@ 000000014004e8e8     diStorm:distorm.obj
 0002:000008f0       ??_C@_02KEGNLNML@?0?5?$AA@ 000000014004e8f0     diStorm:distorm.obj
 0002:000008f4       ??_C@_05IMOOOKID@LOCK?5?$AA@ 000000014004e8f4     diStorm:distorm.obj
 0002:000008fc       ??_C@_06DODLCMMB@REPNZ?5?$AA@ 000000014004e8fc     diStorm:distorm.obj
 0002:00000904       ??_C@_05KAMKKAPP@REPZ?5?$AA@ 000000014004e904     diStorm:distorm.obj
 0002:0000090c       ??_C@_04COPMDGFE@REP?5?$AA@ 000000014004e90c     diStorm:distorm.obj
 0002:00000914       ??_C@_03CMFHJCIF@DB?5?$AA@ 000000014004e914     diStorm:distorm.obj
 0002:00000920       _MNEMONICS                 000000014004e920     diStorm:mnemonics.obj
 0002:00003060       _REGISTERS                 0000000140051060     diStorm:mnemonics.obj
 0002:000036f0       ?npos@TiXmlString@@2_KB    00000001400516f0     tinyxml:tinystr.obj
 0002:00003750       ??_7TiXmlBase@@6B@         0000000140051750     tinyxml:tinyxml.obj
 0002:00003768       ??_C@_01EEMJAFIK@?6?$AA@   0000000140051768     tinyxml:tinyxml.obj
 0002:00003770       ??_C@_09PNDCPLLD@?$DM?$CB?9?9?$CFs?9?9?$DO?$AA@ 0000000140051770     tinyxml:tinyxml.obj
 0002:0000377c       ??_C@_04PFOHOKJK@?5?5?5?5?$AA@ 000000014005177c     tinyxml:tinyxml.obj
 0002:00003784       ??_C@_04NNJCMPBN@?$DM?$CFs?$DO?$AA@ 0000000140051784     tinyxml:tinyxml.obj
 0002:00003798       ??_7TiXmlAttribute@@6B@    0000000140051798     tinyxml:tinyxml.obj
 0002:000037d8       ??_C@_08LCBMGHJI@?$CG?$CDx?$CF02X?$DL?$AA@ 00000001400517d8     tinyxml:tinyxml.obj
 0002:000037f8       ??_7TiXmlNode@@6B@         00000001400517f8     tinyxml:tinyxml.obj
 0002:000038a8       ??_C@_05POIKLDCH@?$DM?1?$CFs?$DO?$AA@ 00000001400518a8     tinyxml:tinyxml.obj
 0002:000038b0       ??_C@_01PPODPGHN@?$DO?$AA@ 00000001400518b0     tinyxml:tinyxml.obj
 0002:000038b4       ??_C@_03MFNJFHN@?5?1?$DO?$AA@ 00000001400518b4     tinyxml:tinyxml.obj
 0002:000038b8       ??_C@_03FONCMJME@?$DM?$CFs?$AA@ 00000001400518b8     tinyxml:tinyxml.obj
 0002:000038f8       ??_7TiXmlDocument@@6B@     00000001400518f8     tinyxml:tinyxml.obj
 0002:000039d0       ??_C@_01BJJEKLCA@?$CC?$AA@ 00000001400519d0     tinyxml:tinyxml.obj
 0002:000039d4       ??_C@_02ILLPBGAO@?$DN?$CC?$AA@ 00000001400519d4     tinyxml:tinyxml.obj
 0002:000039d8       ??_C@_07JDMHCBCA@?$CFs?$DN?$CC?$CFs?$CC?$AA@ 00000001400519d8     tinyxml:tinyxml.obj
 0002:000039e0       ??_C@_01GEODFPGF@?8?$AA@   00000001400519e0     tinyxml:tinyxml.obj
 0002:000039e4       ??_C@_02PGMIOCEL@?$DN?8?$AA@ 00000001400519e4     tinyxml:tinyxml.obj
 0002:000039e8       ??_C@_07CGFAFKBF@?$CFs?$DN?8?$CFs?8?$AA@ 00000001400519e8     tinyxml:tinyxml.obj
 0002:000039f8       ??_7TiXmlComment@@6B@      00000001400519f8     tinyxml:tinyxml.obj
 0002:00003aa8       ??_C@_02DKCKIIND@?$CFs?$AA@ 0000000140051aa8     tinyxml:tinyxml.obj
 0002:00003ab0       ??_C@_0BA@HEAAMLOF@?$DM?$CB?$FLCDATA?$FL?$CFs?$FN?$FN?$DO?6?$AA@ 0000000140051ab0     tinyxml:tinyxml.obj
 0002:00003af8       ??_7TiXmlDeclaration@@6B@  0000000140051af8     tinyxml:tinyxml.obj
 0002:00003b88       ??_C@_02GOEMJPDN@?$DP?$DO?$AA@ 0000000140051b88     tinyxml:tinyxml.obj
 0002:00003b90       ??_C@_0N@IHAMHLOK@standalone?$DN?$CC?$AA@ 0000000140051b90     tinyxml:tinyxml.obj
 0002:00003ba0       ??_C@_0BB@OAOJGGEI@standalone?$DN?$CC?$CFs?$CC?5?$AA@ 0000000140051ba0     tinyxml:tinyxml.obj
 0002:00003bb8       ??_C@_0L@ENAAEPMN@encoding?$DN?$CC?$AA@ 0000000140051bb8     tinyxml:tinyxml.obj
 0002:00003bc8       ??_C@_0P@CJGKNICB@encoding?$DN?$CC?$CFs?$CC?5?$AA@ 0000000140051bc8     tinyxml:tinyxml.obj
 0002:00003bd8       ??_C@_02KOPDJAMB@?$CC?5?$AA@ 0000000140051bd8     tinyxml:tinyxml.obj
 0002:00003be0       ??_C@_09KGECPEDL@version?$DN?$CC?$AA@ 0000000140051be0     tinyxml:tinyxml.obj
 0002:00003bf0       ??_C@_0O@LGPLJGNM@version?$DN?$CC?$CFs?$CC?5?$AA@ 0000000140051bf0     tinyxml:tinyxml.obj
 0002:00003c00       ??_C@_06CMNLMIOJ@?$DM?$DPxml?5?$AA@ 0000000140051c00     tinyxml:tinyxml.obj
 0002:00003c08       ??_C@_01MNNFJEPP@?$DM?$AA@ 0000000140051c08     tinyxml:tinyxml.obj
 0002:00003c0c       ??_C@_02DPNDACHE@?$DM?1?$AA@ 0000000140051c0c     tinyxml:tinyxml.obj
 0002:00003c10       ??_C@_03MCHNFBAC@?$FN?$FN?$DO?$AA@ 0000000140051c10     tinyxml:tinyxml.obj
 0002:00003c18       ??_C@_09BLLNCBLF@?$DM?$CB?$FLCDATA?$FL?$AA@ 0000000140051c18     tinyxml:tinyxml.obj
 0002:00003c24       ??_C@_03PNLDJJMO@?9?9?$DO?$AA@ 0000000140051c24     tinyxml:tinyxml.obj
 0002:00003c28       ??_C@_04FFDNBKGC@?$DM?$CB?9?9?$AA@ 0000000140051c28     tinyxml:tinyxml.obj
 0002:00003c88       ??_7TiXmlText@@6B@         0000000140051c88     tinyxml:tinyxml.obj
 0002:00003d48       ??_7TiXmlUnknown@@6B@      0000000140051d48     tinyxml:tinyxml.obj
 0002:00003e08       ??_7TiXmlElement@@6B@      0000000140051e08     tinyxml:tinyxml.obj
 0002:00003f08       ??_C@_06PNMEMOHD@?$CGapos?$DL?$AA@ 0000000140051f08     tinyxml:tinyxmlparser.obj
 0002:00003f10       ??_C@_06DDLNFFBN@?$CGquot?$DL?$AA@ 0000000140051f10     tinyxml:tinyxmlparser.obj
 0002:00003f18       ??_C@_04LOOHDCEI@?$CGgt?$DL?$AA@ 0000000140051f18     tinyxml:tinyxmlparser.obj
 0002:00003f20       ??_C@_04GJOGLFEJ@?$CGlt?$DL?$AA@ 0000000140051f20     tinyxml:tinyxmlparser.obj
 0002:00003f28       ??_C@_05JKJFEODM@?$CGamp?$DL?$AA@ 0000000140051f28     tinyxml:tinyxmlparser.obj
 0002:00003f30       ?utf8ByteTable@TiXmlBase@@2QBHB 0000000140051f30     tinyxml:tinyxmlparser.obj
 0002:00004388       ??_C@_02KBFACPPK@?$DM?$CB?$AA@ 0000000140052388     tinyxml:tinyxmlparser.obj
 0002:0000438c       ??_C@_05DJDIECHG@?$DM?$DPxml?$AA@ 000000014005238c     tinyxml:tinyxmlparser.obj
 0002:000043c8       ??_C@_04OOMJJNCF@UTF8?$AA@ 00000001400523c8     tinyxml:tinyxmlparser.obj
 0002:000043d0       ??_C@_05EGJIMALK@UTF?98?$AA@ 00000001400523d0     tinyxml:tinyxmlparser.obj
 0002:00004468       ??_C@_0L@FLHGMILF@standalone?$AA@ 0000000140052468     tinyxml:tinyxmlparser.obj
 0002:00004478       ??_C@_08MLPGAEIK@encoding?$AA@ 0000000140052478     tinyxml:tinyxmlparser.obj
 0002:00004488       ??_C@_07CPCPJPKL@version?$AA@ 0000000140052488     tinyxml:tinyxmlparser.obj
 0002:00004490       ??_C@_0FL@BMBPKIGK@Error?5when?5TiXmlDocument?5added?5t@ 0000000140052490     tinyxml:tinyxmlerror.obj
 0002:000044f0       ??_C@_0BF@HJPECPBG@Error?5parsing?5CDATA?4?$AA@ 00000001400524f0     tinyxml:tinyxmlerror.obj
 0002:00004508       ??_C@_0DI@GMJJAOBO@Error?5null?5?$CI0?$CJ?5or?5unexpected?5EOF@ 0000000140052508     tinyxml:tinyxmlerror.obj
 0002:00004540       ??_C@_0BG@FFJMEOCN@Error?5document?5empty?4?$AA@ 0000000140052540     tinyxml:tinyxmlerror.obj
 0002:00004558       ??_C@_0BL@BMCKJPKK@Error?5parsing?5Declaration?4?$AA@ 0000000140052558     tinyxml:tinyxmlerror.obj
 0002:00004578       ??_C@_0BH@MPJHJCKO@Error?5parsing?5Comment?4?$AA@ 0000000140052578     tinyxml:tinyxmlerror.obj
 0002:00004590       ??_C@_0BH@EPLDMIEN@Error?5parsing?5Unknown?4?$AA@ 0000000140052590     tinyxml:tinyxmlerror.obj
 0002:000045a8       ??_C@_0BH@JJGGDJOP@Error?5reading?5end?5tag?4?$AA@ 00000001400525a8     tinyxml:tinyxmlerror.obj
 0002:000045c0       ??_C@_0BC@HMFFDDLH@Error?3?5empty?5tag?4?$AA@ 00000001400525c0     tinyxml:tinyxmlerror.obj
 0002:000045d8       ??_C@_0BK@JPCMNIIK@Error?5reading?5Attributes?4?$AA@ 00000001400525d8     tinyxml:tinyxmlerror.obj
 0002:000045f8       ??_C@_0BN@KKMBBCED@Error?5reading?5Element?5value?4?$AA@ 00000001400525f8     tinyxml:tinyxmlerror.obj
 0002:00004618       ??_C@_0BM@NCHBIJBE@Failed?5to?5read?5Element?5name?$AA@ 0000000140052618     tinyxml:tinyxmlerror.obj
 0002:00004638       ??_C@_0BH@BONKCKA@Error?5parsing?5Element?4?$AA@ 0000000140052638     tinyxml:tinyxmlerror.obj
 0002:00004650       ??_C@_0BE@HJPJFJPJ@Failed?5to?5open?5file?$AA@ 0000000140052650     tinyxml:tinyxmlerror.obj
 0002:00004664       ??_C@_05NAOIJFC@Error?$AA@ 0000000140052664     tinyxml:tinyxmlerror.obj
 0002:00004670       ??_C@_08INEPGKHH@No?5error?$AA@ 0000000140052670     tinyxml:tinyxmlerror.obj
 0002:00004680       CLSID_StdGlobalInterfaceTable 0000000140052680     uuid:cguid_i.obj
 0002:00004690       GUID_ATLVer30              0000000140052690     atls:atlbase.obj
 0002:000046a0       GUID_ATLVer70              00000001400526a0     atls:atlbase.obj
 0002:000046b0       GUID_ATLVer100             00000001400526b0     atls:atlbase.obj
 0002:000046c8       ??_7logic_error@std@@6B@   00000001400526c8     libcpmt:xthrow.obj
 0002:000046e0       ??_7length_error@std@@6B@  00000001400526e0     libcpmt:xthrow.obj
 0002:000046f8       ??_7out_of_range@std@@6B@  00000001400526f8     libcpmt:xthrow.obj
 0002:00004710       ??_7type_info@@6B@         0000000140052710     LIBCMT:typinfo.obj
 0002:00004720       ??_7exception@std@@6B@     0000000140052720     LIBCMT:stdexcpt.obj
 0002:00004730       ??_C@_0BC@EOODALEL@Unknown?5exception?$AA@ 0000000140052730     LIBCMT:stdexcpt.obj
 0002:00004750       ??_7bad_alloc@std@@6B@     0000000140052750     LIBCMT:new.obj
 0002:00004760       ??_C@_0P@GHFPNOJB@bad?5allocation?$AA@ 0000000140052760     LIBCMT:new.obj
 0002:00004808       _FPinit                    0000000140052808     LIBCMT:_fpinit_.obj
 0002:00004860       ??_C@_1BC@GDGBMEMK@?$AAH?$AAH?$AA?3?$AAm?$AAm?$AA?3?$AAs?$AAs?$AA?$AA@ 0000000140052860     LIBCMT:nlsdata2.obj
 0002:00004878       ??_C@_1CI@KNAKOEBC@?$AAd?$AAd?$AAd?$AAd?$AA?0?$AA?5?$AAM?$AAM?$AAM?$AAM?$AA?5?$AAd?$AAd?$AA?0?$AA?5?$AAy?$AAy?$AAy?$AAy?$AA?$AA@ 0000000140052878     LIBCMT:nlsdata2.obj
 0002:000048a0       ??_C@_1BC@IEBCMHCM@?$AAM?$AAM?$AA?1?$AAd?$AAd?$AA?1?$AAy?$AAy?$AA?$AA@ 00000001400528a0     LIBCMT:nlsdata2.obj
 0002:000048b4       ??_C@_15CLMNNGEL@?$AAP?$AAM?$AA?$AA@ 00000001400528b4     LIBCMT:nlsdata2.obj
 0002:000048bc       ??_C@_15ODEHAHHF@?$AAA?$AAM?$AA?$AA@ 00000001400528bc     LIBCMT:nlsdata2.obj
 0002:000048c8       ??_C@_1BC@FEMKIFH@?$AAD?$AAe?$AAc?$AAe?$AAm?$AAb?$AAe?$AAr?$AA?$AA@ 00000001400528c8     LIBCMT:nlsdata2.obj
 0002:000048e0       ??_C@_1BC@BGLIFPF@?$AAN?$AAo?$AAv?$AAe?$AAm?$AAb?$AAe?$AAr?$AA?$AA@ 00000001400528e0     LIBCMT:nlsdata2.obj
 0002:000048f8       ??_C@_1BA@EPANDLNG@?$AAO?$AAc?$AAt?$AAo?$AAb?$AAe?$AAr?$AA?$AA@ 00000001400528f8     LIBCMT:nlsdata2.obj
 0002:00004908       ??_C@_1BE@DKAAMBJL@?$AAS?$AAe?$AAp?$AAt?$AAe?$AAm?$AAb?$AAe?$AAr?$AA?$AA@ 0000000140052908     LIBCMT:nlsdata2.obj
 0002:00004920       ??_C@_1O@PAHLKOAC@?$AAA?$AAu?$AAg?$AAu?$AAs?$AAt?$AA?$AA@ 0000000140052920     LIBCMT:nlsdata2.obj
 0002:00004930       ??_C@_19BIFMLPCD@?$AAJ?$AAu?$AAl?$AAy?$AA?$AA@ 0000000140052930     LIBCMT:nlsdata2.obj
 0002:00004940       ??_C@_19EPFLPGAP@?$AAJ?$AAu?$AAn?$AAe?$AA?$AA@ 0000000140052940     LIBCMT:nlsdata2.obj
 0002:00004950       ??_C@_1M@GJNLMHFD@?$AAA?$AAp?$AAr?$AAi?$AAl?$AA?$AA@ 0000000140052950     LIBCMT:nlsdata2.obj
 0002:00004960       ??_C@_1M@IKEENEDF@?$AAM?$AAa?$AAr?$AAc?$AAh?$AA?$AA@ 0000000140052960     LIBCMT:nlsdata2.obj
 0002:00004970       ??_C@_1BC@JGDDFFAM@?$AAF?$AAe?$AAb?$AAr?$AAu?$AAa?$AAr?$AAy?$AA?$AA@ 0000000140052970     LIBCMT:nlsdata2.obj
 0002:00004988       ??_C@_1BA@EFMEIEBA@?$AAJ?$AAa?$AAn?$AAu?$AAa?$AAr?$AAy?$AA?$AA@ 0000000140052988     LIBCMT:nlsdata2.obj
 0002:00004998       ??_C@_17EGKACKIF@?$AAD?$AAe?$AAc?$AA?$AA@ 0000000140052998     LIBCMT:nlsdata2.obj
 0002:000049a0       ??_C@_17BBDMLCIG@?$AAN?$AAo?$AAv?$AA?$AA@ 00000001400529a0     LIBCMT:nlsdata2.obj
 0002:000049a8       ??_C@_17FNLKOI@?$AAO?$AAc?$AAt?$AA?$AA@ 00000001400529a8     LIBCMT:nlsdata2.obj
 0002:000049b0       ??_C@_17HCHCOKMG@?$AAS?$AAe?$AAp?$AA?$AA@ 00000001400529b0     LIBCMT:nlsdata2.obj
 0002:000049b8       ??_C@_17ICPELBCN@?$AAA?$AAu?$AAg?$AA?$AA@ 00000001400529b8     LIBCMT:nlsdata2.obj
 0002:000049c0       ??_C@_17IJPCKHK@?$AAJ?$AAu?$AAl?$AA?$AA@ 00000001400529c0     LIBCMT:nlsdata2.obj
 0002:000049c8       ??_C@_17KCJGOCPB@?$AAJ?$AAu?$AAn?$AA?$AA@ 00000001400529c8     LIBCMT:nlsdata2.obj
 0002:000049d0       ??_C@_17PNNKMEED@?$AAM?$AAa?$AAy?$AA?$AA@ 00000001400529d0     LIBCMT:nlsdata2.obj
 0002:000049d8       ??_C@_17LFPOIHDD@?$AAA?$AAp?$AAr?$AA?$AA@ 00000001400529d8     LIBCMT:nlsdata2.obj
 0002:000049e0       ??_C@_17CKNLEDEC@?$AAM?$AAa?$AAr?$AA?$AA@ 00000001400529e0     LIBCMT:nlsdata2.obj
 0002:000049e8       ??_C@_17LMDJEKJN@?$AAF?$AAe?$AAb?$AA?$AA@ 00000001400529e8     LIBCMT:nlsdata2.obj
 0002:000049f0       ??_C@_17DKNBKCHM@?$AAJ?$AAa?$AAn?$AA?$AA@ 00000001400529f0     LIBCMT:nlsdata2.obj
 0002:000049f8       ??_C@_1BC@ENMNNPAJ@?$AAS?$AAa?$AAt?$AAu?$AAr?$AAd?$AAa?$AAy?$AA?$AA@ 00000001400529f8     LIBCMT:nlsdata2.obj
 0002:00004a10       ??_C@_1O@PDICJHAG@?$AAF?$AAr?$AAi?$AAd?$AAa?$AAy?$AA?$AA@ 0000000140052a10     LIBCMT:nlsdata2.obj
 0002:00004a20       ??_C@_1BC@HHMNLIHE@?$AAT?$AAh?$AAu?$AAr?$AAs?$AAd?$AAa?$AAy?$AA?$AA@ 0000000140052a20     LIBCMT:nlsdata2.obj
 0002:00004a38       ??_C@_1BE@EBOGMDOH@?$AAW?$AAe?$AAd?$AAn?$AAe?$AAs?$AAd?$AAa?$AAy?$AA?$AA@ 0000000140052a38     LIBCMT:nlsdata2.obj
 0002:00004a50       ??_C@_1BA@ENFBFFEK@?$AAT?$AAu?$AAe?$AAs?$AAd?$AAa?$AAy?$AA?$AA@ 0000000140052a50     LIBCMT:nlsdata2.obj
 0002:00004a60       ??_C@_1O@MMNBFLIA@?$AAM?$AAo?$AAn?$AAd?$AAa?$AAy?$AA?$AA@ 0000000140052a60     LIBCMT:nlsdata2.obj
 0002:00004a70       ??_C@_1O@IHNHDHPB@?$AAS?$AAu?$AAn?$AAd?$AAa?$AAy?$AA?$AA@ 0000000140052a70     LIBCMT:nlsdata2.obj
 0002:00004a80       ??_C@_17GGIBDPIH@?$AAS?$AAa?$AAt?$AA?$AA@ 0000000140052a80     LIBCMT:nlsdata2.obj
 0002:00004a88       ??_C@_17HFOLPPLP@?$AAF?$AAr?$AAi?$AA?$AA@ 0000000140052a88     LIBCMT:nlsdata2.obj
 0002:00004a90       ??_C@_17PDPHAADD@?$AAT?$AAh?$AAu?$AA?$AA@ 0000000140052a90     LIBCMT:nlsdata2.obj
 0002:00004a98       ??_C@_17CJEDCEPE@?$AAW?$AAe?$AAd?$AA?$AA@ 0000000140052a98     LIBCMT:nlsdata2.obj
 0002:00004aa0       ??_C@_17BMKGEGOJ@?$AAT?$AAu?$AAe?$AA?$AA@ 0000000140052aa0     LIBCMT:nlsdata2.obj
 0002:00004aa8       ??_C@_17KBOMKBF@?$AAM?$AAo?$AAn?$AA?$AA@ 0000000140052aa8     LIBCMT:nlsdata2.obj
 0002:00004ab0       ??_C@_17MBGCMIPB@?$AAS?$AAu?$AAn?$AA?$AA@ 0000000140052ab0     LIBCMT:nlsdata2.obj
 0002:00004ab8       ??_C@_08JCCMCCIL@HH?3mm?3ss?$AA@ 0000000140052ab8     LIBCMT:nlsdata2.obj
 0002:00004ac8       ??_C@_0BE@CKGJFCPC@dddd?0?5MMMM?5dd?0?5yyyy?$AA@ 0000000140052ac8     LIBCMT:nlsdata2.obj
 0002:00004ae0       ??_C@_08BPBNCDIB@MM?1dd?1yy?$AA@ 0000000140052ae0     LIBCMT:nlsdata2.obj
 0002:00004aec       ??_C@_02CJNFDJBF@PM?$AA@   0000000140052aec     LIBCMT:nlsdata2.obj
 0002:00004af0       ??_C@_02DEDBPAFC@AM?$AA@   0000000140052af0     LIBCMT:nlsdata2.obj
 0002:00004af8       ??_C@_08EDHMEBNP@December?$AA@ 0000000140052af8     LIBCMT:nlsdata2.obj
 0002:00004b08       ??_C@_08HCHEGEOA@November?$AA@ 0000000140052b08     LIBCMT:nlsdata2.obj
 0002:00004b18       ??_C@_07JJNFCEND@October?$AA@ 0000000140052b18     LIBCMT:nlsdata2.obj
 0002:00004b20       ??_C@_09BHHEALKD@September?$AA@ 0000000140052b20     LIBCMT:nlsdata2.obj
 0002:00004b2c       ??_C@_06LBBHFDDG@August?$AA@ 0000000140052b2c     LIBCMT:nlsdata2.obj
 0002:00004b34       ??_C@_04MIEPOIFP@July?$AA@ 0000000140052b34     LIBCMT:nlsdata2.obj
 0002:00004b3c       ??_C@_04CNLMGBGM@June?$AA@ 0000000140052b3c     LIBCMT:nlsdata2.obj
 0002:00004b44       ??_C@_05DMJDNLEJ@April?$AA@ 0000000140052b44     LIBCMT:nlsdata2.obj
 0002:00004b4c       ??_C@_05HPCKOFNC@March?$AA@ 0000000140052b4c     LIBCMT:nlsdata2.obj
 0002:00004b58       ??_C@_08GNJGEPFN@February?$AA@ 0000000140052b58     LIBCMT:nlsdata2.obj
 0002:00004b68       ??_C@_07CGJPFGJA@January?$AA@ 0000000140052b68     LIBCMT:nlsdata2.obj
 0002:00004b70       ??_C@_03MKABNOCG@Dec?$AA@  0000000140052b70     LIBCMT:nlsdata2.obj
 0002:00004b74       ??_C@_03JPJOFNIA@Nov?$AA@  0000000140052b74     LIBCMT:nlsdata2.obj
 0002:00004b78       ??_C@_03BMAOKBAD@Oct?$AA@  0000000140052b78     LIBCMT:nlsdata2.obj
 0002:00004b7c       ??_C@_03GGCAPAJC@Sep?$AA@  0000000140052b7c     LIBCMT:nlsdata2.obj
 0002:00004b80       ??_C@_03IFJFEIGA@Aug?$AA@  0000000140052b80     LIBCMT:nlsdata2.obj
 0002:00004b84       ??_C@_03LBGABGKK@Jul?$AA@  0000000140052b84     LIBCMT:nlsdata2.obj
 0002:00004b88       ??_C@_03IDFGHECI@Jun?$AA@  0000000140052b88     LIBCMT:nlsdata2.obj
 0002:00004b8c       ??_C@_03CNMDKL@May?$AA@    0000000140052b8c     LIBCMT:nlsdata2.obj
 0002:00004b90       ??_C@_03LEOLGMJP@Apr?$AA@  0000000140052b90     LIBCMT:nlsdata2.obj
 0002:00004b94       ??_C@_03ODNJBKGA@Mar?$AA@  0000000140052b94     LIBCMT:nlsdata2.obj
 0002:00004b98       ??_C@_03HJBDCHOM@Feb?$AA@  0000000140052b98     LIBCMT:nlsdata2.obj
 0002:00004b9c       ??_C@_03JIHJHPIE@Jan?$AA@  0000000140052b9c     LIBCMT:nlsdata2.obj
 0002:00004ba0       ??_C@_08INBOOONO@Saturday?$AA@ 0000000140052ba0     LIBCMT:nlsdata2.obj
 0002:00004bac       ??_C@_06JECMNKMI@Friday?$AA@ 0000000140052bac     LIBCMT:nlsdata2.obj
 0002:00004bb8       ??_C@_08HACCIKIA@Thursday?$AA@ 0000000140052bb8     LIBCMT:nlsdata2.obj
 0002:00004bc8       ??_C@_09DLIGFAKA@Wednesday?$AA@ 0000000140052bc8     LIBCMT:nlsdata2.obj
 0002:00004bd8       ??_C@_07BAAGCFCM@Tuesday?$AA@ 0000000140052bd8     LIBCMT:nlsdata2.obj
 0002:00004be0       ??_C@_06JLEDEDGH@Monday?$AA@ 0000000140052be0     LIBCMT:nlsdata2.obj
 0002:00004be8       ??_C@_06OOPIFAJ@Sunday?$AA@ 0000000140052be8     LIBCMT:nlsdata2.obj
 0002:00004bf0       ??_C@_03FEFJNEK@Sat?$AA@   0000000140052bf0     LIBCMT:nlsdata2.obj
 0002:00004bf4       ??_C@_03IDIOELNC@Fri?$AA@  0000000140052bf4     LIBCMT:nlsdata2.obj
 0002:00004bf8       ??_C@_03IOFIKPDN@Thu?$AA@  0000000140052bf8     LIBCMT:nlsdata2.obj
 0002:00004bfc       ??_C@_03MHOMLAJA@Wed?$AA@  0000000140052bfc     LIBCMT:nlsdata2.obj
 0002:00004c00       ??_C@_03NAGEINEP@Tue?$AA@  0000000140052c00     LIBCMT:nlsdata2.obj
 0002:00004c04       ??_C@_03PDAGKDH@Mon?$AA@   0000000140052c04     LIBCMT:nlsdata2.obj
 0002:00004c08       ??_C@_03KOEHGMDN@Sun?$AA@  0000000140052c08     LIBCMT:nlsdata2.obj
 0002:00004c90       ??_C@_01NEMOKFLO@?$DN?$AA@ 0000000140052c90     LIBCMT:setlocal.obj
 0002:00004c98       ??_C@_0P@MIGLKIOC@CorExitProcess?$AA@ 0000000140052c98     LIBCMT:crt0dat.obj
 0002:00004ca8       ??_C@_1BI@BGOHAHKC@?$AAm?$AAs?$AAc?$AAo?$AAr?$AAe?$AAe?$AA?4?$AAd?$AAl?$AAl?$AA?$AA@ 0000000140052ca8     LIBCMT:crt0dat.obj
 0002:00004cc0       ??_C@_1BO@BKOMIGKJ@?$AAr?$AAu?$AAn?$AAt?$AAi?$AAm?$AAe?$AA?5?$AAe?$AAr?$AAr?$AAo?$AAr?$AA?5?$AA?$AA@ 0000000140052cc0     LIBCMT:crt0msg.obj
 0002:00004ce0       ??_C@_1BM@JBBEPPHI@?$AAT?$AAL?$AAO?$AAS?$AAS?$AA?5?$AAe?$AAr?$AAr?$AAo?$AAr?$AA?$AN?$AA?6?$AA?$AA@ 0000000140052ce0     LIBCMT:crt0msg.obj
 0002:00004d00       ??_C@_1BK@KMOMNAAI@?$AAS?$AAI?$AAN?$AAG?$AA?5?$AAe?$AAr?$AAr?$AAo?$AAr?$AA?$AN?$AA?6?$AA?$AA@ 0000000140052d00     LIBCMT:crt0msg.obj
 0002:00004d20       ??_C@_1BO@BFCDCGC@?$AAD?$AAO?$AAM?$AAA?$AAI?$AAN?$AA?5?$AAe?$AAr?$AAr?$AAo?$AAr?$AA?$AN?$AA?6?$AA?$AA@ 0000000140052d20     LIBCMT:crt0msg.obj
 0002:00004d40       ??_C@_1BOO@KGEDBGAJ@?$AAR?$AA6?$AA0?$AA3?$AA3?$AA?$AN?$AA?6?$AA?9?$AA?5?$AAA?$AAt?$AAt?$AAe?$AAm?$AAp?$AAt?$AA?5?$AAt?$AAo?$AA?5?$AAu?$AAs?$AAe?$AA?5?$AAM?$AAS?$AAI?$AAL?$AA?5?$AAc?$AAo?$AAd@ 0000000140052d40     LIBCMT:crt0msg.obj
 0002:00004f30       ??_C@_1GG@GOPILAJP@?$AAR?$AA6?$AA0?$AA3?$AA2?$AA?$AN?$AA?6?$AA?9?$AA?5?$AAn?$AAo?$AAt?$AA?5?$AAe?$AAn?$AAo?$AAu?$AAg?$AAh?$AA?5?$AAs?$AAp?$AAa?$AAc?$AAe?$AA?5?$AAf?$AAo?$AAr?$AA?5?$AAl?$AAo@ 0000000140052f30     LIBCMT:crt0msg.obj
 0002:00004fa0       ??_C@_1MG@ENCOOIDF@?$AAR?$AA6?$AA0?$AA3?$AA1?$AA?$AN?$AA?6?$AA?9?$AA?5?$AAA?$AAt?$AAt?$AAe?$AAm?$AAp?$AAt?$AA?5?$AAt?$AAo?$AA?5?$AAi?$AAn?$AAi?$AAt?$AAi?$AAa?$AAl?$AAi?$AAz?$AAe?$AA?5?$AAt@ 0000000140052fa0     LIBCMT:crt0msg.obj
 0002:00005068       ??_C@_1DO@BMFCDCD@?$AAR?$AA6?$AA0?$AA3?$AA0?$AA?$AN?$AA?6?$AA?9?$AA?5?$AAC?$AAR?$AAT?$AA?5?$AAn?$AAo?$AAt?$AA?5?$AAi?$AAn?$AAi?$AAt?$AAi?$AAa?$AAl?$AAi?$AAz?$AAe?$AAd?$AA?$AN?$AA?6?$AA?$AA@ 0000000140053068     LIBCMT:crt0msg.obj
 0002:000050b0       ??_C@_1EK@HHFLMAOL@?$AAR?$AA6?$AA0?$AA2?$AA8?$AA?$AN?$AA?6?$AA?9?$AA?5?$AAu?$AAn?$AAa?$AAb?$AAl?$AAe?$AA?5?$AAt?$AAo?$AA?5?$AAi?$AAn?$AAi?$AAt?$AAi?$AAa?$AAl?$AAi?$AAz?$AAe?$AA?5?$AAh?$AAe@ 00000001400530b0     LIBCMT:crt0msg.obj
 0002:00005100       ??_C@_1GK@MFGOKLAG@?$AAR?$AA6?$AA0?$AA2?$AA7?$AA?$AN?$AA?6?$AA?9?$AA?5?$AAn?$AAo?$AAt?$AA?5?$AAe?$AAn?$AAo?$AAu?$AAg?$AAh?$AA?5?$AAs?$AAp?$AAa?$AAc?$AAe?$AA?5?$AAf?$AAo?$AAr?$AA?5?$AAl?$AAo@ 0000000140053100     LIBCMT:crt0msg.obj
 0002:00005170       ??_C@_1GK@MCAAGJMO@?$AAR?$AA6?$AA0?$AA2?$AA6?$AA?$AN?$AA?6?$AA?9?$AA?5?$AAn?$AAo?$AAt?$AA?5?$AAe?$AAn?$AAo?$AAu?$AAg?$AAh?$AA?5?$AAs?$AAp?$AAa?$AAc?$AAe?$AA?5?$AAf?$AAo?$AAr?$AA?5?$AAs?$AAt@ 0000000140053170     LIBCMT:crt0msg.obj
 0002:000051e0       ??_C@_1EM@MAADIHMB@?$AAR?$AA6?$AA0?$AA2?$AA5?$AA?$AN?$AA?6?$AA?9?$AA?5?$AAp?$AAu?$AAr?$AAe?$AA?5?$AAv?$AAi?$AAr?$AAt?$AAu?$AAa?$AAl?$AA?5?$AAf?$AAu?$AAn?$AAc?$AAt?$AAi?$AAo?$AAn?$AA?5?$AAc@ 00000001400531e0     LIBCMT:crt0msg.obj
 0002:00005230       ??_C@_1GK@FHCKBEFA@?$AAR?$AA6?$AA0?$AA2?$AA4?$AA?$AN?$AA?6?$AA?9?$AA?5?$AAn?$AAo?$AAt?$AA?5?$AAe?$AAn?$AAo?$AAu?$AAg?$AAh?$AA?5?$AAs?$AAp?$AAa?$AAc?$AAe?$AA?5?$AAf?$AAo?$AAr?$AA?5?$AA_?$AAo@ 0000000140053230     LIBCMT:crt0msg.obj
 0002:000052a0       ??_C@_1FC@ECHBIFBC@?$AAR?$AA6?$AA0?$AA1?$AA9?$AA?$AN?$AA?6?$AA?9?$AA?5?$AAu?$AAn?$AAa?$AAb?$AAl?$AAe?$AA?5?$AAt?$AAo?$AA?5?$AAo?$AAp?$AAe?$AAn?$AA?5?$AAc?$AAo?$AAn?$AAs?$AAo?$AAl?$AAe?$AA?5@ 00000001400532a0     LIBCMT:crt0msg.obj
 0002:00005300       ??_C@_1EC@JIBHAOPH@?$AAR?$AA6?$AA0?$AA1?$AA8?$AA?$AN?$AA?6?$AA?9?$AA?5?$AAu?$AAn?$AAe?$AAx?$AAp?$AAe?$AAc?$AAt?$AAe?$AAd?$AA?5?$AAh?$AAe?$AAa?$AAp?$AA?5?$AAe?$AAr?$AAr?$AAo?$AAr?$AA?$AN?$AA?6@ 0000000140053300     LIBCMT:crt0msg.obj
 0002:00005350       ??_C@_1FK@BEOGODMC@?$AAR?$AA6?$AA0?$AA1?$AA7?$AA?$AN?$AA?6?$AA?9?$AA?5?$AAu?$AAn?$AAe?$AAx?$AAp?$AAe?$AAc?$AAt?$AAe?$AAd?$AA?5?$AAm?$AAu?$AAl?$AAt?$AAi?$AAt?$AAh?$AAr?$AAe?$AAa?$AAd?$AA?5@ 0000000140053350     LIBCMT:crt0msg.obj
 0002:000053b0       ??_C@_1FI@LOGNIKDM@?$AAR?$AA6?$AA0?$AA1?$AA6?$AA?$AN?$AA?6?$AA?9?$AA?5?$AAn?$AAo?$AAt?$AA?5?$AAe?$AAn?$AAo?$AAu?$AAg?$AAh?$AA?5?$AAs?$AAp?$AAa?$AAc?$AAe?$AA?5?$AAf?$AAo?$AAr?$AA?5?$AAt?$AAh@ 00000001400533b0     LIBCMT:crt0msg.obj
 0002:00005410       ??_C@_1EG@BEHAGFJD@?$AAR?$AA6?$AA0?$AA1?$AA0?$AA?$AN?$AA?6?$AA?9?$AA?5?$AAa?$AAb?$AAo?$AAr?$AAt?$AA?$CI?$AA?$CJ?$AA?5?$AAh?$AAa?$AAs?$AA?5?$AAb?$AAe?$AAe?$AAn?$AA?5?$AAc?$AAa?$AAl?$AAl?$AAe?$AAd@ 0000000140053410     LIBCMT:crt0msg.obj
 0002:00005460       ??_C@_1FI@HONFMGBI@?$AAR?$AA6?$AA0?$AA0?$AA9?$AA?$AN?$AA?6?$AA?9?$AA?5?$AAn?$AAo?$AAt?$AA?5?$AAe?$AAn?$AAo?$AAu?$AAg?$AAh?$AA?5?$AAs?$AAp?$AAa?$AAc?$AAe?$AA?5?$AAf?$AAo?$AAr?$AA?5?$AAe?$AAn@ 0000000140053460     LIBCMT:crt0msg.obj
 0002:000054c0       ??_C@_1FE@LLNEDJMD@?$AAR?$AA6?$AA0?$AA0?$AA8?$AA?$AN?$AA?6?$AA?9?$AA?5?$AAn?$AAo?$AAt?$AA?5?$AAe?$AAn?$AAo?$AAu?$AAg?$AAh?$AA?5?$AAs?$AAp?$AAa?$AAc?$AAe?$AA?5?$AAf?$AAo?$AAr?$AA?5?$AAa?$AAr@ 00000001400534c0     LIBCMT:crt0msg.obj
 0002:00005520       ??_C@_1FK@PGACCAFB@?$AAR?$AA6?$AA0?$AA0?$AA2?$AA?$AN?$AA?6?$AA?9?$AA?5?$AAf?$AAl?$AAo?$AAa?$AAt?$AAi?$AAn?$AAg?$AA?5?$AAp?$AAo?$AAi?$AAn?$AAt?$AA?5?$AAs?$AAu?$AAp?$AAp?$AAo?$AAr?$AAt?$AA?5@ 0000000140053520     LIBCMT:crt0msg.obj
 0002:000056e0       ??_C@_1EK@MBDPDCGA@?$AAM?$AAi?$AAc?$AAr?$AAo?$AAs?$AAo?$AAf?$AAt?$AA?5?$AAV?$AAi?$AAs?$AAu?$AAa?$AAl?$AA?5?$AAC?$AA?$CL?$AA?$CL?$AA?5?$AAR?$AAu?$AAn?$AAt?$AAi?$AAm?$AAe?$AA?5?$AAL?$AAi?$AAb@ 00000001400536e0     LIBCMT:crt0msg.obj
 0002:0000572c       ??_C@_15IABLJNFO@?$AA?6?$AA?6?$AA?$AA@ 000000014005372c     LIBCMT:crt0msg.obj
 0002:00005738       ??_C@_17LGKOMLJ@?$AA?4?$AA?4?$AA?4?$AA?$AA@ 0000000140053738     LIBCMT:crt0msg.obj
 0002:00005740       ??_C@_1CO@EAEJAADC@?$AA?$DM?$AAp?$AAr?$AAo?$AAg?$AAr?$AAa?$AAm?$AA?5?$AAn?$AAa?$AAm?$AAe?$AA?5?$AAu?$AAn?$AAk?$AAn?$AAo?$AAw?$AAn?$AA?$DO?$AA?$AA@ 0000000140053740     LIBCMT:crt0msg.obj
 0002:00005770       ??_C@_1DE@JNGNBFGO@?$AAR?$AAu?$AAn?$AAt?$AAi?$AAm?$AAe?$AA?5?$AAE?$AAr?$AAr?$AAo?$AAr?$AA?$CB?$AA?6?$AA?6?$AAP?$AAr?$AAo?$AAg?$AAr?$AAa?$AAm?$AA?3?$AA?5?$AA?$AA@ 0000000140053770     LIBCMT:crt0msg.obj
 0002:000057e8       ??_C@_1O@CEDCILHN@?$AA?$CI?$AAn?$AAu?$AAl?$AAl?$AA?$CJ?$AA?$AA@ 00000001400537e8     LIBCMT:output.obj
 0002:000057f8       ??_C@_06OJHGLDPL@?$CInull?$CJ?$AA@ 00000001400537f8     LIBCMT:output.obj
 0002:00005800       __lookuptable              0000000140053800     LIBCMT:output.obj
 0002:00005860       __lookuptable_s            0000000140053860     LIBCMT:outputs.obj
 0002:000058c0       _XcptActTab                00000001400538c0     LIBCMT:winxfltr.obj
 0002:00005980       _First_FPE_Indx            0000000140053980     LIBCMT:winxfltr.obj
 0002:00005984       _Num_FPE                   0000000140053984     LIBCMT:winxfltr.obj
 0002:00005988       _XcptActTabSize            0000000140053988     LIBCMT:winxfltr.obj
 0002:0000598c       _XcptActTabCount           000000014005398c     LIBCMT:winxfltr.obj
 0002:00005990       _pDestructExceptionObject  0000000140053990     LIBCMT:frame.obj
 0002:000059a0       ??_7bad_exception@std@@6B@ 00000001400539a0     LIBCMT:frame.obj
 0002:000059b0       ??_C@_0O@DPKOEFFH@bad?5exception?$AA@ 00000001400539b0     LIBCMT:frame.obj
 0002:000059e8       __real@0000000000000000    00000001400539e8     LIBCMT:cvt.obj
 0002:000059f0       ??_C@_05KLBDPFGC@e?$CL000?$AA@ 00000001400539f0     LIBCMT:cvt.obj
 0002:000059f8       ??_C@_0BK@CFCOFLF@?5Complete?5Object?5Locator?8?$AA@ 00000001400539f8     LIBCMT:undname.obj
 0002:00005a18       ??_C@_0BN@MECKDCOJ@?5Class?5Hierarchy?5Descriptor?8?$AA@ 0000000140053a18     LIBCMT:undname.obj
 0002:00005a38       ??_C@_0BD@LGICGFMM@?5Base?5Class?5Array?8?$AA@ 0000000140053a38     LIBCMT:undname.obj
 0002:00005a50       ??_C@_0BM@LDKODKLH@?5Base?5Class?5Descriptor?5at?5?$CI?$AA@ 0000000140053a50     LIBCMT:undname.obj
 0002:00005a70       ??_C@_0BC@DAFEJGAK@?5Type?5Descriptor?8?$AA@ 0000000140053a70     LIBCMT:undname.obj
 0002:00005a88       ??_C@_0BM@PMGGMLDN@?$GAlocal?5static?5thread?5guard?8?$AA@ 0000000140053a88     LIBCMT:undname.obj
 0002:00005aa8       ??_C@_0CL@FGIJHLCE@?$GAmanaged?5vector?5copy?5constructor@ 0000000140053aa8     LIBCMT:undname.obj
 0002:00005ad8       ??_C@_0CJ@GJELGAMM@?$GAvector?5vbase?5copy?5constructor?5i@ 0000000140053ad8     LIBCMT:undname.obj
 0002:00005b08       ??_C@_0CD@CGAJBKEJ@?$GAvector?5copy?5constructor?5iterato@ 0000000140053b08     LIBCMT:undname.obj
 0002:00005b30       ??_C@_0CB@PDBIFEP@?$GAdynamic?5atexit?5destructor?5for?5?8@ 0000000140053b30     LIBCMT:undname.obj
 0002:00005b58       ??_C@_0BL@CLIPGLGB@?$GAdynamic?5initializer?5for?5?8?$AA@ 0000000140053b58     LIBCMT:undname.obj
 0002:00005b78       ??_C@_0CM@FCBBDIGB@?$GAeh?5vector?5vbase?5copy?5constructo@ 0000000140053b78     LIBCMT:undname.obj
 0002:00005ba8       ??_C@_0CG@HLDDJMAG@?$GAeh?5vector?5copy?5constructor?5iter@ 0000000140053ba8     LIBCMT:undname.obj
 0002:00005bd0       ??_C@_0CF@IMGKMJNO@?$GAmanaged?5vector?5destructor?5itera@ 0000000140053bd0     LIBCMT:undname.obj
 0002:00005bf8       ??_C@_0CG@CFDHKGGD@?$GAmanaged?5vector?5constructor?5iter@ 0000000140053bf8     LIBCMT:undname.obj
 0002:00005c20       ??_C@_0BN@CKNJLHMB@?$GAplacement?5delete?$FL?$FN?5closure?8?$AA@ 0000000140053c20     LIBCMT:undname.obj
 0002:00005c40       ??_C@_0BL@CNOONJFP@?$GAplacement?5delete?5closure?8?$AA@ 0000000140053c40     LIBCMT:undname.obj
 0002:00005c60       ??_C@_0P@HJKNJFNN@?$GAomni?5callsig?8?$AA@ 0000000140053c60     LIBCMT:undname.obj
 0002:00005c70       ??_C@_09LBNFPBCA@?5delete?$FL?$FN?$AA@ 0000000140053c70     LIBCMT:undname.obj
 0002:00005c7c       ??_C@_06FHBGPFGH@?5new?$FL?$FN?$AA@ 0000000140053c7c     LIBCMT:undname.obj
 0002:00005c88       ??_C@_0CE@IIHCMGGL@?$GAlocal?5vftable?5constructor?5closu@ 0000000140053c88     LIBCMT:undname.obj
 0002:00005cb0       ??_C@_0BA@KKLDJDLB@?$GAlocal?5vftable?8?$AA@ 0000000140053cb0     LIBCMT:undname.obj
 0002:00005cc0       ??_C@_05KHLCHHI@?$GARTTI?$AA@ 0000000140053cc0     LIBCMT:undname.obj
 0002:00005cc8       ??_C@_03KLGMFNMG@?$GAEH?$AA@ 0000000140053cc8     LIBCMT:undname.obj
 0002:00005cd0       ??_C@_0BA@KBCDOMBN@?$GAudt?5returning?8?$AA@ 0000000140053cd0     LIBCMT:undname.obj
 0002:00005ce0       ??_C@_0BL@LLKPOHJI@?$GAcopy?5constructor?5closure?8?$AA@ 0000000140053ce0     LIBCMT:undname.obj
 0002:00005d00       ??_C@_0CH@OOJPLCPH@?$GAeh?5vector?5vbase?5constructor?5ite@ 0000000140053d00     LIBCMT:undname.obj
 0002:00005d28       ??_C@_0CA@GCEOPDGL@?$GAeh?5vector?5destructor?5iterator?8?$AA@ 0000000140053d28     LIBCMT:undname.obj
 0002:00005d48       ??_C@_0CB@JONCMFFK@?$GAeh?5vector?5constructor?5iterator?8@ 0000000140053d48     LIBCMT:undname.obj
 0002:00005d70       ??_C@_0BL@NILFHHPC@?$GAvirtual?5displacement?5map?8?$AA@ 0000000140053d70     LIBCMT:undname.obj
 0002:00005d90       ??_C@_0CE@IKBNEHA@?$GAvector?5vbase?5constructor?5iterat@ 0000000140053d90     LIBCMT:undname.obj
 0002:00005db8       ??_C@_0BN@LFPFMEDL@?$GAvector?5destructor?5iterator?8?$AA@ 0000000140053db8     LIBCMT:undname.obj
 0002:00005dd8       ??_C@_0BO@PFGOCPJJ@?$GAvector?5constructor?5iterator?8?$AA@ 0000000140053dd8     LIBCMT:undname.obj
 0002:00005df8       ??_C@_0BN@IMDCHIKM@?$GAscalar?5deleting?5destructor?8?$AA@ 0000000140053df8     LIBCMT:undname.obj
 0002:00005e18       ??_C@_0BO@OBMKPJIG@?$GAdefault?5constructor?5closure?8?$AA@ 0000000140053e18     LIBCMT:undname.obj
 0002:00005e38       ??_C@_0BN@DEGPLNFK@?$GAvector?5deleting?5destructor?8?$AA@ 0000000140053e38     LIBCMT:undname.obj
 0002:00005e58       ??_C@_0BD@JDLKDPAB@?$GAvbase?5destructor?8?$AA@ 0000000140053e58     LIBCMT:undname.obj
 0002:00005e70       ??_C@_08OBABFOLI@?$GAstring?8?$AA@ 0000000140053e70     LIBCMT:undname.obj
 0002:00005e80       ??_C@_0BF@KDPPACIK@?$GAlocal?5static?5guard?8?$AA@ 0000000140053e80     LIBCMT:undname.obj
 0002:00005e98       ??_C@_08LLFFHHDJ@?$GAtypeof?8?$AA@ 0000000140053e98     LIBCMT:undname.obj
 0002:00005ea8       ??_C@_07FEEIOKP@?$GAvcall?8?$AA@ 0000000140053ea8     LIBCMT:undname.obj
 0002:00005eb0       ??_C@_09BLBHBJP@?$GAvbtable?8?$AA@ 0000000140053eb0     LIBCMT:undname.obj
 0002:00005ec0       ??_C@_09IFPLHPGF@?$GAvftable?8?$AA@ 0000000140053ec0     LIBCMT:undname.obj
 0002:00005ecc       ??_C@_02MHEGNOJ@?$FO?$DN?$AA@ 0000000140053ecc     LIBCMT:undname.obj
 0002:00005ed0       ??_C@_02DHLNPPGH@?$HM?$DN?$AA@ 0000000140053ed0     LIBCMT:undname.obj
 0002:00005ed4       ??_C@_02FGJGFEAB@?$CG?$DN?$AA@ 0000000140053ed4     LIBCMT:undname.obj
 0002:00005ed8       ??_C@_03CDNPDDLA@?$DM?$DM?$DN?$AA@ 0000000140053ed8     LIBCMT:undname.obj
 0002:00005edc       ??_C@_03IKFCCPFF@?$DO?$DO?$DN?$AA@ 0000000140053edc     LIBCMT:undname.obj
 0002:00005ee0       ??_C@_02FENAOKFI@?$CF?$DN?$AA@ 0000000140053ee0     LIBCMT:undname.obj
 0002:00005ee4       ??_C@_02FJEHGPIO@?1?$DN?$AA@ 0000000140053ee4     LIBCMT:undname.obj
 0002:00005ee8       ??_C@_02FKMDLLOA@?9?$DN?$AA@ 0000000140053ee8     LIBCMT:undname.obj
 0002:00005eec       ??_C@_02FOEOMHFC@?$CL?$DN?$AA@ 0000000140053eec     LIBCMT:undname.obj
 0002:00005ef0       ??_C@_02FPIMKNGF@?$CK?$DN?$AA@ 0000000140053ef0     LIBCMT:undname.obj
 0002:00005ef4       ??_C@_02NONPIBCD@?$HM?$HM?$AA@ 0000000140053ef4     LIBCMT:undname.obj
 0002:00005ef8       ??_C@_02PPKAJPJL@?$CG?$CG?$AA@ 0000000140053ef8     LIBCMT:undname.obj
 0002:00005efc       ??_C@_01DNKMNLPK@?$HM?$AA@ 0000000140053efc     LIBCMT:undname.obj
 0002:00005f00       ??_C@_01JKBOJNNK@?$FO?$AA@ 0000000140053f00     LIBCMT:undname.obj
 0002:00005f04       ??_C@_01PJKLJHI@?$HO?$AA@  0000000140053f04     LIBCMT:undname.obj
 0002:00005f08       ??_C@_02HCKGKOFO@?$CI?$CJ?$AA@ 0000000140053f08     LIBCMT:undname.obj
 0002:00005f0c       ??_C@_01IHBHIGKO@?0?$AA@   0000000140053f0c     LIBCMT:undname.obj
 0002:00005f10       ??_C@_02EEKDKGMJ@?$DO?$DN?$AA@ 0000000140053f10     LIBCMT:undname.obj
 0002:00005f14       ??_C@_02EHCHHCKH@?$DM?$DN?$AA@ 0000000140053f14     LIBCMT:undname.obj
 0002:00005f18       ??_C@_01FGNFDNOH@?$CF?$AA@ 0000000140053f18     LIBCMT:undname.obj
 0002:00005f1c       ??_C@_01KMDKNFGN@?1?$AA@   0000000140053f1c     LIBCMT:undname.obj
 0002:00005f20       ??_C@_03MNHNFDLC@?9?$DO?$CK?$AA@ 0000000140053f20     LIBCMT:undname.obj
 0002:00005f24       ??_C@_01HNPIGOCE@?$CG?$AA@ 0000000140053f24     LIBCMT:undname.obj
 0002:00005f28       ??_C@_01MIFGBAGJ@?$CL?$AA@ 0000000140053f28     LIBCMT:undname.obj
 0002:00005f2c       ??_C@_01JOAMLHOP@?9?$AA@   0000000140053f2c     LIBCMT:undname.obj
 0002:00005f30       ??_C@_02BAABKJLB@?9?9?$AA@ 0000000140053f30     LIBCMT:undname.obj
 0002:00005f34       ??_C@_02ECNGHCIF@?$CL?$CL?$AA@ 0000000140053f34     LIBCMT:undname.obj
 0002:00005f38       ??_C@_01NBENCBCI@?$CK?$AA@ 0000000140053f38     LIBCMT:undname.obj
 0002:00005f3c       ??_C@_02HBOOOICD@?9?$DO?$AA@ 0000000140053f3c     LIBCMT:undname.obj
 0002:00005f40       ??_C@_08LHJFAFGD@operator?$AA@ 0000000140053f40     LIBCMT:undname.obj
 0002:00005f4c       ??_C@_02GPECMEKF@?$FL?$FN?$AA@ 0000000140053f4c     LIBCMT:undname.obj
 0002:00005f50       ??_C@_02FDNJECIE@?$CB?$DN?$AA@ 0000000140053f50     LIBCMT:undname.obj
 0002:00005f54       ??_C@_02EGOFBIJA@?$DN?$DN?$AA@ 0000000140053f54     LIBCMT:undname.obj
 0002:00005f58       ??_C@_01DCLJPIOD@?$CB?$AA@ 0000000140053f58     LIBCMT:undname.obj
 0002:00005f5c       ??_C@_02FODMEDOG@?$DM?$DM?$AA@ 0000000140053f5c     LIBCMT:undname.obj
 0002:00005f60       ??_C@_02GPIOPFAK@?$DO?$DO?$AA@ 0000000140053f60     LIBCMT:undname.obj
 0002:00005f68       ??_C@_07FPCDHGMM@?5delete?$AA@ 0000000140053f68     LIBCMT:undname.obj
 0002:00005f70       ??_C@_04NIHEBCM@?5new?$AA@ 0000000140053f70     LIBCMT:undname.obj
 0002:00005f78       ??_C@_0M@GFIIJFMG@__unaligned?$AA@ 0000000140053f78     LIBCMT:undname.obj
 0002:00005f88       ??_C@_0L@PILCLIHE@__restrict?$AA@ 0000000140053f88     LIBCMT:undname.obj
 0002:00005f98       ??_C@_07JOMMBBKO@__ptr64?$AA@ 0000000140053f98     LIBCMT:undname.obj
 0002:00005fa0       ??_C@_06GHPCKEAG@__eabi?$AA@ 0000000140053fa0     LIBCMT:undname.obj
 0002:00005fa8       ??_C@_09HIJEGCPM@__clrcall?$AA@ 0000000140053fa8     LIBCMT:undname.obj
 0002:00005fb8       ??_C@_0L@JMKHOMEK@__fastcall?$AA@ 0000000140053fb8     LIBCMT:undname.obj
 0002:00005fc8       ??_C@_0L@NPHFGOKO@__thiscall?$AA@ 0000000140053fc8     LIBCMT:undname.obj
 0002:00005fd8       ??_C@_09IFJBGAPI@__stdcall?$AA@ 0000000140053fd8     LIBCMT:undname.obj
 0002:00005fe8       ??_C@_08GHMPAG@__pascal?$AA@ 0000000140053fe8     LIBCMT:undname.obj
 0002:00005ff8       ??_C@_07KOLFKCDI@__cdecl?$AA@ 0000000140053ff8     LIBCMT:undname.obj
 0002:00006000       ??_C@_08EHJDFFNH@__based?$CI?$AA@ 0000000140054000     LIBCMT:undname.obj
 0002:00006320       __newctype                 0000000140054320     LIBCMT:ctype.obj
 0002:00006620       _wctype                    0000000140054620     LIBCMT:ctype.obj
 0002:00006830       __newclmap                 0000000140054830     LIBCMT:ctype.obj
 0002:000069b0       __newcumap                 00000001400549b0     LIBCMT:ctype.obj
 0002:00006b30       ??_C@_0BI@DFKBFLJE@GetProcessWindowStation?$AA@ 0000000140054b30     LIBCMT:crtmboxw.obj
 0002:00006b48       ??_C@_0BK@DEKFELLI@GetUserObjectInformationW?$AA@ 0000000140054b48     LIBCMT:crtmboxw.obj
 0002:00006b68       ??_C@_0BD@HHGDFDBJ@GetLastActivePopup?$AA@ 0000000140054b68     LIBCMT:crtmboxw.obj
 0002:00006b80       ??_C@_0BA@HNOPNCHB@GetActiveWindow?$AA@ 0000000140054b80     LIBCMT:crtmboxw.obj
 0002:00006b90       ??_C@_0M@DLDCCGNP@MessageBoxW?$AA@ 0000000140054b90     LIBCMT:crtmboxw.obj
 0002:00006ba0       ??_C@_1BG@GOEBHBDC@?$AAU?$AAS?$AAE?$AAR?$AA3?$AA2?$AA?4?$AAD?$AAL?$AAL?$AA?$AA@ 0000000140054ba0     LIBCMT:crtmboxw.obj
 0002:00006bb8       ??_C@_06IMKFLFPG@1?$CDQNAN?$AA@ 0000000140054bb8     LIBCMT:_x10fout_.obj
 0002:00006bc0       ??_C@_05DNEBIAHO@1?$CDINF?$AA@ 0000000140054bc0     LIBCMT:_x10fout_.obj
 0002:00006bc8       ??_C@_05PHHOCPM@1?$CDIND?$AA@ 0000000140054bc8     LIBCMT:_x10fout_.obj
 0002:00006bd0       ??_C@_06PGGFOGJG@1?$CDSNAN?$AA@ 0000000140054bd0     LIBCMT:_x10fout_.obj
 0002:00006bd8       ??_C@_1BA@BALFACEM@?$AAC?$AAO?$AAN?$AAO?$AAU?$AAT?$AA$?$AA?$AA@ 0000000140054bd8     LIBCMT:initcon.obj
 0002:00006be8       ??_C@_1BA@JIHHIEDE@?$AAT?$AAy?$AAp?$AAe?$AAL?$AAi?$AAb?$AA?$AA@ 0000000140054be8     AboutGui.obj
 0002:00006bf8       ??_C@_1BC@EAHCMADO@?$AAS?$AAo?$AAf?$AAt?$AAw?$AAa?$AAr?$AAe?$AA?$AA@ 0000000140054bf8     AboutGui.obj
 0002:00006c10       ??_C@_1O@GBFINDKL@?$AAS?$AAY?$AAS?$AAT?$AAE?$AAM?$AA?$AA@ 0000000140054c10     AboutGui.obj
 0002:00006c20       ??_C@_1BC@IBECJAAI@?$AAS?$AAE?$AAC?$AAU?$AAR?$AAI?$AAT?$AAY?$AA?$AA@ 0000000140054c20     AboutGui.obj
 0002:00006c38       ??_C@_17OMAOINJK@?$AAS?$AAA?$AAM?$AA?$AA@ 0000000140054c38     AboutGui.obj
 0002:00006c40       ??_C@_19HLLLM@?$AAM?$AAi?$AAm?$AAe?$AA?$AA@ 0000000140054c40     AboutGui.obj
 0002:00006c50       ??_C@_1BC@MAICEHGI@?$AAH?$AAa?$AAr?$AAd?$AAw?$AAa?$AAr?$AAe?$AA?$AA@ 0000000140054c50     AboutGui.obj
 0002:00006c68       ??_C@_1BE@EKPAFMCP@?$AAI?$AAn?$AAt?$AAe?$AAr?$AAf?$AAa?$AAc?$AAe?$AA?$AA@ 0000000140054c68     AboutGui.obj
 0002:00006c80       ??_C@_1BC@NKMMNMGL@?$AAF?$AAi?$AAl?$AAe?$AAT?$AAy?$AAp?$AAe?$AA?$AA@ 0000000140054c80     AboutGui.obj
 0002:00006c98       ??_C@_1CK@OEKPKBNA@?$AAC?$AAo?$AAm?$AAp?$AAo?$AAn?$AAe?$AAn?$AAt?$AA?5?$AAC?$AAa?$AAt?$AAe?$AAg?$AAo?$AAr?$AAi?$AAe?$AAs?$AA?$AA@ 0000000140054c98     AboutGui.obj
 0002:00006cc8       ??_C@_1O@JDLOHAN@?$AAD?$AAe?$AAl?$AAe?$AAt?$AAe?$AA?$AA@ 0000000140054cc8     AboutGui.obj
 0002:00006cd8       ??_C@_1BC@GCKHIPE@?$AAN?$AAo?$AAR?$AAe?$AAm?$AAo?$AAv?$AAe?$AA?$AA@ 0000000140054cd8     AboutGui.obj
 0002:00006cf0       ??_C@_1BI@JFAIJMHL@?$AAF?$AAo?$AAr?$AAc?$AAe?$AAR?$AAe?$AAm?$AAo?$AAv?$AAe?$AA?$AA@ 0000000140054cf0     AboutGui.obj
 0002:00006d08       ??_C@_17LLMMEOJD@?$AAV?$AAa?$AAl?$AA?$AA@ 0000000140054d08     AboutGui.obj
 0002:00006d10       ??_C@_13OPKGLAFF@?$AAB?$AA?$AA@ 0000000140054d10     AboutGui.obj
 0002:00006d14       ??_C@_13MKMNOPIJ@?$AAD?$AA?$AA@ 0000000140054d14     AboutGui.obj
 0002:00006d18       ??_C@_13LHMFKAAD@?$AAM?$AA?$AA@ 0000000140054d18     AboutGui.obj
 0002:00006d1c       ??_C@_13HADIAKP@?$AAS?$AA?$AA@ 0000000140054d1c     AboutGui.obj
 0002:00006d20       ??_C@_1M@KANJNLFF@?$AAC?$AAL?$AAS?$AAI?$AAD?$AA?$AA@ 0000000140054d20     AboutGui.obj
 0002:00006d30       ??_C@_1M@EJNEECMJ@?$AAA?$AAp?$AAp?$AAI?$AAD?$AA?$AA@ 0000000140054d30     AboutGui.obj
 0002:00006d40       ?rgszNeverDelete@CRegParser@ATL@@1QBQEB_WB 0000000140054d40     AboutGui.obj
 0002:00006da0       ?DEBUG_LOG_FILENAME@Scylla@@0QB_WB 0000000140054da0     Scylla.obj
 0002:00006dc8       ?PLUGIN_DIR@PluginLoader@@0QB_WB 0000000140054dc8     PluginLoader.obj
 0002:00006de0       ?PLUGIN_SEARCH_STRING@PluginLoader@@0QB_WB 0000000140054de0     PluginLoader.obj
 0002:00006df0       ?PLUGIN_IMPREC_DIR@PluginLoader@@0QB_WB 0000000140054df0     PluginLoader.obj
 0002:00006e10       ?PLUGIN_IMPREC_WRAPPER_DLL@PluginLoader@@0QB_WB 0000000140054e10     PluginLoader.obj
 0002:00006e40       ?filterExe@MainGui@@1QB_WB 0000000140054e40     MainGui.obj
 0002:00006e90       ?filterDll@MainGui@@1QB_WB 0000000140054e90     MainGui.obj
 0002:00006f00       ?filterExeDll@MainGui@@1QB_WB 0000000140054f00     MainGui.obj
 0002:00006fa0       ?filterTxt@MainGui@@1QB_WB 0000000140054fa0     MainGui.obj
 0002:00006ff0       ?filterXml@MainGui@@1QB_WB 0000000140054ff0     MainGui.obj
 0002:00007040       ?filterMem@MainGui@@1QB_WB 0000000140055040     MainGui.obj
 0002:000070c0       ?MemoryUndefined@DumpMemoryGui@@0QB_WB 00000001400550c0     DumpMemoryGui.obj
 0002:000070d0       ?MemoryUnknown@DumpMemoryGui@@0QB_WB 00000001400550d0     DumpMemoryGui.obj
 0002:000070e0       ?TEXT_DONATE@DonateGui@@1QB_WB 00000001400550e0     DonateGui.obj
 0002:000071f8       ?CONFIG_FILE_SECTION_NAME@ConfigurationHolder@@0QB_WB 00000001400551f8     ConfigurationHolder.obj
 0002:00007218       ?URL_VISIT2@AboutGui@@1QB_WB 0000000140055218     AboutGui.obj
 0002:00007250       ?TEXT_VISIT@AboutGui@@1QB_WB 0000000140055250     AboutGui.obj
 0002:000072d0       ?TEXT_DEVELOPED@AboutGui@@1QB_WB 00000001400552d0     AboutGui.obj
 0002:00007350       ?TEXT_CREDIT_DISTORM@AboutGui@@1QB_WB 0000000140055350     AboutGui.obj
 0002:000073c8       ?URL_WTL@AboutGui@@1QB_WB  00000001400553c8     AboutGui.obj
 0002:00007400       ?TEXT_CREDIT_YODA@AboutGui@@1QB_WB 0000000140055400     AboutGui.obj
 0002:00007458       ?URL_VISIT1@AboutGui@@1QB_WB 0000000140055458     AboutGui.obj
 0002:00007498       ?URL_SILK@AboutGui@@1QB_WB 0000000140055498     AboutGui.obj
 0002:000074d0       ?TEXT_CREDIT_SILK@AboutGui@@1QB_WB 00000001400554d0     AboutGui.obj
 0002:00007550       ?TEXT_CREDIT_WTL@AboutGui@@1QB_WB 0000000140055550     AboutGui.obj
 0002:000075c0       ?TEXT_GREETINGS@AboutGui@@1QB_WB 00000001400555c0     AboutGui.obj
 0002:00007620       ?TEXT_LICENSE@AboutGui@@1QB_WB 0000000140055620     AboutGui.obj
 0002:000076b0       ?TEXT_TINYXML@AboutGui@@1QB_WB 00000001400556b0     AboutGui.obj
 0002:00007710       ?URL_DISTORM@AboutGui@@1QB_WB 0000000140055710     AboutGui.obj
 0002:00007760       ?URL_LICENSE@AboutGui@@1QB_WB 0000000140055760     AboutGui.obj
 0002:000077c0       ?URL_TINYXML@AboutGui@@1QB_WB 00000001400557c0     AboutGui.obj
 0002:00007818       ??_C@_1CE@GHEINHMD@?$AAS?$AAc?$AAy?$AAl?$AAl?$AAa?$AA?5?$AAx?$AA6?$AA4?$AA?5?$AAv?$AA0?$AA?4?$AA9?$AA?4?$AA8?$AA?$AA@ 0000000140055818     AboutGui.obj
 0002:00007840       ??_C@_19BDAJEHDN@?$AAo?$AAp?$AAe?$AAn?$AA?$AA@ 0000000140055840     AboutGui.obj
 0002:00007850       ??_C@_1CC@KPOKNCMJ@?$AAt?$AAo?$AAo?$AAl?$AAt?$AAi?$AAp?$AAs?$AA_?$AAc?$AAl?$AAa?$AAs?$AAs?$AA3?$AA2?$AA?$AA@ 0000000140055850     AboutGui.obj
 0002:00007878       ??_C@_1BK@MGMFAEKH@?$AAk?$AAe?$AAr?$AAn?$AAe?$AAl?$AA3?$AA2?$AA?4?$AAd?$AAl?$AAl?$AA?$AA@ 0000000140055878     ApiReader.obj
 0002:00007898       ??_C@_1CG@EGHLDGJO@?$AAM?$AAo?$AAd?$AAu?$AAl?$AAe?$AA?5?$AAp?$AAa?$AAr?$AAs?$AAi?$AAn?$AAg?$AA?3?$AA?5?$AA?$CF?$AAs?$AA?$AA@ 0000000140055898     ApiReader.obj
 0002:000078c0       ??_C@_04MICCJKBJ@API?9?$AA@ 00000001400558c0     ApiReader.obj
 0002:000078c8       ??_C@_04OMOICEBF@EXT?9?$AA@ 00000001400558c8     ApiReader.obj
 0002:000078d0       ??_C@_04HLONOPDM@?4dll?$AA@ 00000001400558d0     ApiReader.obj
 0002:000078e0       ??_C@_1EK@NPBLOOBP@?$AA?9?$AA?$DO?$AA?5?$AAI?$AAM?$AAA?$AAG?$AAE?$AA_?$AAN?$AAT?$AA_?$AAS?$AAI?$AAG?$AAN?$AAA?$AAT?$AAU?$AAR?$AAE?$AA?5?$AAd?$AAo?$AAe?$AAs?$AAn?$AA?8?$AAt?$AA?5?$AAm?$AAa@ 00000001400558e0     ApiReader.obj
 0002:00007930       ??_C@_1CI@FNHPDPDD@?$AA?9?$AA?$DO?$AA?5?$AAN?$AAo?$AA?5?$AAe?$AAx?$AAp?$AAo?$AAr?$AAt?$AA?5?$AAt?$AAa?$AAb?$AAl?$AAe?$AA?4?$AA?$AA@ 0000000140055930     ApiReader.obj
 0002:00007958       ??_C@_1BO@MFOKJHPK@?$AAk?$AAe?$AAr?$AAn?$AAe?$AAl?$AAb?$AAa?$AAs?$AAe?$AA?4?$AAd?$AAl?$AAl?$AA?$AA@ 0000000140055958     ApiReader.obj
 0002:00007978       ??_C@_1BE@GJOFHIHD@?$AAn?$AAt?$AAd?$AAl?$AAl?$AA?4?$AAd?$AAl?$AAl?$AA?$AA@ 0000000140055978     ApiReader.obj
 0002:00007990       ??_C@_1BI@EPOJMAKJ@?$AAs?$AAh?$AAl?$AAw?$AAa?$AAp?$AAi?$AA?4?$AAd?$AAl?$AAl?$AA?$AA@ 0000000140055990     ApiReader.obj
 0002:000079a8       ??_C@_1BI@CBIFPKFD@?$AAS?$AAh?$AAi?$AAm?$AAE?$AAn?$AAg?$AA?4?$AAd?$AAl?$AAl?$AA?$AA@ 00000001400559a8     ApiReader.obj
 0002:000079c0       ??_C@_19ECCECEJG@?$AAA?$AAP?$AAI?$AA?9?$AA?$AA@ 00000001400559c0     ApiReader.obj
 0002:000079d0       ??_C@_19CHGCIOBM@?$AAE?$AAX?$AAT?$AA?9?$AA?$AA@ 00000001400559d0     ApiReader.obj
 0002:000079e0       ??_C@_1IK@NICPHJIB@?$AAg?$AAe?$AAt?$AAA?$AAp?$AAi?$AAB?$AAy?$AAV?$AAi?$AAr?$AAt?$AAu?$AAa?$AAl?$AAA?$AAd?$AAd?$AAr?$AAe?$AAs?$AAs?$AA?5?$AA?3?$AA?3?$AA?5?$AAT?$AAh?$AAe?$AAr?$AAe?$AA?5@ 00000001400559e0     ApiReader.obj
 0002:00007a70       ??_C@_1DK@FILACLGB@?$AA?9?$AA?$DO?$AA?5?$AAP?$AAo?$AAs?$AAs?$AAi?$AAb?$AAl?$AAe?$AA?5?$AAA?$AAP?$AAI?$AA?3?$AA?5?$AA?$CF?$AAS?$AA?5?$AAo?$AAr?$AAd?$AA?3?$AA?5?$AA?$CF?$AAd?$AA?5?$AA?$AA@ 0000000140055a70     ApiReader.obj
 0002:00007ab0       ??_C@_1GA@NPAHEFL@?$AAg?$AAe?$AAt?$AAA?$AAp?$AAi?$AAB?$AAy?$AAV?$AAi?$AAr?$AAt?$AAu?$AAa?$AAl?$AAA?$AAd?$AAd?$AAr?$AAe?$AAs?$AAs?$AA?5?$AA?3?$AA?3?$AA?5?$AAN?$AAo?$AA?5?$AAA?$AAp?$AAi@ 0000000140055ab0     ApiReader.obj
 0002:00007b10       ??_C@_1HE@OMMPLKCI@?$AAI?$AAA?$AAT?$AA?5?$AAp?$AAa?$AAr?$AAs?$AAi?$AAn?$AAg?$AA?5?$AAf?$AAi?$AAn?$AAi?$AAs?$AAh?$AAe?$AAd?$AA?0?$AA?5?$AAf?$AAo?$AAu?$AAn?$AAd?$AA?5?$AA?$CF?$AAd?$AA?5?$AAv@ 0000000140055b10     ApiReader.obj
 0002:00007b84       ??_C@_13HGPDMIBE@?$AA?$DP?$AA?$AA@ 0000000140055b84     ApiReader.obj
 0002:00007b88       ??_C@_01OGPIMHDM@?$DP?$AA@ 0000000140055b88     ApiReader.obj
 0002:00007b90       ??_C@_0BB@HJOFFDOA@RestoreLastError?$AA@ 0000000140055b90     ApiReader.obj
 0002:00007ba8       ??_C@_1BC@OACMOHID@?$AA?2?$AAW?$AAi?$AAn?$AAS?$AAx?$AAS?$AA?2?$AA?$AA@ 0000000140055ba8     ApiReader.obj
 0002:00007bc0       ??_C@_1BC@LPOCJKBI@?$AA?2?$AAw?$AAi?$AAn?$AAs?$AAx?$AAs?$AA?2?$AA?$AA@ 0000000140055bc0     ApiReader.obj
 0002:00007bd8       ??_C@_0BD@OLBABOEK@vector?$DMT?$DO?5too?5long?$AA@ 0000000140055bd8     ApiReader.obj
 0002:00007bf0       ??_C@_0BM@PAPJHAGI@invalid?5map?1set?$DMT?$DO?5iterator?$AA@ 0000000140055bf0     ApiReader.obj
 0002:00007c10       ??_C@_0BE@JONHPENG@map?1set?$DMT?$DO?5too?5long?$AA@ 0000000140055c10     ApiReader.obj
 0002:00007c28       ??_C@_0BB@MOGOBHAF@list?$DMT?$DO?5too?5long?$AA@ 0000000140055c28     ApiReader.obj
 0002:00007c40       ??_C@_1DA@MJCOJPDA@?$AAU?$AAS?$AAE?$AA_?$AAP?$AAE?$AA_?$AAH?$AAE?$AAA?$AAD?$AAE?$AAR?$AA_?$AAF?$AAR?$AAO?$AAM?$AA_?$AAD?$AAI?$AAS?$AAK?$AA?$AA@ 0000000140055c40     ConfigurationHolder.obj
 0002:00007c70       ??_C@_1CA@MMGEJPAL@?$AAD?$AAE?$AAB?$AAU?$AAG?$AA_?$AAP?$AAR?$AAI?$AAV?$AAI?$AAL?$AAE?$AAG?$AAE?$AA?$AA@ 0000000140055c70     ConfigurationHolder.obj
 0002:00007c90       ??_C@_1BM@GGEHJLAB@?$AAC?$AAR?$AAE?$AAA?$AAT?$AAE?$AA_?$AAB?$AAA?$AAC?$AAK?$AAU?$AAP?$AA?$AA@ 0000000140055c90     ConfigurationHolder.obj
 0002:00007cb0       ??_C@_1DE@KDGHFIC@?$AAD?$AAL?$AAL?$AA_?$AAI?$AAN?$AAJ?$AAE?$AAC?$AAT?$AAI?$AAO?$AAN?$AA_?$AAA?$AAU?$AAT?$AAO?$AA_?$AAU?$AAN?$AAL?$AAO?$AAA?$AAD?$AA?$AA@ 0000000140055cb0     ConfigurationHolder.obj
 0002:00007ce8       ??_C@_1CO@KALAJJFG@?$AAU?$AAP?$AAD?$AAA?$AAT?$AAE?$AA_?$AAH?$AAE?$AAA?$AAD?$AAE?$AAR?$AA_?$AAC?$AAH?$AAE?$AAC?$AAK?$AAS?$AAU?$AAM?$AA?$AA@ 0000000140055ce8     ConfigurationHolder.obj
 0002:00007d18       ??_C@_1CC@PHHKDKMP@?$AAI?$AAA?$AAT?$AA_?$AAS?$AAE?$AAC?$AAT?$AAI?$AAO?$AAN?$AA_?$AAN?$AAA?$AAM?$AAE?$AA?$AA@ 0000000140055d18     ConfigurationHolder.obj
 0002:00007d40       ??_C@_1CO@ECDEBGFH@?$AAR?$AAE?$AAM?$AAO?$AAV?$AAE?$AA_?$AAD?$AAO?$AAS?$AA_?$AAH?$AAE?$AAA?$AAD?$AAE?$AAR?$AA_?$AAS?$AAT?$AAU?$AAB?$AA?$AA@ 0000000140055d40     ConfigurationHolder.obj
 0002:00007d70       ??_C@_1CI@BGFJJIIC@?$AAI?$AAA?$AAT?$AA_?$AAF?$AAI?$AAX?$AA_?$AAA?$AAN?$AAD?$AA_?$AAO?$AAE?$AAP?$AA_?$AAF?$AAI?$AAX?$AA?$AA@ 0000000140055d70     ConfigurationHolder.obj
 0002:00007d98       ??_C@_1DI@CBEHBDFC@?$AAS?$AAU?$AAS?$AAP?$AAE?$AAN?$AAD?$AA_?$AAP?$AAR?$AAO?$AAC?$AAE?$AAS?$AAS?$AA_?$AAF?$AAO?$AAR?$AA_?$AAD?$AAU?$AAM?$AAP?$AAI?$AAN?$AAG?$AA?$AA@ 0000000140055d98     ConfigurationHolder.obj
 0002:00007dd0       ??_C@_1DG@CPLEGPL@?$AAO?$AAr?$AAi?$AAg?$AAi?$AAn?$AAa?$AAl?$AAF?$AAi?$AAr?$AAs?$AAt?$AAT?$AAh?$AAu?$AAn?$AAk?$AA_?$AAS?$AAU?$AAP?$AAP?$AAO?$AAR?$AAT?$AA?$AA@ 0000000140055dd0     ConfigurationHolder.obj
 0002:00007e08       ??_C@_1DA@OAPMDNNE@?$AAU?$AAS?$AAE?$AA_?$AAA?$AAD?$AAV?$AAA?$AAN?$AAC?$AAE?$AAD?$AA_?$AAI?$AAA?$AAT?$AA_?$AAS?$AAE?$AAA?$AAR?$AAC?$AAH?$AA?$AA@ 0000000140055e08     ConfigurationHolder.obj
 0002:00007e38       ??_C@_1CI@EEJMMHBB@?$AAS?$AAC?$AAA?$AAN?$AA_?$AAD?$AAI?$AAR?$AAE?$AAC?$AAT?$AA_?$AAI?$AAM?$AAP?$AAO?$AAR?$AAT?$AAS?$AA?$AA@ 0000000140055e38     ConfigurationHolder.obj
 0002:00007e60       ??_C@_1DE@IHJKEFCO@?$AAF?$AAI?$AAX?$AA_?$AAD?$AAI?$AAR?$AAE?$AAC?$AAT?$AA_?$AAI?$AAM?$AAP?$AAO?$AAR?$AAT?$AAS?$AA_?$AAN?$AAO?$AAR?$AAM?$AAA?$AAL?$AA?$AA@ 0000000140055e60     ConfigurationHolder.obj
 0002:00007e98       ??_C@_1DK@MHKMGLOJ@?$AAF?$AAI?$AAX?$AA_?$AAD?$AAI?$AAR?$AAE?$AAC?$AAT?$AA_?$AAI?$AAM?$AAP?$AAO?$AAR?$AAT?$AAS?$AA_?$AAU?$AAN?$AAI?$AAV?$AAE?$AAR?$AAS?$AAA?$AAL?$AA?$AA@ 0000000140055e98     ConfigurationHolder.obj
 0002:00007ed8       ??_C@_1DE@NPFGOBIP@?$AAC?$AAR?$AAE?$AAA?$AAT?$AAE?$AA_?$AAN?$AAE?$AAW?$AA_?$AAI?$AAA?$AAT?$AA_?$AAI?$AAN?$AA_?$AAS?$AAE?$AAC?$AAT?$AAI?$AAO?$AAN?$AA?$AA@ 0000000140055ed8     ConfigurationHolder.obj
 0002:00007f10       ??_C@_1DA@JKHMADOP@?$AAD?$AAO?$AAN?$AAT?$AA_?$AAC?$AAR?$AAE?$AAA?$AAT?$AAE?$AA_?$AAN?$AAE?$AAW?$AA_?$AAS?$AAE?$AAC?$AAT?$AAI?$AAO?$AAN?$AA?$AA@ 0000000140055f10     ConfigurationHolder.obj
 0002:00007f40       ??_C@_1CM@FHIGOAAB@?$AAA?$AAP?$AAI?$AAS?$AA_?$AAA?$AAL?$AAW?$AAA?$AAY?$AAS?$AA_?$AAF?$AAR?$AAO?$AAM?$AA_?$AAD?$AAI?$AAS?$AAK?$AA?$AA@ 0000000140055f40     ConfigurationHolder.obj
 0002:00007f6c       ??_C@_11LOCGONAA@?$AA?$AA@ 0000000140055f6c     ConfigurationHolder.obj
 0002:00007f70       ??_C@_1BC@KNNCIOMG@?$AA?$CF?$AA0?$AA1?$AA6?$AAI?$AA6?$AA4?$AAX?$AA?$AA@ 0000000140055f70     ConfigurationHolder.obj
 0002:00007f88       ??_C@_1M@OGLPPGPN@?$AA?$CF?$AAI?$AA6?$AA4?$AAu?$AA?$AA@ 0000000140055f88     ConfigurationHolder.obj
 0002:00007f94       ??_C@_13JGCMLPCH@?$AA1?$AA?$AA@ 0000000140055f94     ConfigurationHolder.obj
 0002:00007f98       ??_C@_13COJANIEC@?$AA0?$AA?$AA@ 0000000140055f98     ConfigurationHolder.obj
 0002:00007fa0       ?theMap@?1??GetDlgResizeMap@DisassemblerGui@@SAPEBU_AtlDlgResizeMap@?$CDialogResize@VDisassemblerGui@@@WTL@@XZ@4QBU345@B 0000000140055fa0     DisassemblerGui.obj
 0002:00007fd8       ??_C@_1M@ILHOPKA@?$AAE?$AAr?$AAr?$AAo?$AAr?$AA?$AA@ 0000000140055fd8     DisassemblerGui.obj
 0002:00007ff0       ??_C@_1FE@JBDLABIC@?$AAC?$AAa?$AAn?$AAn?$AAo?$AAt?$AA?5?$AAd?$AAi?$AAs?$AAa?$AAs?$AAs?$AAe?$AAm?$AAb?$AAl?$AAe?$AA?5?$AAm?$AAe?$AAm?$AAo?$AAr?$AAy?$AA?5?$AAa?$AAt?$AA?5?$AAt?$AAh?$AAi@ 0000000140055ff0     DisassemblerGui.obj
 0002:00008048       ??_C@_1BA@LDPMAPOD@?$AAA?$AAd?$AAd?$AAr?$AAe?$AAs?$AAs?$AA?$AA@ 0000000140056048     DisassemblerGui.obj
 0002:00008058       ??_C@_19CHLDDIME@?$AAS?$AAi?$AAz?$AAe?$AA?$AA@ 0000000140056058     DisassemblerGui.obj
 0002:00008068       ??_C@_1BA@FDINEIPA@?$AAO?$AAp?$AAc?$AAo?$AAd?$AAe?$AAs?$AA?$AA@ 0000000140056068     DisassemblerGui.obj
 0002:00008078       ??_C@_1BK@BOIIFMMI@?$AAI?$AAn?$AAs?$AAt?$AAr?$AAu?$AAc?$AAt?$AAi?$AAo?$AAn?$AAs?$AA?$AA@ 0000000140056078     DisassemblerGui.obj
 0002:00008098       ??_C@_1BA@BCPHNIGF@?$AAC?$AAo?$AAm?$AAm?$AAe?$AAn?$AAt?$AA?$AA@ 0000000140056098     DisassemblerGui.obj
 0002:000080a8       ??_C@_19MNDKMKJC@?$AA?$CF?$AA0?$AA2?$AAd?$AA?$AA@ 00000001400560a8     DisassemblerGui.obj
 0002:000080b4       ??_C@_15MAOEGKJF@?$AA?$CF?$AAS?$AA?$AA@ 00000001400560b4     DisassemblerGui.obj
 0002:000080bc       ??_C@_01CLKCMJKC@?5?$AA@   00000001400560bc     DisassemblerGui.obj
 0002:000080be       ??_C@_00CNPNBAHC@?$AA@     00000001400560be     DisassemblerGui.obj
 0002:000080c0       ??_C@_1O@NAGCBAAJ@?$AA?$CF?$AAS?$AA?$CF?$AAS?$AA?$CF?$AAS?$AA?$AA@ 00000001400560c0     DisassemblerGui.obj
 0002:000080d0       ??_C@_1BI@FNNGEGBO@?$AA?9?$AA?$DO?$AA?5?$AA?$CF?$AA0?$AA1?$AA6?$AAI?$AA6?$AA4?$AAX?$AA?$AA@ 00000001400560d0     DisassemblerGui.obj
 0002:000080e8       ??_C@_1BO@BPLMCHAB@?$AA?$CF?$AAs?$AA?5?$AA?9?$AA?$DO?$AA?5?$AA?$CF?$AA0?$AA1?$AA6?$AAI?$AA6?$AA4?$AAX?$AA?$AA@ 00000001400560e8     DisassemblerGui.obj
 0002:00008108       ??_C@_1BK@MDABAFJD@?$AA?$CF?$AAs?$AA?5?$AA?$DN?$AA?5?$AA?$CF?$AAs?$AA?4?$AA?$CF?$AA0?$AA4?$AAX?$AA?$AA@ 0000000140056108     DisassemblerGui.obj
 0002:00008128       ??_C@_1BG@GDBCCMGC@?$AA?$CF?$AAs?$AA?5?$AA?$DN?$AA?5?$AA?$CF?$AAs?$AA?4?$AA?$CF?$AAS?$AA?$AA@ 0000000140056128     DisassemblerGui.obj
 0002:00008140       ??_C@_1BA@LKINKPIO@?$AA?$CF?$AAs?$AA?5?$AA?$DN?$AA?5?$AA?$CF?$AAs?$AA?$AA@ 0000000140056140     DisassemblerGui.obj
 0002:00008150       ??_C@_1BE@PNDFOHKG@?$AAS?$AAC?$AAR?$AAO?$AAL?$AAL?$AAB?$AAA?$AAR?$AA?$AA@ 0000000140056150     DisassemblerGui.obj
 0002:00008168       ?Digits@?$CHexEditImpl@V?$CHexEdit@_K@@_KV?$CEditT@VCWindow@ATL@@@WTL@@V?$CWinTraits@$0FGAAAAAA@$0A@@ATL@@@@2QB_WB 0000000140056168     DisassemblerGui.obj
 0002:00008168       ?Digits@?$CHexEditImpl@V?$CHexEdit@K@@KV?$CEditT@VCWindow@ATL@@@WTL@@V?$CWinTraits@$0FGAAAAAA@$0A@@ATL@@@@2QB_WB 0000000140056168     DumpMemoryGui.obj
 0002:00008198       ??_7DisassemblerGui@@6B@   0000000140056198     DisassemblerGui.obj
 0002:000081c0       ??_7?$CHexEdit@_K@@6B@     00000001400561c0     DisassemblerGui.obj
 0002:000081e0       ??_C@_1CK@KBDPMF@?$AAS?$AAc?$AAy?$AAl?$AAl?$AAa?$AAP?$AAl?$AAu?$AAg?$AAi?$AAn?$AAE?$AAx?$AAc?$AAh?$AAa?$AAn?$AAg?$AAe?$AA?$AA@ 00000001400561e0     DllInjectionPlugin.obj
 0002:00008210       ??_C@_1CM@MHLEKHGN@?$AAN?$AAo?$AA?5?$AAu?$AAn?$AAr?$AAe?$AAs?$AAo?$AAl?$AAv?$AAe?$AAd?$AA?5?$AAI?$AAm?$AAp?$AAo?$AAr?$AAt?$AAs?$AA?$AA@ 0000000140056210     DllInjectionPlugin.obj
 0002:00008240       ??_C@_1EA@LBMNHFFM@?$AAP?$AAl?$AAu?$AAg?$AAi?$AAn?$AA?5?$AAi?$AAn?$AAj?$AAe?$AAc?$AAt?$AAi?$AAo?$AAn?$AA?5?$AAw?$AAa?$AAs?$AA?5?$AAs?$AAu?$AAc?$AAc?$AAe?$AAs?$AAs?$AAf?$AAu?$AAl?$AA?$AA@ 0000000140056240     DllInjectionPlugin.obj
 0002:00008280       ??_C@_1DA@KKJKABFG@?$AAP?$AAl?$AAu?$AAg?$AAi?$AAn?$AA?5?$AAu?$AAn?$AAl?$AAo?$AAa?$AAd?$AAi?$AAn?$AAg?$AA?5?$AAf?$AAa?$AAi?$AAl?$AAe?$AAd?$AA?$AA@ 0000000140056280     DllInjectionPlugin.obj
 0002:000082b0       ??_C@_1DA@JCIFJMMH@?$AAP?$AAl?$AAu?$AAg?$AAi?$AAn?$AA?5?$AAi?$AAn?$AAj?$AAe?$AAc?$AAt?$AAi?$AAo?$AAn?$AA?5?$AAf?$AAa?$AAi?$AAl?$AAe?$AAd?$AA?$AA@ 00000001400562b0     DllInjectionPlugin.obj
 0002:000082e0       ??_C@_1CM@KEIICEID@?$AAP?$AAl?$AAu?$AAg?$AAi?$AAn?$AA?5?$AAw?$AAa?$AAs?$AA?5?$AAs?$AAu?$AAc?$AAc?$AAe?$AAs?$AAs?$AAf?$AAu?$AAl?$AA?$AA@ 00000001400562e0     DllInjectionPlugin.obj
 0002:00008310       ??_C@_1DM@FJLKLAFN@?$AAP?$AAl?$AAu?$AAg?$AAi?$AAn?$AA?5?$AAr?$AAe?$AAp?$AAo?$AAr?$AAt?$AAe?$AAd?$AA?5?$AAU?$AAn?$AAk?$AAn?$AAo?$AAw?$AAn?$AA?5?$AAE?$AAr?$AAr?$AAo?$AAr?$AA?$AA@ 0000000140056310     DllInjectionPlugin.obj
 0002:00008350       ??_C@_1EG@EKPGAOHL@?$AAP?$AAl?$AAu?$AAg?$AAi?$AAn?$AA?5?$AAd?$AAe?$AAt?$AAe?$AAc?$AAt?$AAe?$AAd?$AA?5?$AAu?$AAn?$AAk?$AAn?$AAo?$AAw?$AAn?$AA?5?$AAp?$AAr?$AAo?$AAt?$AAe?$AAc?$AAt?$AAi@ 0000000140056350     DllInjectionPlugin.obj
 0002:00008398       ??_C@_1DO@LLJEGBMF@?$AAP?$AAl?$AAu?$AAg?$AAi?$AAn?$AA?5?$AAi?$AAm?$AAp?$AAo?$AAr?$AAt?$AA?5?$AAr?$AAe?$AAs?$AAo?$AAl?$AAv?$AAi?$AAn?$AAg?$AA?5?$AAf?$AAa?$AAi?$AAl?$AAe?$AAd?$AA?$AA@ 0000000140056398     DllInjectionPlugin.obj
 0002:000083d8       ??_C@_1DG@NHGAOCDC@?$AAP?$AAl?$AAu?$AAg?$AAi?$AAn?$AA?5?$AAf?$AAi?$AAl?$AAe?$AA?5?$AAm?$AAa?$AAp?$AAp?$AAi?$AAn?$AAg?$AA?5?$AAf?$AAa?$AAi?$AAl?$AAe?$AAd?$AA?$AA@ 00000001400563d8     DllInjectionPlugin.obj
 0002:00008410       ??_C@_1DK@CFPDNPKN@?$AAP?$AAl?$AAu?$AAg?$AAi?$AAn?$AA?5?$AAf?$AAa?$AAi?$AAl?$AAe?$AAd?$AA?5?$AAw?$AAi?$AAt?$AAh?$AAo?$AAu?$AAt?$AA?5?$AAr?$AAe?$AAa?$AAs?$AAo?$AAn?$AA?$AA@ 0000000140056410     DllInjectionPlugin.obj
 0002:00008450       ??_C@_0CD@HFMLLGML@1GmVrhWwUhwLohaCLP4SKV5kkz8rd16N@ 0000000140056450     DonateGui.obj
 0002:00008478       ??_C@_1BK@EMAHKFIE@?$AAW?$AAR?$AAI?$AAT?$AAE?$AAC?$AAO?$AAM?$AAB?$AAI?$AAN?$AAE?$AA?$AA@ 0000000140056478     DumpMemoryGui.obj
 0002:00008498       ??_C@_1BA@NEMDBLGC@?$AAN?$AAO?$AAC?$AAA?$AAC?$AAH?$AAE?$AA?$AA@ 0000000140056498     DumpMemoryGui.obj
 0002:000084a8       ??_C@_1M@CPOLIOAG@?$AAG?$AAU?$AAA?$AAR?$AAD?$AA?$AA@ 00000001400564a8     DumpMemoryGui.obj
 0002:000084b8       ??_C@_1BE@PHDNGFG@?$AAW?$AAR?$AAI?$AAT?$AAE?$AAC?$AAO?$AAP?$AAY?$AA?$AA@ 00000001400564b8     DumpMemoryGui.obj
 0002:000084d0       ??_C@_1BE@JBKLMJBF@?$AAR?$AAE?$AAA?$AAD?$AAW?$AAR?$AAI?$AAT?$AAE?$AA?$AA@ 00000001400564d0     DumpMemoryGui.obj
 0002:000084e8       ??_C@_1BC@CPNDMAGA@?$AAR?$AAE?$AAA?$AAD?$AAO?$AAN?$AAL?$AAY?$AA?$AA@ 00000001400564e8     DumpMemoryGui.obj
 0002:00008500       ??_C@_1BC@EHMJBKCD@?$AAN?$AAO?$AAA?$AAC?$AAC?$AAE?$AAS?$AAS?$AA?$AA@ 0000000140056500     DumpMemoryGui.obj
 0002:00008518       ??_C@_1CE@FFANDECC@?$AAE?$AAX?$AAE?$AAC?$AAU?$AAT?$AAE?$AA_?$AAW?$AAR?$AAI?$AAT?$AAE?$AAC?$AAO?$AAP?$AAY?$AA?$AA@ 0000000140056518     DumpMemoryGui.obj
 0002:00008540       ??_C@_1CE@MLNFCLGB@?$AAE?$AAX?$AAE?$AAC?$AAU?$AAT?$AAE?$AA_?$AAR?$AAE?$AAA?$AAD?$AAW?$AAR?$AAI?$AAT?$AAE?$AA?$AA@ 0000000140056540     DumpMemoryGui.obj
 0002:00008568       ??_C@_1BK@CCMLIPII@?$AAE?$AAX?$AAE?$AAC?$AAU?$AAT?$AAE?$AA_?$AAR?$AAE?$AAA?$AAD?$AA?$AA@ 0000000140056568     DumpMemoryGui.obj
 0002:00008588       ??_C@_1BA@KIGPCJOC@?$AAE?$AAX?$AAE?$AAC?$AAU?$AAT?$AAE?$AA?$AA@ 0000000140056588     DumpMemoryGui.obj
 0002:00008598       ??_C@_1BA@NKFKCIAN@?$AAP?$AAR?$AAI?$AAV?$AAA?$AAT?$AAE?$AA?$AA@ 0000000140056598     DumpMemoryGui.obj
 0002:000085a8       ??_C@_1O@NEBANLDG@?$AAM?$AAA?$AAP?$AAP?$AAE?$AAD?$AA?$AA@ 00000001400565a8     DumpMemoryGui.obj
 0002:000085b8       ??_C@_1M@BJAEGIEJ@?$AAI?$AAM?$AAA?$AAG?$AAE?$AA?$AA@ 00000001400565b8     DumpMemoryGui.obj
 0002:000085c8       ??_C@_1BA@MLMPDDHH@?$AAR?$AAE?$AAS?$AAE?$AAR?$AAV?$AAE?$AA?$AA@ 00000001400565c8     DumpMemoryGui.obj
 0002:000085d8       ??_C@_19GLINCHAF@?$AAF?$AAR?$AAE?$AAE?$AA?$AA@ 00000001400565d8     DumpMemoryGui.obj
 0002:000085e8       ??_C@_1O@OEIPOEOO@?$AAC?$AAO?$AAM?$AAM?$AAI?$AAT?$AA?$AA@ 00000001400565e8     DumpMemoryGui.obj
 0002:00008600       ?theMap@?1??GetDlgResizeMap@DumpMemoryGui@@SAPEBU_AtlDlgResizeMap@?$CDialogResize@VDumpMemoryGui@@@WTL@@XZ@4QBU345@B 0000000140056600     DumpMemoryGui.obj
 0002:00008648       ??_C@_19DDLLJDOO@?$AAF?$AAi?$AAl?$AAe?$AA?$AA@ 0000000140056648     DumpMemoryGui.obj
 0002:00008658       ??_C@_1BG@NDCFGPEH@?$AAP?$AAE?$AA?5?$AAS?$AAe?$AAc?$AAt?$AAi?$AAo?$AAn?$AA?$AA@ 0000000140056658     DumpMemoryGui.obj
 0002:00008670       ??_C@_19BIEPDBPA@?$AAT?$AAy?$AAp?$AAe?$AA?$AA@ 0000000140056670     DumpMemoryGui.obj
 0002:00008680       ??_C@_1BG@GOGPGFPK@?$AAP?$AAr?$AAo?$AAt?$AAe?$AAc?$AAt?$AAi?$AAo?$AAn?$AA?$AA@ 0000000140056680     DumpMemoryGui.obj
 0002:00008698       ??_C@_1M@LAGHHMEN@?$AAS?$AAt?$AAa?$AAt?$AAe?$AA?$AA@ 0000000140056698     DumpMemoryGui.obj
 0002:000086a8       ??_C@_1BI@PCAJJNCE@?$AAM?$AAa?$AAp?$AAp?$AAe?$AAd?$AA?5?$AAF?$AAi?$AAl?$AAe?$AA?$AA@ 00000001400566a8     DumpMemoryGui.obj
 0002:000086c0       ??_C@_19NGFMKOON@?$AA?$CF?$AA0?$AA8?$AAX?$AA?$AA@ 00000001400566c0     DumpMemoryGui.obj
 0002:000086d0       ??_C@_17LPHJCAEE@?$AA?5?$AA?$HM?$AA?5?$AA?$AA@ 00000001400566d0     DumpMemoryGui.obj
 0002:000086d8       ??_C@_1CE@JMLNHHC@?$AAT?$AAe?$AAx?$AAt?$AAb?$AAo?$AAx?$AA?5?$AAi?$AAs?$AA?5?$AAe?$AAm?$AAp?$AAt?$AAy?$AA?$CB?$AA?$AA@ 00000001400566d8     DumpMemoryGui.obj
 0002:00008700       ??_C@_1EG@PIIMCHII@?$AAR?$AAe?$AAa?$AAd?$AAi?$AAn?$AAg?$AA?5?$AAm?$AAe?$AAm?$AAo?$AAr?$AAy?$AA?5?$AAf?$AAr?$AAo?$AAm?$AA?5?$AAp?$AAr?$AAo?$AAc?$AAe?$AAs?$AAs?$AA?5?$AAf?$AAa?$AAi?$AAl@ 0000000140056700     DumpMemoryGui.obj
 0002:00008748       ??_C@_13PPFCDPMH@?$AA?$HM?$AA?$AA@ 0000000140056748     DumpMemoryGui.obj
 0002:00008750       ??_C@_1FG@JPFCCPCJ@?$AAN?$AAo?$AAt?$AA?5?$AAa?$AA?5?$AAv?$AAa?$AAl?$AAi?$AAd?$AA?5?$AAP?$AAE?$AA?5?$AA?9?$AA?$DO?$AA?5?$AAT?$AAh?$AAi?$AAs?$AA?5?$AAs?$AAh?$AAo?$AAu?$AAl?$AAd?$AA?5?$AAn?$AAe@ 0000000140056750     DumpMemoryGui.obj
 0002:000087a8       ??_C@_1CE@OKBOHJGP@?$AAM?$AAE?$AAM?$AA_?$AA?$CF?$AA0?$AA1?$AA6?$AAI?$AA6?$AA4?$AAX?$AA_?$AA?$CF?$AA0?$AA8?$AAX?$AA?$AA@ 00000001400567a8     DumpMemoryGui.obj
 0002:000087d8       ??_7DumpMemoryGui@@6B@     00000001400567d8     DumpMemoryGui.obj
 0002:00008800       ??_7?$CHexEdit@K@@6B@      0000000140056800     DumpMemoryGui.obj
 0002:00008820       ?theMap@?1??GetDlgResizeMap@DumpSectionGui@@SAPEBU_AtlDlgResizeMap@?$CDialogResize@VDumpSectionGui@@@WTL@@XZ@4QBU345@B 0000000140056820     DumpSectionGui.obj
 0002:00008848       ??_C@_19DINFBLAK@?$AAN?$AAa?$AAm?$AAe?$AA?$AA@ 0000000140056848     DumpSectionGui.obj
 0002:00008858       ??_C@_1CA@KJMDFFJL@?$AAV?$AAi?$AAr?$AAt?$AAu?$AAa?$AAl?$AA?5?$AAA?$AAd?$AAd?$AAr?$AAe?$AAs?$AAs?$AA?$AA@ 0000000140056858     DumpSectionGui.obj
 0002:00008878       ??_C@_1BK@PBFKPMNN@?$AAV?$AAi?$AAr?$AAt?$AAu?$AAa?$AAl?$AA?5?$AAS?$AAi?$AAz?$AAe?$AA?$AA@ 0000000140056878     DumpSectionGui.obj
 0002:00008898       ??_C@_1BI@FKDDFHEO@?$AAR?$AAa?$AAw?$AA?5?$AAA?$AAd?$AAd?$AAr?$AAe?$AAs?$AAs?$AA?$AA@ 0000000140056898     DumpSectionGui.obj
 0002:000088b0       ??_C@_1BC@DCGCAGGP@?$AAR?$AAa?$AAw?$AA?5?$AAS?$AAi?$AAz?$AAe?$AA?$AA@ 00000001400568b0     DumpSectionGui.obj
 0002:000088c8       ??_C@_1CA@HLGPGKOE@?$AAC?$AAh?$AAa?$AAr?$AAa?$AAc?$AAt?$AAe?$AAr?$AAi?$AAs?$AAt?$AAi?$AAc?$AAs?$AA?$AA@ 00000001400568c8     DumpSectionGui.obj
 0002:000088f0       ??_7DumpSectionGui@@6B@    00000001400568f0     DumpSectionGui.obj
 0002:00008910       ??_C@_0P@LKABJJMO@IsWow64Process?$AA@ 0000000140056910     FunctionExport.obj
 0002:00008920       ??_C@_1DE@IPMKIBAI@?$AAS?$AAc?$AAy?$AAl?$AAl?$AAa?$AA_?$AAd?$AAi?$AAr?$AAe?$AAc?$AAt?$AA_?$AAi?$AAm?$AAp?$AAo?$AAr?$AAt?$AAs?$AA?4?$AAl?$AAo?$AAg?$AA?$AA@ 0000000140056920     IATReferenceScan.obj
 0002:00008960       ??_C@_1FO@OLHNKKLD@?$AAE?$AAr?$AAr?$AAo?$AAr?$AA?5?$AA?9?$AA?5?$AAC?$AAa?$AAn?$AAn?$AAo?$AAt?$AA?5?$AAf?$AAi?$AAx?$AA?5?$AAI?$AAA?$AAT?$AA?5?$AAr?$AAe?$AAf?$AAe?$AAr?$AAe?$AAn?$AAc?$AAe@ 0000000140056960     IATReferenceScan.obj
 0002:000089c0       ??_C@_1HK@PLEACAAO@?$AA?9?$AA?9?$AA?9?$AA?9?$AA?9?$AA?9?$AA?9?$AA?9?$AA?9?$AA?9?$AA?9?$AA?9?$AA?9?$AA?9?$AA?9?$AA?9?$AA?9?$AA?9?$AA?9?$AA?9?$AA?9?$AA?9?$AA?9?$AA?9?$AA?9?$AA?9?$AA?9?$AA?9?$AA?9?$AA?9?$AA?9?$AA?9@ 00000001400569c0     IATReferenceScan.obj
 0002:00008a40       ??_C@_1IG@EOFBBCAF@?$AAI?$AAm?$AAa?$AAg?$AAe?$AAB?$AAa?$AAs?$AAe?$AA?5?$AA?$CF?$AA0?$AA1?$AA6?$AAI?$AA6?$AA4?$AAX?$AA?5?$AAI?$AAm?$AAa?$AAg?$AAe?$AAS?$AAi?$AAz?$AAe?$AA?5?$AA?$CF?$AA0?$AA8@ 0000000140056a40     IATReferenceScan.obj
 0002:00008ac8       ??_C@_13CCGINPHD@?$AAU?$AA?$AA@ 0000000140056ac8     IATReferenceScan.obj
 0002:00008ad0       ??_C@_19CFJHMEML@?$AAC?$AAA?$AAL?$AAL?$AA?$AA@ 0000000140056ad0     IATReferenceScan.obj
 0002:00008ae0       ??_C@_17FKELOIKD@?$AAJ?$AAM?$AAP?$AA?$AA@ 0000000140056ae0     IATReferenceScan.obj
 0002:00008ae8       ??_C@_17DICNBPGN@?$AAM?$AAO?$AAV?$AA?$AA@ 0000000140056ae8     IATReferenceScan.obj
 0002:00008af0       ??_C@_19GMBNOGOI@?$AAP?$AAU?$AAS?$AAH?$AA?$AA@ 0000000140056af0     IATReferenceScan.obj
 0002:00008b00       ??_C@_17JINCFDLD@?$AAL?$AAE?$AAA?$AA?$AA@ 0000000140056b00     IATReferenceScan.obj
 0002:00008b10       ??_C@_1JK@DMGAGAMF@?$AA?$CF?$AA0?$AA4?$AAd?$AA?5?$AAA?$AAd?$AAd?$AAr?$AAV?$AAA?$AA?5?$AA?$CF?$AA0?$AA1?$AA6?$AAI?$AA6?$AA4?$AAX?$AA?5?$AAT?$AAy?$AAp?$AAe?$AA?5?$AA?$CF?$AAs?$AA?5?$AAV?$AAa?$AAl@ 0000000140056b10     IATReferenceScan.obj
 0002:00008bb0       ??_C@_1GG@PIEAOKLG@?$AAE?$AAr?$AAr?$AAo?$AAr?$AA?5?$AA?9?$AA?5?$AAC?$AAa?$AAn?$AAn?$AAo?$AAt?$AA?5?$AAf?$AAi?$AAx?$AA?5?$AAd?$AAi?$AAr?$AAe?$AAc?$AAt?$AA?5?$AAi?$AAm?$AAp?$AAo?$AAr?$AAt@ 0000000140056bb0     IATReferenceScan.obj
 0002:00008c20       ??_C@_1LC@LGCONDCE@?$AAR?$AAe?$AAl?$AAo?$AAc?$AAa?$AAt?$AAi?$AAo?$AAn?$AA?5?$AAd?$AAi?$AAr?$AAe?$AAc?$AAt?$AA?5?$AAi?$AAm?$AAp?$AAo?$AAr?$AAt?$AAs?$AA?5?$AAf?$AAi?$AAx?$AA?3?$AA?5?$AAB@ 0000000140056c20     IATReferenceScan.obj
 0002:00008ce0       ??_C@_1GM@IKMOGLOE@?$AAI?$AAA?$AAT?$AA?5?$AAS?$AAe?$AAa?$AAr?$AAc?$AAh?$AA?5?$AAA?$AAd?$AAv?$AA?3?$AA?5?$AAF?$AAo?$AAu?$AAn?$AAd?$AA?5?$AA?$CF?$AAd?$AA?5?$AA?$CI?$AA0?$AAx?$AA?$CF?$AAX?$AA?$CJ?$AA?5@ 0000000140056ce0     IATSearch.obj
 0002:00008d50       ??_C@_1IC@ICJINPPO@?$AAI?$AAA?$AAT?$AA?5?$AAS?$AAe?$AAa?$AAr?$AAc?$AAh?$AA?5?$AAA?$AAd?$AAv?$AA?3?$AA?5?$AAP?$AAo?$AAs?$AAs?$AAi?$AAb?$AAl?$AAe?$AA?5?$AAI?$AAA?$AAT?$AA?5?$AAf?$AAi?$AAr@ 0000000140056d50     IATSearch.obj
 0002:00008dd4       ??_C@_04IHDBOMEP@?4SCY?$AA@ 0000000140056dd4     ImportRebuilder.obj
 0002:00008de0       ??_C@_1CG@HDGJAKBE@?$AAo?$AAr?$AAd?$AA?3?$AA?5?$AA?$CF?$AA0?$AA4?$AAX?$AA?5?$AAn?$AAa?$AAm?$AAe?$AA?3?$AA?5?$AA?$CF?$AAS?$AA?$AA@ 0000000140056de0     ImportsHandling.obj
 0002:00008e08       ??_C@_1BE@FOEGGGEN@?$AAo?$AAr?$AAd?$AA?3?$AA?5?$AA?$CF?$AA0?$AA4?$AAX?$AA?$AA@ 0000000140056e08     ImportsHandling.obj
 0002:00008e20       ??_C@_1DC@OHDAMPJK@?$AA?5?$AAr?$AAv?$AAa?$AA?3?$AA?5?$AA?$CF?$AA0?$AA8?$AAI?$AA6?$AA4?$AAX?$AA?5?$AAm?$AAo?$AAd?$AA?3?$AA?5?$AA?$CF?$AAs?$AA?5?$AA?$CF?$AAs?$AA?$AA@ 0000000140056e20     ImportsHandling.obj
 0002:00008e58       ??_C@_1DI@HCHKHIEI@?$AA?5?$AAr?$AAv?$AAa?$AA?3?$AA?5?$AA?$CF?$AA0?$AA8?$AAI?$AA6?$AA4?$AAX?$AA?5?$AAp?$AAt?$AAr?$AA?3?$AA?5?$AA?$CF?$AA0?$AA1?$AA6?$AAI?$AA6?$AA4?$AAX?$AA?$AA@ 0000000140056e58     ImportsHandling.obj
 0002:00008e90       ??_C@_1DA@COPCGJMO@?$AA?$CF?$AAs?$AA?5?$AA?$CI?$AA?$CF?$AAd?$AA?$CJ?$AA?5?$AAF?$AAT?$AAh?$AAu?$AAn?$AAk?$AA?3?$AA?5?$AA?$CF?$AA0?$AA8?$AAI?$AA6?$AA4?$AAX?$AA?$AA@ 0000000140056e90     ImportsHandling.obj
 0002:00008ec0       ??_C@_13FNCBLAIF@?$AAa?$AA?$AA@ 0000000140056ec0     Logger.obj
 0002:00008ec4       ??_C@_02PCIJFNDE@?$AN?6?$AA@ 0000000140056ec4     Logger.obj
 0002:00008ec8       ??_C@_15JNBOKNOG@?$AA?$AN?$AA?6?$AA?$AA@ 0000000140056ec8     Logger.obj
 0002:00008ed8       ??_7FileLog@@6B@           0000000140056ed8     Logger.obj
 0002:00008ef8       ??_C@_1CI@BBJOACGG@?$AAH?$AAK?$AAE?$AAY?$AA_?$AAC?$AAU?$AAR?$AAR?$AAE?$AAN?$AAT?$AA_?$AAC?$AAO?$AAN?$AAF?$AAI?$AAG?$AA?$AA@ 0000000140056ef8     main.obj
 0002:00008f20       ??_C@_1BM@HAGMMHIA@?$AAH?$AAK?$AAE?$AAY?$AA_?$AAD?$AAY?$AAN?$AA_?$AAD?$AAA?$AAT?$AAA?$AA?$AA@ 0000000140056f20     main.obj
 0002:00008f40       ??_C@_1CM@KHNNAOIC@?$AAH?$AAK?$AAE?$AAY?$AA_?$AAP?$AAE?$AAR?$AAF?$AAO?$AAR?$AAM?$AAA?$AAN?$AAC?$AAE?$AA_?$AAD?$AAA?$AAT?$AAA?$AA?$AA@ 0000000140056f40     main.obj
 0002:00008f70       ??_C@_1BG@BGODANIO@?$AAH?$AAK?$AAE?$AAY?$AA_?$AAU?$AAS?$AAE?$AAR?$AAS?$AA?$AA@ 0000000140056f70     main.obj
 0002:00008f88       ??_C@_1CG@GFBEANJL@?$AAH?$AAK?$AAE?$AAY?$AA_?$AAL?$AAO?$AAC?$AAA?$AAL?$AA_?$AAM?$AAA?$AAC?$AAH?$AAI?$AAN?$AAE?$AA?$AA@ 0000000140056f88     main.obj
 0002:00008fb0       ??_C@_1CE@HLHNCBPM@?$AAH?$AAK?$AAE?$AAY?$AA_?$AAC?$AAU?$AAR?$AAR?$AAE?$AAN?$AAT?$AA_?$AAU?$AAS?$AAE?$AAR?$AA?$AA@ 0000000140056fb0     main.obj
 0002:00008fd8       ??_C@_1CE@PACHPJFI@?$AAH?$AAK?$AAE?$AAY?$AA_?$AAC?$AAL?$AAA?$AAS?$AAS?$AAE?$AAS?$AA_?$AAR?$AAO?$AAO?$AAT?$AA?$AA@ 0000000140056fd8     main.obj
 0002:00009000       ??_C@_19OFICIBHH@?$AAH?$AAK?$AAC?$AAC?$AA?$AA@ 0000000140057000     main.obj
 0002:00009010       ??_C@_19GFFAIJHG@?$AAH?$AAK?$AAD?$AAD?$AA?$AA@ 0000000140057010     main.obj
 0002:00009020       ??_C@_19PNBHMJPL@?$AAH?$AAK?$AAP?$AAD?$AA?$AA@ 0000000140057020     main.obj
 0002:00009030       ??_C@_17PJOJPMPB@?$AAH?$AAK?$AAU?$AA?$AA@ 0000000140057030     main.obj
 0002:00009038       ??_C@_19PEALEEJB@?$AAH?$AAK?$AAL?$AAM?$AA?$AA@ 0000000140057038     main.obj
 0002:00009048       ??_C@_19JAPAIJDE@?$AAH?$AAK?$AAC?$AAU?$AA?$AA@ 0000000140057048     main.obj
 0002:00009058       ??_C@_19NCHLBIN@?$AAH?$AAK?$AAC?$AAR?$AA?$AA@ 0000000140057058     main.obj
 0002:00009068       ??_C@_1BK@BIGILECK@?$AAA?$AAd?$AAv?$AAa?$AAp?$AAi?$AA3?$AA2?$AA?4?$AAd?$AAl?$AAl?$AA?$AA@ 0000000140057068     main.obj
 0002:00009088       ??_C@_0BG@EKFFMJIO@RegOpenKeyTransactedW?$AA@ 0000000140057088     main.obj
 0002:000090a0       ??_C@_0BI@MNCFCPFK@RegCreateKeyTransactedW?$AA@ 00000001400570a0     main.obj
 0002:000090b8       ??_C@_0BI@HAKLOOGP@RegDeleteKeyTransactedW?$AA@ 00000001400570b8     main.obj
 0002:000090d0       ??_C@_0BA@LILAPHGE@RegDeleteKeyExW?$AA@ 00000001400570d0     main.obj
 0002:000090e0       ?map@?1??HKeyFromString@CRegParser@ATL@@KAPEAUHKEY__@@PEA_W@Z@4QBUkeymap@?1??123@KAPEAU4@0@Z@B 00000001400570e0     main.obj
 0002:000091c0       ??_C@_1EA@NHKLICFA@?$AAH?$AAK?$AAC?$AAU?$AA?$AN?$AA?6?$AA?$HL?$AA?7?$AAS?$AAo?$AAf?$AAt?$AAw?$AAa?$AAr?$AAe?$AA?$AN?$AA?6?$AA?7?$AA?$HL?$AA?$AN?$AA?6?$AA?7?$AA?7?$AAC?$AAl?$AAa?$AAs?$AAs?$AAe?$AAs?$AA?$AA@ 00000001400571c0     main.obj
 0002:00009200       ??_C@_1BE@LJOLIMEM@?$AA?$AN?$AA?6?$AA?7?$AA?$HN?$AA?$AN?$AA?6?$AA?$HN?$AA?$AN?$AA?6?$AA?$AA@ 0000000140057200     main.obj
 0002:00009218       ??_C@_1O@MNLDABAF@?$AAM?$AAo?$AAd?$AAu?$AAl?$AAe?$AA?$AA@ 0000000140057218     main.obj
 0002:00009228       ??_C@_1BG@JBACFMF@?$AAM?$AAo?$AAd?$AAu?$AAl?$AAe?$AA_?$AAR?$AAa?$AAw?$AA?$AA@ 0000000140057228     main.obj
 0002:00009240       ??_C@_1BC@KAILKFFG@?$AAR?$AAE?$AAG?$AAI?$AAS?$AAT?$AAR?$AAY?$AA?$AA@ 0000000140057240     main.obj
 0002:00009258       ??_C@_1BA@KDMGPDJH@?$AAu?$AAn?$AAk?$AAn?$AAo?$AAw?$AAn?$AA?$AA@ 0000000140057258     main.obj
 0002:00009270       ??_C@_1EI@DFGJONLO@?$AAE?$AAx?$AAc?$AAe?$AAp?$AAt?$AAi?$AAo?$AAn?$AA?$CB?$AA?5?$AAP?$AAl?$AAe?$AAa?$AAs?$AAe?$AA?5?$AAr?$AAe?$AAp?$AAo?$AAr?$AAt?$AA?5?$AAi?$AAt?$AA?$CB?$AA?5?$AAO?$AAS?$AA?3@ 0000000140057270     main.obj
 0002:000092c0       ??_C@_1BBK@MHFPPNBK@?$AAE?$AAx?$AAc?$AAe?$AAp?$AAt?$AAi?$AAo?$AAn?$AAC?$AAo?$AAd?$AAe?$AA?5?$AA?$CF?$AA0?$AA8?$AAX?$AA?$AN?$AA?6?$AAE?$AAx?$AAc?$AAe?$AAp?$AAt?$AAi?$AAo?$AAn?$AAF?$AAl?$AAa@ 00000001400572c0     main.obj
 0002:000093e0       ??_C@_1LC@EEKALCBL@?$AAr?$AAa?$AAx?$AA?$DN?$AA0?$AAx?$AA?$CF?$AAp?$AA?0?$AA?5?$AAr?$AAb?$AAx?$AA?$DN?$AA0?$AAx?$AA?$CF?$AAp?$AA?0?$AA?5?$AAr?$AAd?$AAx?$AA?$DN?$AA0?$AAx?$AA?$CF?$AAp?$AA?0?$AA?5?$AAr?$AAc@ 00000001400573e0     main.obj
 0002:00009498       ??_C@_1M@PPPPCDEP@?$AAA?$AAP?$AAP?$AAI?$AAD?$AA?$AA@ 0000000140057498     main.obj
 0002:000094b8       ??_7CComModule@ATL@@6B@    00000001400574b8     main.obj
 0002:00009510       ??_7CRegObject@ATL@@6B@    0000000140057510     main.obj
 0002:00009548       ??_7CMessageLoop@WTL@@6B@  0000000140057548     main.obj
 0002:00009568       ??_7CAppModule@WTL@@6B@    0000000140057568     main.obj
 0002:000095b8       _GUID_00000146_0000_0000_c000_000000000046 00000001400575b8     main.obj
 0002:000095d0       ?theMap@?1??GetDlgResizeMap@MainGui@@SAPEBU_AtlDlgResizeMap@?$CDialogResize@VMainGui@@@WTL@@XZ@4QBU345@B 00000001400575d0     MainGui.obj
 0002:000096a0       ??_C@_1BO@LHCMKFAI@?$AA?$CF?$AA0?$AA4?$AAd?$AA?5?$AA?9?$AA?5?$AA?$CF?$AAs?$AA?5?$AA?9?$AA?5?$AA?$CF?$AAs?$AA?$AA@ 00000001400576a0     MainGui.obj
 0002:000096c0       ??_C@_1DC@PBMNCDDD@?$AA?9?$AA?$DO?$AA?$DO?$AA?$DO?$AA?5?$AAM?$AAo?$AAd?$AAu?$AAl?$AAe?$AA?5?$AA?$CF?$AAs?$AA?5?$AAs?$AAe?$AAl?$AAe?$AAc?$AAt?$AAe?$AAd?$AA?4?$AA?$AA@ 00000001400576c0     MainGui.obj
 0002:00009700       ??_C@_1GA@KEKLNICN@?$AAI?$AAm?$AAa?$AAg?$AAe?$AAb?$AAa?$AAs?$AAe?$AA?3?$AA?5?$AA?$CF?$AA0?$AA1?$AA6?$AAI?$AA6?$AA4?$AAX?$AA?5?$AAS?$AAi?$AAz?$AAe?$AA?3?$AA?5?$AA?$CF?$AA0?$AA8?$AAX?$AA?5?$AAE@ 0000000140057700     MainGui.obj
 0002:00009760       ??_C@_1O@FLFGJCGH@?$AAS?$AAc?$AAy?$AAl?$AAl?$AAa?$AA?$AA@ 0000000140057760     MainGui.obj
 0002:00009770       ??_C@_1GI@CAIFHGCB@?$AAO?$AAp?$AAe?$AAr?$AAa?$AAt?$AAi?$AAn?$AAg?$AA?5?$AAS?$AAy?$AAs?$AAt?$AAe?$AAm?$AA?5?$AAi?$AAs?$AA?5?$AAn?$AAo?$AAt?$AA?5?$AAs?$AAu?$AAp?$AAp?$AAo?$AAr?$AAt?$AAe@ 0000000140057770     MainGui.obj
 0002:000097d8       ??_C@_1BI@NIHBLACF@?$AAI?$AAn?$AAf?$AAo?$AAr?$AAm?$AAa?$AAt?$AAi?$AAo?$AAn?$AA?$AA@ 00000001400577d8     MainGui.obj
 0002:000097f0       ??_C@_1BBI@BKMHJPIK@?$AAP?$AAr?$AAo?$AAc?$AAe?$AAs?$AAs?$AA?5?$AAi?$AAs?$AA?5?$AAs?$AAu?$AAs?$AAp?$AAe?$AAn?$AAd?$AAe?$AAd?$AA?4?$AA?5?$AAD?$AAo?$AA?5?$AAy?$AAo?$AAu?$AA?5?$AAw?$AAa?$AAn@ 00000001400577f0     MainGui.obj
 0002:00009908       ??_C@_1BK@IMEIHDKC@?$AA?7?$AAI?$AAm?$AAp?$AAo?$AAr?$AAt?$AAs?$AA?3?$AA?5?$AA?$CF?$AAu?$AA?$AA@ 0000000140057908     MainGui.obj
 0002:00009928       ??_C@_1BK@EHFDNBMP@?$AA?7?$AAI?$AAn?$AAv?$AAa?$AAl?$AAi?$AAd?$AA?3?$AA?5?$AA?$CF?$AAu?$AA?$AA@ 0000000140057928     MainGui.obj
 0002:00009948       ??_C@_1CK@FKIJLEBE@?$AA?7?$AAI?$AAm?$AAa?$AAg?$AAe?$AAb?$AAa?$AAs?$AAe?$AA?3?$AA?5?$AA?$CF?$AA0?$AA1?$AA6?$AAI?$AA6?$AA4?$AAX?$AA?$AA@ 0000000140057948     MainGui.obj
 0002:00009978       ??_C@_1DM@DKFMAADM@?$AAC?$AAa?$AAn?$AA?8?$AAt?$AA?5?$AAr?$AAe?$AAa?$AAd?$AA?5?$AAm?$AAe?$AAm?$AAo?$AAr?$AAy?$AA?5?$AAa?$AAt?$AA?5?$AA?$CF?$AA0?$AA1?$AA6?$AAI?$AA6?$AA4?$AAX?$AA?$AA@ 0000000140057978     MainGui.obj
 0002:000099b8       ??_C@_1BA@KPPLMDID@?$AAF?$AAa?$AAi?$AAl?$AAu?$AAr?$AAe?$AA?$AA@ 00000001400579b8     MainGui.obj
 0002:000099c8       ??_C@_1BK@HNNFFOCN@?$AAA?$AAn?$AAa?$AAl?$AAy?$AAz?$AAi?$AAn?$AAg?$AA?5?$AA?$CF?$AAs?$AA?$AA@ 00000001400579c8     MainGui.obj
 0002:000099f0       ??_C@_1EG@HHILMNLI@?$AAE?$AAr?$AAr?$AAo?$AAr?$AA?3?$AA?5?$AAC?$AAa?$AAn?$AAn?$AAo?$AAt?$AA?5?$AAo?$AAp?$AAe?$AAn?$AA?5?$AAp?$AAr?$AAo?$AAc?$AAe?$AAs?$AAs?$AA?5?$AAh?$AAa?$AAn?$AAd?$AAl@ 00000001400579f0     MainGui.obj
 0002:00009a38       ??_C@_1CM@HKPJPOPJ@?$AAL?$AAo?$AAa?$AAd?$AAi?$AAn?$AAg?$AA?5?$AAm?$AAo?$AAd?$AAu?$AAl?$AAe?$AAs?$AA?5?$AAd?$AAo?$AAn?$AAe?$AA?4?$AA?$AA@ 0000000140057a38     MainGui.obj
 0002:00009a68       ??_C@_1DO@LMNCNMLP@?$AAI?$AAm?$AAa?$AAg?$AAe?$AAb?$AAa?$AAs?$AAe?$AA?3?$AA?5?$AA?$CF?$AA0?$AA1?$AA6?$AAI?$AA6?$AA4?$AAX?$AA?5?$AAS?$AAi?$AAz?$AAe?$AA?3?$AA?5?$AA?$CF?$AA0?$AA8?$AAX?$AA?$AA@ 0000000140057a68     MainGui.obj
 0002:00009aa8       ??_C@_1DI@IFDAEHI@?$AAL?$AAo?$AAa?$AAd?$AAi?$AAn?$AAg?$AA?5?$AAt?$AAr?$AAe?$AAe?$AA?5?$AAf?$AAi?$AAl?$AAe?$AA?5?$AAf?$AAa?$AAi?$AAl?$AAe?$AAd?$AA?5?$AA?$CF?$AAs?$AA?$AA@ 0000000140057aa8     MainGui.obj
 0002:00009ae0       ??_C@_1DE@PEELJCMD@?$AAL?$AAo?$AAa?$AAd?$AAi?$AAn?$AAg?$AA?5?$AAt?$AAr?$AAe?$AAe?$AA?5?$AAf?$AAi?$AAl?$AAe?$AA?5?$AAf?$AAa?$AAi?$AAl?$AAe?$AAd?$AA?4?$AA?$AA@ 0000000140057ae0     MainGui.obj
 0002:00009b18       ??_C@_1CI@BCMCIJNM@?$AAL?$AAo?$AAa?$AAd?$AAe?$AAd?$AA?5?$AAt?$AAr?$AAe?$AAe?$AA?5?$AAf?$AAi?$AAl?$AAe?$AA?5?$AA?$CF?$AAs?$AA?$AA@ 0000000140057b18     MainGui.obj
 0002:00009b40       ??_C@_1CC@HNOOIFLM@?$AA?9?$AA?$DO?$AA?5?$AAO?$AAE?$AAP?$AA?3?$AA?5?$AA?$CF?$AA0?$AA1?$AA6?$AAI?$AA6?$AA4?$AAX?$AA?$AA@ 0000000140057b40     MainGui.obj
 0002:00009b68       ??_C@_1DK@IEEPAFND@?$AA?9?$AA?$DO?$AA?5?$AAI?$AAA?$AAT?$AA?3?$AA?5?$AA?$CF?$AA0?$AA1?$AA6?$AAI?$AA6?$AA4?$AAX?$AA?5?$AAS?$AAi?$AAz?$AAe?$AA?3?$AA?5?$AA?$CF?$AAI?$AA6?$AA4?$AAX?$AA?$AA@ 0000000140057b68     MainGui.obj
 0002:00009ba8       ??_C@_17CAPCPOIM@?$AAx?$AAm?$AAl?$AA?$AA@ 0000000140057ba8     MainGui.obj
 0002:00009bb0       ??_C@_1DG@KECPDANK@?$AAS?$AAa?$AAv?$AAi?$AAn?$AAg?$AA?5?$AAt?$AAr?$AAe?$AAe?$AA?5?$AAf?$AAi?$AAl?$AAe?$AA?5?$AAf?$AAa?$AAi?$AAl?$AAe?$AAd?$AA?5?$AA?$CF?$AAs?$AA?$AA@ 0000000140057bb0     MainGui.obj
 0002:00009be8       ??_C@_1DC@JBIJHDFK@?$AAS?$AAa?$AAv?$AAi?$AAn?$AAg?$AA?5?$AAt?$AAr?$AAe?$AAe?$AA?5?$AAf?$AAi?$AAl?$AAe?$AA?5?$AAf?$AAa?$AAi?$AAl?$AAe?$AAd?$AA?4?$AA?$AA@ 0000000140057be8     MainGui.obj
 0002:00009c20       ??_C@_1CG@CJJOEBGA@?$AAS?$AAa?$AAv?$AAe?$AAd?$AA?5?$AAt?$AAr?$AAe?$AAe?$AA?5?$AAf?$AAi?$AAl?$AAe?$AA?5?$AA?$CF?$AAs?$AA?$AA@ 0000000140057c20     MainGui.obj
 0002:00009c50       ??_C@_1HM@IKFICNBO@?$AAI?$AAA?$AAT?$AA?5?$AAS?$AAe?$AAa?$AAr?$AAc?$AAh?$AA?5?$AAA?$AAd?$AAv?$AA?3?$AA?5?$AAI?$AAA?$AAT?$AA?5?$AAV?$AAA?$AA?5?$AA?$CF?$AA0?$AA1?$AA6?$AAI?$AA6?$AA4?$AAX?$AA?5@ 0000000140057c50     MainGui.obj
 0002:00009cd0       ??_C@_1FO@DKCOOMNF@?$AAI?$AAA?$AAT?$AA?5?$AAS?$AAe?$AAa?$AAr?$AAc?$AAh?$AA?5?$AAA?$AAd?$AAv?$AA?3?$AA?5?$AAI?$AAA?$AAT?$AA?5?$AAn?$AAo?$AAt?$AA?5?$AAf?$AAo?$AAu?$AAn?$AAd?$AA?5?$AAa?$AAt@ 0000000140057cd0     MainGui.obj
 0002:00009d30       ??_C@_1HM@HPOLJDAA@?$AAI?$AAA?$AAT?$AA?5?$AAS?$AAe?$AAa?$AAr?$AAc?$AAh?$AA?5?$AAN?$AAo?$AAr?$AA?3?$AA?5?$AAI?$AAA?$AAT?$AA?5?$AAV?$AAA?$AA?5?$AA?$CF?$AA0?$AA1?$AA6?$AAI?$AA6?$AA4?$AAX?$AA?5@ 0000000140057d30     MainGui.obj
 0002:00009db0       ??_C@_1FO@LEHODCDD@?$AAI?$AAA?$AAT?$AA?5?$AAS?$AAe?$AAa?$AAr?$AAc?$AAh?$AA?5?$AAN?$AAo?$AAr?$AA?3?$AA?5?$AAI?$AAA?$AAT?$AA?5?$AAn?$AAo?$AAt?$AA?5?$AAf?$AAo?$AAu?$AAn?$AAd?$AA?5?$AAa?$AAt@ 0000000140057db0     MainGui.obj
 0002:00009e10       ??_C@_1MM@MPLOAHIK@?$AAR?$AAe?$AAs?$AAu?$AAl?$AAt?$AA?5?$AAo?$AAf?$AA?5?$AAa?$AAd?$AAv?$AAa?$AAn?$AAc?$AAe?$AAd?$AA?5?$AAa?$AAn?$AAd?$AA?5?$AAn?$AAo?$AAr?$AAm?$AAa?$AAl?$AA?5?$AAs?$AAe@ 0000000140057e10     MainGui.obj
 0002:00009ee0       ??_C@_1IO@PNDCIJOE@?$AAD?$AAI?$AAR?$AAE?$AAC?$AAT?$AA?5?$AAI?$AAM?$AAP?$AAO?$AAR?$AAT?$AAS?$AA?5?$AA?9?$AA?5?$AAF?$AAo?$AAu?$AAn?$AAd?$AA?5?$AA?$CF?$AAd?$AA?5?$AAp?$AAo?$AAs?$AAs?$AAi?$AAb@ 0000000140057ee0     MainGui.obj
 0002:00009f70       ??_C@_1GI@JPHKLELA@?$AAD?$AAI?$AAR?$AAE?$AAC?$AAT?$AA?5?$AAI?$AAM?$AAP?$AAO?$AAR?$AAT?$AAS?$AA?5?$AA?9?$AA?5?$AAF?$AAo?$AAu?$AAn?$AAd?$AA?5?$AA?$CF?$AAd?$AA?5?$AAa?$AAd?$AAd?$AAi?$AAt?$AAi@ 0000000140057f70     MainGui.obj
 0002:00009fe0       ??_C@_1HE@DHBPOKCL@?$AAD?$AAI?$AAR?$AAE?$AAC?$AAT?$AA?5?$AAI?$AAM?$AAP?$AAO?$AAR?$AAT?$AAS?$AA?5?$AA?9?$AA?5?$AAO?$AAl?$AAd?$AA?5?$AAI?$AAA?$AAT?$AA?5?$AAs?$AAi?$AAz?$AAe?$AA?5?$AA0?$AAx@ 0000000140057fe0     MainGui.obj
 0002:0000a060       ??_C@_1BLC@FENHMJOD@?$AAD?$AAi?$AAr?$AAe?$AAc?$AAt?$AA?5?$AAI?$AAm?$AAp?$AAo?$AAr?$AAt?$AAs?$AA?5?$AAf?$AAo?$AAu?$AAn?$AAd?$AA?4?$AA?5?$AAI?$AA?5?$AAc?$AAa?$AAn?$AA?5?$AAp?$AAa?$AAt?$AAc@ 0000000140058060     MainGui.obj
 0002:0000a220       ??_C@_1FM@OJJJKNLJ@?$AAD?$AAI?$AAR?$AAE?$AAC?$AAT?$AA?5?$AAI?$AAM?$AAP?$AAO?$AAR?$AAT?$AAS?$AA?5?$AA?9?$AA?5?$AAP?$AAa?$AAt?$AAc?$AAh?$AAe?$AAd?$AA?$CB?$AA?5?$AAP?$AAl?$AAe?$AAa?$AAs?$AAe@ 0000000140058220     MainGui.obj
 0002:0000a280       ??_C@_1HI@NFMNPJGO@?$AAW?$AAA?$AAR?$AAN?$AAI?$AAN?$AAG?$AA?$CB?$AA?5?$AAI?$AAA?$AAT?$AA?5?$AAi?$AAs?$AA?5?$AAn?$AAo?$AAt?$AA?5?$AAi?$AAn?$AAs?$AAi?$AAd?$AAe?$AA?5?$AAt?$AAh?$AAe?$AA?5?$AAP@ 0000000140058280     MainGui.obj
 0002:0000a2f8       ??_C@_17LBOLAHJL@?$AAt?$AAx?$AAt?$AA?$AA@ 00000001400582f8     MainGui.obj
 0002:0000a300       ??_C@_1BO@GPGEPOBL@?$AAS?$AAc?$AAy?$AAl?$AAl?$AAa?$AA?5?$AAP?$AAl?$AAu?$AAg?$AAi?$AAn?$AAs?$AA?$AA@ 0000000140058300     MainGui.obj
 0002:0000a320       ??_C@_1BO@PAFDGOKI@?$AAI?$AAm?$AAp?$AAR?$AAE?$AAC?$AA?5?$AAP?$AAl?$AAu?$AAg?$AAi?$AAn?$AAs?$AA?$AA@ 0000000140058320     MainGui.obj
 0002:0000a340       ??_C@_17EAEGCEML@?$AAm?$AAe?$AAm?$AA?$AA@ 0000000140058340     MainGui.obj
 0002:0000a348       ??_C@_1CK@DJCCIADC@?$AAM?$AAe?$AAm?$AAo?$AAr?$AAy?$AA?5?$AAd?$AAu?$AAm?$AAp?$AA?5?$AAs?$AAa?$AAv?$AAe?$AAd?$AA?5?$AA?$CF?$AAs?$AA?$AA@ 0000000140058348     MainGui.obj
 0002:0000a380       ??_C@_1FA@IHLNPIPN@?$AAE?$AAr?$AAr?$AAo?$AAr?$AA?$CB?$AA?5?$AAC?$AAa?$AAn?$AAn?$AAo?$AAt?$AA?5?$AAw?$AAr?$AAi?$AAt?$AAe?$AA?5?$AAm?$AAe?$AAm?$AAo?$AAr?$AAy?$AA?5?$AAd?$AAu?$AAm?$AAp?$AA?5@ 0000000140058380     MainGui.obj
 0002:0000a3d0       ??_C@_17MALKAJEN@?$AAd?$AAl?$AAl?$AA?$AA@ 00000001400583d0     MainGui.obj
 0002:0000a3d8       ??_C@_17OJFPAGNE@?$AAe?$AAx?$AAe?$AA?$AA@ 00000001400583d8     MainGui.obj
 0002:0000a3e0       ??_C@_1CA@FCBBCFFF@?$AAD?$AAu?$AAm?$AAp?$AA?5?$AAs?$AAu?$AAc?$AAc?$AAe?$AAs?$AAs?$AA?5?$AA?$CF?$AAs?$AA?$AA@ 00000001400583e0     MainGui.obj
 0002:0000a400       ??_C@_1DE@BPJLMFPN@?$AAE?$AAr?$AAr?$AAo?$AAr?$AA?3?$AA?5?$AAC?$AAa?$AAn?$AAn?$AAo?$AAt?$AA?5?$AAd?$AAu?$AAm?$AAp?$AA?5?$AAi?$AAm?$AAa?$AAg?$AAe?$AA?4?$AA?$AA@ 0000000140058400     MainGui.obj
 0002:0000a438       ??_C@_1CG@LBFMBDMG@?$AAC?$AAa?$AAn?$AAn?$AAo?$AAt?$AA?5?$AAd?$AAu?$AAm?$AAp?$AA?5?$AAi?$AAm?$AAa?$AAg?$AAe?$AA?4?$AA?$AA@ 0000000140058438     MainGui.obj
 0002:0000a460       ??_C@_1KM@JFFPAEPN@?$AAE?$AAr?$AAr?$AAo?$AAr?$AA?3?$AA?5?$AAI?$AAn?$AAv?$AAa?$AAl?$AAi?$AAd?$AA?5?$AAP?$AAE?$AA?5?$AAf?$AAi?$AAl?$AAe?$AA?5?$AAo?$AAr?$AA?5?$AAi?$AAn?$AAv?$AAa?$AAl?$AAi@ 0000000140058460     MainGui.obj
 0002:0000a510       ??_C@_1DO@MFGNMGKB@?$AAC?$AAr?$AAe?$AAa?$AAt?$AAi?$AAn?$AAg?$AA?5?$AAb?$AAa?$AAc?$AAk?$AAu?$AAp?$AA?5?$AAf?$AAi?$AAl?$AAe?$AA?5?$AAf?$AAa?$AAi?$AAl?$AAe?$AAd?$AA?5?$AA?$CF?$AAs?$AA?$AA@ 0000000140058510     MainGui.obj
 0002:0000a550       ??_C@_1DO@FADNJAOE@?$AAT?$AAh?$AAi?$AAs?$AA?5?$AAi?$AAs?$AA?5?$AAn?$AAo?$AAt?$AA?5?$AAa?$AA?5?$AAv?$AAa?$AAl?$AAi?$AAd?$AA?5?$AAP?$AAE?$AA?5?$AAf?$AAi?$AAl?$AAe?$AA?5?$AA?$CF?$AAs?$AA?$AA@ 0000000140058550     MainGui.obj
 0002:0000a590       ??_C@_1CK@FPKNNKLK@?$AAN?$AAo?$AAt?$AA?5?$AAa?$AA?5?$AAv?$AAa?$AAl?$AAi?$AAd?$AA?5?$AAP?$AAE?$AA?5?$AAf?$AAi?$AAl?$AAe?$AA?4?$AA?$AA@ 0000000140058590     MainGui.obj
 0002:0000a5c0       ??_C@_1DM@KLKELLCG@?$AAG?$AAe?$AAn?$AAe?$AAr?$AAa?$AAt?$AAi?$AAn?$AAg?$AA?5?$AAP?$AAE?$AA?5?$AAh?$AAe?$AAa?$AAd?$AAe?$AAr?$AA?5?$AAc?$AAh?$AAe?$AAc?$AAk?$AAs?$AAu?$AAm?$AA?$AA@ 00000001400585c0     MainGui.obj
 0002:0000a600       ??_C@_1EM@IDHFDLCD@?$AAG?$AAe?$AAn?$AAe?$AAr?$AAa?$AAt?$AAi?$AAn?$AAg?$AA?5?$AAP?$AAE?$AA?5?$AAh?$AAe?$AAa?$AAd?$AAe?$AAr?$AA?5?$AAc?$AAh?$AAe?$AAc?$AAk?$AAs?$AAu?$AAm?$AA?5?$AAF?$AAA@ 0000000140058600     MainGui.obj
 0002:0000a650       ??_C@_1CG@OALHDGHC@?$AAR?$AAe?$AAb?$AAu?$AAi?$AAl?$AAd?$AA?5?$AAs?$AAu?$AAc?$AAc?$AAe?$AAs?$AAs?$AA?5?$AA?$CF?$AAs?$AA?$AA@ 0000000140058650     MainGui.obj
 0002:0000a680       ??_C@_1GK@ECFCKIFP@?$AA?9?$AA?$DO?$AA?5?$AAO?$AAl?$AAd?$AA?5?$AAf?$AAi?$AAl?$AAe?$AA?5?$AAs?$AAi?$AAz?$AAe?$AA?5?$AA0?$AAx?$AA?$CF?$AA0?$AA8?$AAX?$AA?5?$AAn?$AAe?$AAw?$AA?5?$AAf?$AAi?$AAl?$AAe@ 0000000140058680     MainGui.obj
 0002:0000a6f0       ??_C@_1EI@NHIFFHJ@?$AAR?$AAe?$AAb?$AAu?$AAi?$AAl?$AAd?$AA?5?$AAf?$AAa?$AAi?$AAl?$AAe?$AAd?$AA?0?$AA?5?$AAc?$AAa?$AAn?$AAn?$AAo?$AAt?$AA?5?$AAs?$AAa?$AAv?$AAe?$AA?5?$AAf?$AAi?$AAl?$AAe@ 00000001400586f0     MainGui.obj
 0002:0000a740       ??_C@_1EE@DJBGJMKC@?$AAR?$AAe?$AAb?$AAu?$AAi?$AAl?$AAd?$AA?5?$AAf?$AAa?$AAi?$AAl?$AAe?$AAd?$AA?4?$AA?5?$AAC?$AAa?$AAn?$AAn?$AAo?$AAt?$AA?5?$AAs?$AAa?$AAv?$AAe?$AA?5?$AAf?$AAi?$AAl?$AAe@ 0000000140058740     MainGui.obj
 0002:0000a790       ??_C@_1EI@CKCKCCPG@?$AAR?$AAe?$AAb?$AAu?$AAi?$AAl?$AAd?$AA?5?$AAf?$AAa?$AAi?$AAl?$AAe?$AAd?$AA?0?$AA?5?$AAc?$AAa?$AAn?$AAn?$AAo?$AAt?$AA?5?$AAr?$AAe?$AAa?$AAd?$AA?5?$AAf?$AAi?$AAl?$AAe@ 0000000140058790     MainGui.obj
 0002:0000a7e0       ??_C@_1EE@BDGNENG@?$AAR?$AAe?$AAb?$AAu?$AAi?$AAl?$AAd?$AA?5?$AAf?$AAa?$AAi?$AAl?$AAe?$AAd?$AA?4?$AA?5?$AAC?$AAa?$AAn?$AAn?$AAo?$AAt?$AA?5?$AAr?$AAe?$AAa?$AAd?$AA?5?$AAf?$AAi?$AAl?$AAe@ 00000001400587e0     MainGui.obj
 0002:0000a828       ??_C@_1CG@MKNIHKKJ@?$AAN?$AAo?$AAt?$AAh?$AAi?$AAn?$AAg?$AA?5?$AAt?$AAo?$AA?5?$AAr?$AAe?$AAb?$AAu?$AAi?$AAl?$AAd?$AA?$AA@ 0000000140058828     MainGui.obj
 0002:0000a850       ??_C@_19LAAKIGID@?$AA_?$AAS?$AAC?$AAY?$AA?$AA@ 0000000140058850     MainGui.obj
 0002:0000a860       ??_C@_1DE@HKBGINIB@?$AAI?$AAm?$AAp?$AAo?$AAr?$AAt?$AA?5?$AAR?$AAe?$AAb?$AAu?$AAi?$AAl?$AAd?$AA?5?$AAs?$AAu?$AAc?$AAc?$AAe?$AAs?$AAs?$AA?5?$AA?$CF?$AAs?$AA?$AA@ 0000000140058860     MainGui.obj
 0002:0000a898       ??_C@_1DC@ODMEEHHM@?$AAI?$AAm?$AAp?$AAo?$AAr?$AAt?$AA?5?$AAR?$AAe?$AAb?$AAu?$AAi?$AAl?$AAd?$AA?5?$AAf?$AAa?$AAi?$AAl?$AAe?$AAd?$AA?5?$AA?$CF?$AAs?$AA?$AA@ 0000000140058898     MainGui.obj
 0002:0000a8d0       ??_C@_1CM@CJJANMBP@?$AAI?$AAm?$AAp?$AAo?$AAr?$AAt?$AA?5?$AAR?$AAe?$AAb?$AAu?$AAi?$AAl?$AAd?$AA?5?$AAf?$AAa?$AAi?$AAl?$AAe?$AAd?$AA?$AA@ 00000001400588d0     MainGui.obj
 0002:0000a900       ??_C@_1EA@PFBDLALF@?$AAD?$AAL?$AAL?$AA?5?$AAu?$AAn?$AAl?$AAo?$AAa?$AAd?$AAi?$AAn?$AAg?$AA?5?$AAf?$AAa?$AAi?$AAl?$AAe?$AAd?$AA?0?$AA?5?$AAt?$AAa?$AAr?$AAg?$AAe?$AAt?$AA?5?$AA?$CF?$AAs?$AA?$AA@ 0000000140058900     MainGui.obj
 0002:0000a940       ??_C@_1FA@FCJODEDK@?$AAD?$AAL?$AAL?$AA?5?$AAI?$AAn?$AAj?$AAe?$AAc?$AAt?$AAi?$AAo?$AAn?$AA?5?$AAw?$AAa?$AAs?$AA?5?$AAs?$AAu?$AAc?$AAc?$AAe?$AAs?$AAs?$AAf?$AAu?$AAl?$AA?0?$AA?5?$AAt?$AAa@ 0000000140058940     MainGui.obj
 0002:0000a990       ??_C@_1EA@HBNJCDBK@?$AAD?$AAL?$AAL?$AA?5?$AAI?$AAn?$AAj?$AAe?$AAc?$AAt?$AAi?$AAo?$AAn?$AA?5?$AAf?$AAa?$AAi?$AAl?$AAe?$AAd?$AA?0?$AA?5?$AAt?$AAa?$AAr?$AAg?$AAe?$AAt?$AA?5?$AA?$CF?$AAs?$AA?$AA@ 0000000140058990     MainGui.obj
 0002:0000a9d0       ??_C@_1DO@KGKDLMPM@?$AAE?$AAr?$AAr?$AAo?$AAr?$AA?3?$AA?5?$AAC?$AAa?$AAn?$AAn?$AAo?$AAt?$AA?5?$AAs?$AAu?$AAs?$AAp?$AAe?$AAn?$AAd?$AA?5?$AAp?$AAr?$AAo?$AAc?$AAe?$AAs?$AAs?$AA?4?$AA?$AA@ 00000001400589d0     MainGui.obj
 0002:0000aa10       ??_C@_1GO@DKOHNIJN@?$AAS?$AAu?$AAs?$AAp?$AAe?$AAn?$AAd?$AAi?$AAn?$AAg?$AA?5?$AAp?$AAr?$AAo?$AAc?$AAe?$AAs?$AAs?$AA?5?$AAs?$AAu?$AAc?$AAc?$AAe?$AAs?$AAs?$AAf?$AAu?$AAl?$AA?0?$AA?5?$AAp@ 0000000140058a10     MainGui.obj
 0002:0000aa80       ??_C@_1GE@EBHBKMKO@?$AAI?$AAA?$AAT?$AA?5?$AAf?$AAo?$AAu?$AAn?$AAd?$AA?3?$AA?$AN?$AA?6?$AA?$AN?$AA?6?$AAS?$AAt?$AAa?$AAr?$AAt?$AA?3?$AA?5?$AA?$CF?$AA0?$AA1?$AA6?$AAI?$AA6?$AA4?$AAX?$AA?$AN?$AA?6?$AAS@ 0000000140058a80     MainGui.obj
 0002:0000aae8       ??_C@_1BE@DMDEBELF@?$AAI?$AAA?$AAT?$AA?5?$AAf?$AAo?$AAu?$AAn?$AAd?$AA?$AA@ 0000000140058ae8     MainGui.obj
 0002:0000ab00       ??_C@_1BE@EEJAKAH@?$AA_?$AAd?$AAu?$AAm?$AAp?$AA?4?$AAd?$AAl?$AAl?$AA?$AA@ 0000000140058b00     MainGui.obj
 0002:0000ab18       ??_C@_1BE@CNKMAFJO@?$AA_?$AAd?$AAu?$AAm?$AAp?$AA?4?$AAe?$AAx?$AAe?$AA?$AA@ 0000000140058b18     MainGui.obj
 0002:0000ab30       ??_C@_0BM@NMJKDPPO@invalid?5vector?$DMT?$DO?5subscript?$AA@ 0000000140058b30     MainGui.obj
 0002:0000ab50       ??_C@_1CG@JPMAJDKP@?$AAm?$AAs?$AAc?$AAt?$AAl?$AAs?$AA_?$AAs?$AAt?$AAa?$AAt?$AAu?$AAs?$AAb?$AAa?$AAr?$AA3?$AA2?$AA?$AA@ 0000000140058b50     MainGui.obj
 0002:0000ab80       ??_7CMultiSelectTreeViewCtrl@@6B@ 0000000140058b80     MainGui.obj
 0002:0000aba8       ??_7MainGui@@6B?$CDialogImpl@VMainGui@@VCWindow@ATL@@@ATL@@@ 0000000140058ba8     MainGui.obj
 0002:0000abd0       ??_7MainGui@@6BCMessageFilter@WTL@@@ 0000000140058bd0     MainGui.obj
 0002:0000abe0       ??_7AboutGui@@6B@          0000000140058be0     MainGui.obj
 0002:0000ac08       ??_7DonateGui@@6B@         0000000140058c08     MainGui.obj
 0002:0000ac30       ??_7OptionsGui@@6B@        0000000140058c30     MainGui.obj
 0002:0000ac50       ??_C@_0BB@KGGDNLNO@NtCreateThreadEx?$AA@ 0000000140058c50     NativeWinApi.obj
 0002:0000ac68       ??_C@_0BC@MDCBEKCC@NtDuplicateObject?$AA@ 0000000140058c68     NativeWinApi.obj
 0002:0000ac80       ??_C@_0O@JGCNKEPA@NtOpenProcess?$AA@ 0000000140058c80     NativeWinApi.obj
 0002:0000ac90       ??_C@_0N@EJDHLIH@NtOpenThread?$AA@ 0000000140058c90     NativeWinApi.obj
 0002:0000aca0       ??_C@_0O@IFMDHOMC@NtQueryObject?$AA@ 0000000140058ca0     NativeWinApi.obj
 0002:0000acb0       ??_C@_0BH@DLPGICA@NtQueryInformationFile?$AA@ 0000000140058cb0     NativeWinApi.obj
 0002:0000acc8       ??_C@_0BK@EGDDIFMK@NtQueryInformationProcess?$AA@ 0000000140058cc8     NativeWinApi.obj
 0002:0000ace8       ??_C@_0BJ@HKKELGGC@NtQueryInformationThread?$AA@ 0000000140058ce8     NativeWinApi.obj
 0002:0000ad08       ??_C@_0BJ@NDLOPGCH@NtQuerySystemInformation?$AA@ 0000000140058d08     NativeWinApi.obj
 0002:0000ad28       ??_C@_0BF@MJPACJIK@NtQueryVirtualMemory?$AA@ 0000000140058d28     NativeWinApi.obj
 0002:0000ad40       ??_C@_0BA@PNNBPCAM@NtResumeProcess?$AA@ 0000000140058d40     NativeWinApi.obj
 0002:0000ad50       ??_C@_0P@JDJEHDNH@NtResumeThread?$AA@ 0000000140058d50     NativeWinApi.obj
 0002:0000ad60       ??_C@_0BH@KPLDILJD@NtSetInformationThread?$AA@ 0000000140058d60     NativeWinApi.obj
 0002:0000ad78       ??_C@_0BB@ELOHAJKJ@NtSuspendProcess?$AA@ 0000000140058d78     NativeWinApi.obj
 0002:0000ad90       ??_C@_0BD@LGANCOHC@NtTerminateProcess?$AA@ 0000000140058d90     NativeWinApi.obj
 0002:0000ada8       ??_C@_0BJ@NAAOCCIC@NtOpenSymbolicLinkObject?$AA@ 0000000140058da8     NativeWinApi.obj
 0002:0000adc8       ??_C@_0BK@FFOGOCND@NtQuerySymbolicLinkObject?$AA@ 0000000140058dc8     NativeWinApi.obj
 0002:0000ade8       ??_C@_0BG@NFNCIOML@RtlNtStatusToDosError?$AA@ 0000000140058de8     NativeWinApi.obj
 0002:0000ae00       ??_C@_07EGJLEIEB@NtClose?$AA@ 0000000140058e00     NativeWinApi.obj
 0002:0000ae10       ?theMap@?1??GetDlgResizeMap@PickApiGui@@SAPEBU_AtlDlgResizeMap@?$CDialogResize@VPickApiGui@@@WTL@@XZ@4QBU345@B 0000000140058e10     PickApiGui.obj
 0002:0000ae58       ??_C@_1M@FGGOMJIH@?$AA?$CD?$AA?$CF?$AA0?$AA4?$AAX?$AA?$AA@ 0000000140058e58     PickApiGui.obj
 0002:0000ae70       ??_7PickApiGui@@6B@        0000000140058e70     PickApiGui.obj
 0002:0000ae90       ?theMap@?1??GetDlgResizeMap@PickDllGui@@SAPEBU_AtlDlgResizeMap@?$CDialogResize@VPickDllGui@@@WTL@@XZ@4QBU345@B 0000000140058e90     PickDllGui.obj
 0002:0000aeb0       ??_C@_1BE@OAIGADCK@?$AAI?$AAm?$AAa?$AAg?$AAe?$AAB?$AAa?$AAs?$AAe?$AA?$AA@ 0000000140058eb0     PickDllGui.obj
 0002:0000aec8       ??_C@_1BE@NMAAKDIB@?$AAI?$AAm?$AAa?$AAg?$AAe?$AAS?$AAi?$AAz?$AAe?$AA?$AA@ 0000000140058ec8     PickDllGui.obj
 0002:0000aee0       ??_C@_19NHABCBNP@?$AAP?$AAa?$AAt?$AAh?$AA?$AA@ 0000000140058ee0     PickDllGui.obj
 0002:0000aef8       ??_7PickDllGui@@6B@        0000000140058ef8     PickDllGui.obj
 0002:0000af18       ??_C@_0BC@PPICJDA@ScyllaPluginNameW?$AA@ 0000000140058f18     PluginLoader.obj
 0002:0000af30       ??_C@_0BC@BDGAJMOH@ScyllaPluginNameA?$AA@ 0000000140058f30     PluginLoader.obj
 0002:0000af48       ??_C@_19PAKAKPNB@?$AA?4?$AAb?$AAa?$AAk?$AA?$AA@ 0000000140058f48     ProcessAccessHelp.obj
 0002:0000af58       ??_C@_1CC@DMDJMJLM@?$AAS?$AAe?$AAD?$AAe?$AAb?$AAu?$AAg?$AAP?$AAr?$AAi?$AAv?$AAi?$AAl?$AAe?$AAg?$AAe?$AA?$AA@ 0000000140058f58     ProcessLister.obj
 0002:0000af80       ??_C@_1BK@FFELDFED@?$AAU?$AAn?$AAk?$AAn?$AAo?$AAw?$AAn?$AA?5?$AAp?$AAa?$AAt?$AAh?$AA?$AA@ 0000000140058f80     ProcessLister.obj
 0002:0000afa0       ??_C@_1BG@NNINIFNH@?$AAS?$AAc?$AAy?$AAl?$AAl?$AAa?$AA?4?$AAi?$AAn?$AAi?$AA?$AA@ 0000000140058fa0     Scylla.obj
 0002:0000afc0       ??_7ListboxLog@@6B@        0000000140058fc0     Scylla.obj
 0002:0000afe0       ??_C@_0BE@HLKFLAJF@GetNativeSystemInfo?$AA@ 0000000140058fe0     SystemInformation.obj
 0002:0000aff4       ??_C@_03HLLJOCDO@1?40?$AA@ 0000000140058ff4     TreeImportExport.obj
 0002:0000aff8       ??_C@_06JJLAMBGK@target?$AA@ 0000000140058ff8     TreeImportExport.obj
 0002:0000b000       ??_C@_1FA@ICINJGBB@?$AAL?$AAo?$AAa?$AAd?$AA?5?$AAT?$AAr?$AAe?$AAe?$AA?5?$AA?3?$AA?3?$AA?5?$AAE?$AAr?$AAr?$AAo?$AAr?$AA?5?$AAp?$AAa?$AAr?$AAs?$AAi?$AAn?$AAg?$AA?5?$AAx?$AAm?$AAl?$AA?5?$AA?$CF@ 0000000140059000     TreeImportExport.obj
 0002:0000b050       ??_C@_06BHCDDFL@oep_va?$AA@ 0000000140059050     TreeImportExport.obj
 0002:0000b058       ??_C@_06MLDOCLH@iat_va?$AA@ 0000000140059058     TreeImportExport.obj
 0002:0000b060       ??_C@_08KJDIGCGD@iat_size?$AA@ 0000000140059060     TreeImportExport.obj
 0002:0000b070       ??_C@_08BABJIOEM@filename?$AA@ 0000000140059070     TreeImportExport.obj
 0002:0000b07c       ??_C@_15JJPIMNBO@?$AAr?$AAb?$AA?$AA@ 000000014005907c     TreeImportExport.obj
 0002:0000b084       ??_C@_15MJDFFMKN@?$AAw?$AAb?$AA?$AA@ 0000000140059084     TreeImportExport.obj
 0002:0000b08c       ??_C@_06BIEEJMKO@module?$AA@ 000000014005908c     TreeImportExport.obj
 0002:0000b098       ??_C@_0BA@JPBBNJAM@first_thunk_rva?$AA@ 0000000140059098     TreeImportExport.obj
 0002:0000b0a8       ??_C@_0N@HMECECNC@import_valid?$AA@ 00000001400590a8     TreeImportExport.obj
 0002:0000b0b8       ??_C@_04MEMAJGDJ@name?$AA@ 00000001400590b8     TreeImportExport.obj
 0002:0000b0c0       ??_C@_07LEACAOHP@ordinal?$AA@ 00000001400590c0     TreeImportExport.obj
 0002:0000b0c8       ??_C@_04NPKLNGDP@hint?$AA@ 00000001400590c8     TreeImportExport.obj
 0002:0000b0d0       ??_C@_07HPAMBIHD@suspect?$AA@ 00000001400590d0     TreeImportExport.obj
 0002:0000b0d8       ??_C@_0P@GJBBLENC@import_invalid?$AA@ 00000001400590d8     TreeImportExport.obj
 0002:0000b0e8       ??_C@_07LPOEONIJ@iat_rva?$AA@ 00000001400590e8     TreeImportExport.obj
 0002:0000b0f0       ??_C@_0L@GHGKDCGG@address_va?$AA@ 00000001400590f0     TreeImportExport.obj
 0002:0000b0fc       ??_C@_01HIHLOKLC@1?$AA@    00000001400590fc     TreeImportExport.obj
 0002:0000b100       ??_C@_01GBGANLPD@0?$AA@    0000000140059100     TreeImportExport.obj
 0002:0000b108       ??_C@_08FJMJDCMD@?$CF016I64X?$AA@ 0000000140059108     TreeImportExport.obj
 0002:0000b114       ??_C@_04JBNHMKCH@?$CF04X?$AA@ 0000000140059114     TreeImportExport.obj
 0002:0000b2c8       __real@5f800000            00000001400592c8      CIL library: CIL module
 0002:0000b748       __real@3f800000            0000000140059748      CIL library: CIL module
 0002:0000c4d0       ??_R4TiXmlBase@@6B@        000000014005a4d0     tinyxml:tinyxml.obj
 0002:0000c4f8       ??_R4TiXmlAttribute@@6B@   000000014005a4f8     tinyxml:tinyxml.obj
 0002:0000c520       ??_R3TiXmlAttribute@@8     000000014005a520     tinyxml:tinyxml.obj
 0002:0000c538       ??_R2TiXmlAttribute@@8     000000014005a538     tinyxml:tinyxml.obj
 0002:0000c550       ??_R1A@?0A@EA@TiXmlAttribute@@8 000000014005a550     tinyxml:tinyxml.obj
 0002:0000c578       ??_R4TiXmlNode@@6B@        000000014005a578     tinyxml:tinyxml.obj
 0002:0000c5a0       ??_R4TiXmlComment@@6B@     000000014005a5a0     tinyxml:tinyxml.obj
 0002:0000c5c8       ??_R3TiXmlComment@@8       000000014005a5c8     tinyxml:tinyxml.obj
 0002:0000c5e0       ??_R2TiXmlComment@@8       000000014005a5e0     tinyxml:tinyxml.obj
 0002:0000c600       ??_R1A@?0A@EA@TiXmlComment@@8 000000014005a600     tinyxml:tinyxml.obj
 0002:0000c628       ??_R4TiXmlDeclaration@@6B@ 000000014005a628     tinyxml:tinyxml.obj
 0002:0000c650       ??_R3TiXmlDeclaration@@8   000000014005a650     tinyxml:tinyxml.obj
 0002:0000c668       ??_R2TiXmlDeclaration@@8   000000014005a668     tinyxml:tinyxml.obj
 0002:0000c688       ??_R1A@?0A@EA@TiXmlDeclaration@@8 000000014005a688     tinyxml:tinyxml.obj
 0002:0000c6b0       ??_R4TiXmlText@@6B@        000000014005a6b0     tinyxml:tinyxml.obj
 0002:0000c6d8       ??_R3TiXmlText@@8          000000014005a6d8     tinyxml:tinyxml.obj
 0002:0000c6f0       ??_R2TiXmlText@@8          000000014005a6f0     tinyxml:tinyxml.obj
 0002:0000c710       ??_R1A@?0A@EA@TiXmlText@@8 000000014005a710     tinyxml:tinyxml.obj
 0002:0000c738       ??_R4TiXmlUnknown@@6B@     000000014005a738     tinyxml:tinyxml.obj
 0002:0000c760       ??_R3TiXmlUnknown@@8       000000014005a760     tinyxml:tinyxml.obj
 0002:0000c778       ??_R2TiXmlUnknown@@8       000000014005a778     tinyxml:tinyxml.obj
 0002:0000c798       ??_R1A@?0A@EA@TiXmlUnknown@@8 000000014005a798     tinyxml:tinyxml.obj
 0002:0000c7c0       ??_R4TiXmlElement@@6B@     000000014005a7c0     tinyxml:tinyxml.obj
 0002:0000c7e8       ??_R3TiXmlElement@@8       000000014005a7e8     tinyxml:tinyxml.obj
 0002:0000c800       ??_R2TiXmlElement@@8       000000014005a800     tinyxml:tinyxml.obj
 0002:0000c820       ??_R1A@?0A@EA@TiXmlElement@@8 000000014005a820     tinyxml:tinyxml.obj
 0002:0000c848       ??_R4logic_error@std@@6B@  000000014005a848     libcpmt:xthrow.obj
 0002:0000c870       ??_R3logic_error@std@@8    000000014005a870     libcpmt:xthrow.obj
 0002:0000c888       ??_R2logic_error@std@@8    000000014005a888     libcpmt:xthrow.obj
 0002:0000c8a0       ??_R1A@?0A@EA@logic_error@std@@8 000000014005a8a0     libcpmt:xthrow.obj
 0002:0000c8c8       ??_R4length_error@std@@6B@ 000000014005a8c8     libcpmt:xthrow.obj
 0002:0000c8f0       ??_R3length_error@std@@8   000000014005a8f0     libcpmt:xthrow.obj
 0002:0000c908       ??_R2length_error@std@@8   000000014005a908     libcpmt:xthrow.obj
 0002:0000c928       ??_R1A@?0A@EA@length_error@std@@8 000000014005a928     libcpmt:xthrow.obj
 0002:0000c950       ??_R4out_of_range@std@@6B@ 000000014005a950     libcpmt:xthrow.obj
 0002:0000c978       ??_R3out_of_range@std@@8   000000014005a978     libcpmt:xthrow.obj
 0002:0000c990       ??_R2out_of_range@std@@8   000000014005a990     libcpmt:xthrow.obj
 0002:0000c9b0       ??_R1A@?0A@EA@out_of_range@std@@8 000000014005a9b0     libcpmt:xthrow.obj
 0002:0000c9d8       ??_R4type_info@@6B@        000000014005a9d8     LIBCMT:typinfo.obj
 0002:0000ca00       ??_R3type_info@@8          000000014005aa00     LIBCMT:typinfo.obj
 0002:0000ca18       ??_R2type_info@@8          000000014005aa18     LIBCMT:typinfo.obj
 0002:0000ca28       ??_R1A@?0A@EA@type_info@@8 000000014005aa28     LIBCMT:typinfo.obj
 0002:0000ca50       ??_R4exception@std@@6B@    000000014005aa50     LIBCMT:stdexcpt.obj
 0002:0000ca78       ??_R4bad_exception@std@@6B@ 000000014005aa78     LIBCMT:frame.obj
 0002:0000caa0       ??_R3bad_exception@std@@8  000000014005aaa0     LIBCMT:frame.obj
 0002:0000cab8       ??_R2bad_exception@std@@8  000000014005aab8     LIBCMT:frame.obj
 0002:0000cad0       ??_R1A@?0A@EA@bad_exception@std@@8 000000014005aad0     LIBCMT:frame.obj
 0002:0000caf8       ??_R4bad_alloc@std@@6B@    000000014005aaf8     ApiReader.obj
 0002:0000cb20       ??_R3bad_alloc@std@@8      000000014005ab20     ApiReader.obj
 0002:0000cb38       ??_R2bad_alloc@std@@8      000000014005ab38     ApiReader.obj
 0002:0000cb50       ??_R1A@?0A@EA@exception@std@@8 000000014005ab50     ApiReader.obj
 0002:0000cb78       ??_R3exception@std@@8      000000014005ab78     ApiReader.obj
 0002:0000cb90       ??_R2exception@std@@8      000000014005ab90     ApiReader.obj
 0002:0000cba0       ??_R1A@?0A@EA@bad_alloc@std@@8 000000014005aba0     ApiReader.obj
 0002:0000cbc8       ??_R4?$CHexEdit@_K@@6B@    000000014005abc8     DisassemblerGui.obj
 0002:0000cbf0       ??_R3?$CHexEdit@_K@@8      000000014005abf0     DisassemblerGui.obj
 0002:0000cc10       ??_R2?$CHexEdit@_K@@8      000000014005ac10     DisassemblerGui.obj
 0002:0000cc58       ??_R1A@?0A@EA@?$CHexEditImpl@V?$CHexEdit@_K@@_KV?$CEditT@VCWindow@ATL@@@WTL@@V?$CWinTraits@$0FGAAAAAA@$0A@@ATL@@@@8 000000014005ac58     DisassemblerGui.obj
 0002:0000cc80       ??_R3?$CHexEditImpl@V?$CHexEdit@_K@@_KV?$CEditT@VCWindow@ATL@@@WTL@@V?$CWinTraits@$0FGAAAAAA@$0A@@ATL@@@@8 000000014005ac80     DisassemblerGui.obj
 0002:0000cc98       ??_R2?$CHexEditImpl@V?$CHexEdit@_K@@_KV?$CEditT@VCWindow@ATL@@@WTL@@V?$CWinTraits@$0FGAAAAAA@$0A@@ATL@@@@8 000000014005ac98     DisassemblerGui.obj
 0002:0000ccd8       ??_R1A@?0A@EA@?$CWindowImpl@V?$CHexEdit@_K@@V?$CEditT@VCWindow@ATL@@@WTL@@V?$CWinTraits@$0FGAAAAAA@$0A@@ATL@@@ATL@@8 000000014005acd8     DisassemblerGui.obj
 0002:0000cd00       ??_R3?$CWindowImpl@V?$CHexEdit@_K@@V?$CEditT@VCWindow@ATL@@@WTL@@V?$CWinTraits@$0FGAAAAAA@$0A@@ATL@@@ATL@@8 000000014005ad00     DisassemblerGui.obj
 0002:0000cd18       ??_R2?$CWindowImpl@V?$CHexEdit@_K@@V?$CEditT@VCWindow@ATL@@@WTL@@V?$CWinTraits@$0FGAAAAAA@$0A@@ATL@@@ATL@@8 000000014005ad18     DisassemblerGui.obj
 0002:0000cd50       ??_R1A@?0A@EA@?$CWindowImplBaseT@V?$CEditT@VCWindow@ATL@@@WTL@@V?$CWinTraits@$0FGAAAAAA@$0A@@ATL@@@ATL@@8 000000014005ad50     DisassemblerGui.obj
 0002:0000cd78       ??_R3?$CWindowImplBaseT@V?$CEditT@VCWindow@ATL@@@WTL@@V?$CWinTraits@$0FGAAAAAA@$0A@@ATL@@@ATL@@8 000000014005ad78     DisassemblerGui.obj
 0002:0000cd90       ??_R2?$CWindowImplBaseT@V?$CEditT@VCWindow@ATL@@@WTL@@V?$CWinTraits@$0FGAAAAAA@$0A@@ATL@@@ATL@@8 000000014005ad90     DisassemblerGui.obj
 0002:0000cdc0       ??_R1A@?0A@EA@?$CWindowImplRoot@V?$CEditT@VCWindow@ATL@@@WTL@@@ATL@@8 000000014005adc0     DisassemblerGui.obj
 0002:0000cde8       ??_R3?$CWindowImplRoot@V?$CEditT@VCWindow@ATL@@@WTL@@@ATL@@8 000000014005ade8     DisassemblerGui.obj
 0002:0000ce00       ??_R2?$CWindowImplRoot@V?$CEditT@VCWindow@ATL@@@WTL@@@ATL@@8 000000014005ae00     DisassemblerGui.obj
 0002:0000ce28       ??_R17?0A@EA@?$CEditT@VCWindow@ATL@@@WTL@@8 000000014005ae28     DisassemblerGui.obj
 0002:0000ce50       ??_R3?$CEditT@VCWindow@ATL@@@WTL@@8 000000014005ae50     DisassemblerGui.obj
 0002:0000ce68       ??_R2?$CEditT@VCWindow@ATL@@@WTL@@8 000000014005ae68     DisassemblerGui.obj
 0002:0000ce80       ??_R1A@?0A@EA@?$CEditT@VCWindow@ATL@@@WTL@@8 000000014005ae80     DisassemblerGui.obj
 0002:0000cea8       ??_R1A@?0A@EA@?$CHexEdit@_K@@8 000000014005aea8     DisassemblerGui.obj
 0002:0000ced0       ??_R4DisassemblerGui@@6B@  000000014005aed0     DisassemblerGui.obj
 0002:0000cef8       ??_R3DisassemblerGui@@8    000000014005aef8     DisassemblerGui.obj
 0002:0000cf10       ??_R2DisassemblerGui@@8    000000014005af10     DisassemblerGui.obj
 0002:0000cf58       ??_R1EA@?0A@EA@?$CDialogResize@VDisassemblerGui@@@WTL@@8 000000014005af58     DisassemblerGui.obj
 0002:0000cf80       ??_R3?$CDialogResize@VDisassemblerGui@@@WTL@@8 000000014005af80     DisassemblerGui.obj
 0002:0000cf98       ??_R2?$CDialogResize@VDisassemblerGui@@@WTL@@8 000000014005af98     DisassemblerGui.obj
 0002:0000cfa8       ??_R1A@?0A@EA@?$CDialogResize@VDisassemblerGui@@@WTL@@8 000000014005afa8     DisassemblerGui.obj
 0002:0000cfd0       ??_R1EA@?0A@EA@?$CWinDataExchange@VDisassemblerGui@@@WTL@@8 000000014005afd0     DisassemblerGui.obj
 0002:0000cff8       ??_R3?$CWinDataExchange@VDisassemblerGui@@@WTL@@8 000000014005aff8     DisassemblerGui.obj
 0002:0000d010       ??_R2?$CWinDataExchange@VDisassemblerGui@@@WTL@@8 000000014005b010     DisassemblerGui.obj
 0002:0000d020       ??_R1A@?0A@EA@?$CWinDataExchange@VDisassemblerGui@@@WTL@@8 000000014005b020     DisassemblerGui.obj
 0002:0000d048       ??_R1A@?0A@EA@?$CDialogImpl@VDisassemblerGui@@VCWindow@ATL@@@ATL@@8 000000014005b048     DisassemblerGui.obj
 0002:0000d070       ??_R3?$CDialogImpl@VDisassemblerGui@@VCWindow@ATL@@@ATL@@8 000000014005b070     DisassemblerGui.obj
 0002:0000d088       ??_R2?$CDialogImpl@VDisassemblerGui@@VCWindow@ATL@@@ATL@@8 000000014005b088     DisassemblerGui.obj
 0002:0000d0b8       ??_R1A@?0A@EA@?$CDialogImplBaseT@VCWindow@ATL@@@ATL@@8 000000014005b0b8     DisassemblerGui.obj
 0002:0000d0e0       ??_R3?$CDialogImplBaseT@VCWindow@ATL@@@ATL@@8 000000014005b0e0     DisassemblerGui.obj
 0002:0000d0f8       ??_R2?$CDialogImplBaseT@VCWindow@ATL@@@ATL@@8 000000014005b0f8     DisassemblerGui.obj
 0002:0000d120       ??_R1A@?0A@EA@?$CWindowImplRoot@VCWindow@ATL@@@ATL@@8 000000014005b120     DisassemblerGui.obj
 0002:0000d148       ??_R3?$CWindowImplRoot@VCWindow@ATL@@@ATL@@8 000000014005b148     DisassemblerGui.obj
 0002:0000d160       ??_R2?$CWindowImplRoot@VCWindow@ATL@@@ATL@@8 000000014005b160     DisassemblerGui.obj
 0002:0000d180       ??_R1A@?0A@EA@CMessageMap@ATL@@8 000000014005b180     DisassemblerGui.obj
 0002:0000d1a8       ??_R3CMessageMap@ATL@@8    000000014005b1a8     DisassemblerGui.obj
 0002:0000d1c0       ??_R2CMessageMap@ATL@@8    000000014005b1c0     DisassemblerGui.obj
 0002:0000d1d0       ??_R17?0A@EA@CWindow@ATL@@8 000000014005b1d0     DisassemblerGui.obj
 0002:0000d1f8       ??_R3CWindow@ATL@@8        000000014005b1f8     DisassemblerGui.obj
 0002:0000d210       ??_R2CWindow@ATL@@8        000000014005b210     DisassemblerGui.obj
 0002:0000d220       ??_R1A@?0A@EA@CWindow@ATL@@8 000000014005b220     DisassemblerGui.obj
 0002:0000d248       ??_R1A@?0A@EA@DisassemblerGui@@8 000000014005b248     DisassemblerGui.obj
 0002:0000d270       ??_R4?$CHexEdit@K@@6B@     000000014005b270     DumpMemoryGui.obj
 0002:0000d298       ??_R3?$CHexEdit@K@@8       000000014005b298     DumpMemoryGui.obj
 0002:0000d2b0       ??_R2?$CHexEdit@K@@8       000000014005b2b0     DumpMemoryGui.obj
 0002:0000d2f8       ??_R1A@?0A@EA@?$CHexEditImpl@V?$CHexEdit@K@@KV?$CEditT@VCWindow@ATL@@@WTL@@V?$CWinTraits@$0FGAAAAAA@$0A@@ATL@@@@8 000000014005b2f8     DumpMemoryGui.obj
 0002:0000d320       ??_R3?$CHexEditImpl@V?$CHexEdit@K@@KV?$CEditT@VCWindow@ATL@@@WTL@@V?$CWinTraits@$0FGAAAAAA@$0A@@ATL@@@@8 000000014005b320     DumpMemoryGui.obj
 0002:0000d338       ??_R2?$CHexEditImpl@V?$CHexEdit@K@@KV?$CEditT@VCWindow@ATL@@@WTL@@V?$CWinTraits@$0FGAAAAAA@$0A@@ATL@@@@8 000000014005b338     DumpMemoryGui.obj
 0002:0000d378       ??_R1A@?0A@EA@?$CWindowImpl@V?$CHexEdit@K@@V?$CEditT@VCWindow@ATL@@@WTL@@V?$CWinTraits@$0FGAAAAAA@$0A@@ATL@@@ATL@@8 000000014005b378     DumpMemoryGui.obj
 0002:0000d3a0       ??_R3?$CWindowImpl@V?$CHexEdit@K@@V?$CEditT@VCWindow@ATL@@@WTL@@V?$CWinTraits@$0FGAAAAAA@$0A@@ATL@@@ATL@@8 000000014005b3a0     DumpMemoryGui.obj
 0002:0000d3b8       ??_R2?$CWindowImpl@V?$CHexEdit@K@@V?$CEditT@VCWindow@ATL@@@WTL@@V?$CWinTraits@$0FGAAAAAA@$0A@@ATL@@@ATL@@8 000000014005b3b8     DumpMemoryGui.obj
 0002:0000d3f0       ??_R1A@?0A@EA@?$CHexEdit@K@@8 000000014005b3f0     DumpMemoryGui.obj
 0002:0000d418       ??_R4DumpMemoryGui@@6B@    000000014005b418     DumpMemoryGui.obj
 0002:0000d440       ??_R3DumpMemoryGui@@8      000000014005b440     DumpMemoryGui.obj
 0002:0000d460       ??_R2DumpMemoryGui@@8      000000014005b460     DumpMemoryGui.obj
 0002:0000d4a8       ??_R1EA@?0A@EA@?$CDialogResize@VDumpMemoryGui@@@WTL@@8 000000014005b4a8     DumpMemoryGui.obj
 0002:0000d4d0       ??_R3?$CDialogResize@VDumpMemoryGui@@@WTL@@8 000000014005b4d0     DumpMemoryGui.obj
 0002:0000d4e8       ??_R2?$CDialogResize@VDumpMemoryGui@@@WTL@@8 000000014005b4e8     DumpMemoryGui.obj
 0002:0000d4f8       ??_R1A@?0A@EA@?$CDialogResize@VDumpMemoryGui@@@WTL@@8 000000014005b4f8     DumpMemoryGui.obj
 0002:0000d520       ??_R1EA@?0A@EA@?$CWinDataExchange@VDumpMemoryGui@@@WTL@@8 000000014005b520     DumpMemoryGui.obj
 0002:0000d548       ??_R3?$CWinDataExchange@VDumpMemoryGui@@@WTL@@8 000000014005b548     DumpMemoryGui.obj
 0002:0000d560       ??_R2?$CWinDataExchange@VDumpMemoryGui@@@WTL@@8 000000014005b560     DumpMemoryGui.obj
 0002:0000d570       ??_R1A@?0A@EA@?$CWinDataExchange@VDumpMemoryGui@@@WTL@@8 000000014005b570     DumpMemoryGui.obj
 0002:0000d598       ??_R1A@?0A@EA@?$CDialogImpl@VDumpMemoryGui@@VCWindow@ATL@@@ATL@@8 000000014005b598     DumpMemoryGui.obj
 0002:0000d5c0       ??_R3?$CDialogImpl@VDumpMemoryGui@@VCWindow@ATL@@@ATL@@8 000000014005b5c0     DumpMemoryGui.obj
 0002:0000d5d8       ??_R2?$CDialogImpl@VDumpMemoryGui@@VCWindow@ATL@@@ATL@@8 000000014005b5d8     DumpMemoryGui.obj
 0002:0000d608       ??_R1A@?0A@EA@DumpMemoryGui@@8 000000014005b608     DumpMemoryGui.obj
 0002:0000d630       ??_R4DumpSectionGui@@6B@   000000014005b630     DumpSectionGui.obj
 0002:0000d658       ??_R3DumpSectionGui@@8     000000014005b658     DumpSectionGui.obj
 0002:0000d670       ??_R2DumpSectionGui@@8     000000014005b670     DumpSectionGui.obj
 0002:0000d6b8       ??_R1EA@?0A@EA@?$CDialogResize@VDumpSectionGui@@@WTL@@8 000000014005b6b8     DumpSectionGui.obj
 0002:0000d6e0       ??_R3?$CDialogResize@VDumpSectionGui@@@WTL@@8 000000014005b6e0     DumpSectionGui.obj
 0002:0000d6f8       ??_R2?$CDialogResize@VDumpSectionGui@@@WTL@@8 000000014005b6f8     DumpSectionGui.obj
 0002:0000d708       ??_R1A@?0A@EA@?$CDialogResize@VDumpSectionGui@@@WTL@@8 000000014005b708     DumpSectionGui.obj
 0002:0000d730       ??_R1EA@?0A@EA@?$CWinDataExchange@VDumpSectionGui@@@WTL@@8 000000014005b730     DumpSectionGui.obj
 0002:0000d758       ??_R3?$CWinDataExchange@VDumpSectionGui@@@WTL@@8 000000014005b758     DumpSectionGui.obj
 0002:0000d770       ??_R2?$CWinDataExchange@VDumpSectionGui@@@WTL@@8 000000014005b770     DumpSectionGui.obj
 0002:0000d780       ??_R1A@?0A@EA@?$CWinDataExchange@VDumpSectionGui@@@WTL@@8 000000014005b780     DumpSectionGui.obj
 0002:0000d7a8       ??_R1A@?0A@EA@?$CDialogImpl@VDumpSectionGui@@VCWindow@ATL@@@ATL@@8 000000014005b7a8     DumpSectionGui.obj
 0002:0000d7d0       ??_R3?$CDialogImpl@VDumpSectionGui@@VCWindow@ATL@@@ATL@@8 000000014005b7d0     DumpSectionGui.obj
 0002:0000d7e8       ??_R2?$CDialogImpl@VDumpSectionGui@@VCWindow@ATL@@@ATL@@8 000000014005b7e8     DumpSectionGui.obj
 0002:0000d818       ??_R1A@?0A@EA@DumpSectionGui@@8 000000014005b818     DumpSectionGui.obj
 0002:0000d840       ??_R4FileLog@@6B@          000000014005b840     Logger.obj
 0002:0000d868       ??_R3FileLog@@8            000000014005b868     Logger.obj
 0002:0000d880       ??_R2FileLog@@8            000000014005b880     Logger.obj
 0002:0000d898       ??_R1A@?0A@EA@FileLog@@8   000000014005b898     Logger.obj
 0002:0000d8c0       ??_R3Logger@@8             000000014005b8c0     Logger.obj
 0002:0000d8d8       ??_R2Logger@@8             000000014005b8d8     Logger.obj
 0002:0000d8e8       ??_R1A@?0A@EA@Logger@@8    000000014005b8e8     Logger.obj
 0002:0000d910       ??_R4CAppModule@WTL@@6B@   000000014005b910     main.obj
 0002:0000d938       ??_R3CAppModule@WTL@@8     000000014005b938     main.obj
 0002:0000d950       ??_R2CAppModule@WTL@@8     000000014005b950     main.obj
 0002:0000d980       ??_R1A@?0A@EA@CAppModule@WTL@@8 000000014005b980     main.obj
 0002:0000d9a8       ??_R4CMessageLoop@WTL@@6B@ 000000014005b9a8     main.obj
 0002:0000d9d0       ??_R3CMessageLoop@WTL@@8   000000014005b9d0     main.obj
 0002:0000d9e8       ??_R2CMessageLoop@WTL@@8   000000014005b9e8     main.obj
 0002:0000d9f8       ??_R1A@?0A@EA@CMessageLoop@WTL@@8 000000014005b9f8     main.obj
 0002:0000da20       ??_R4CRegObject@ATL@@6B@   000000014005ba20     main.obj
 0002:0000da48       ??_R3CRegObject@ATL@@8     000000014005ba48     main.obj
 0002:0000da60       ??_R2CRegObject@ATL@@8     000000014005ba60     main.obj
 0002:0000da80       ??_R1A@?0A@EA@IRegistrarBase@@8 000000014005ba80     main.obj
 0002:0000daa8       ??_R3IRegistrarBase@@8     000000014005baa8     main.obj
 0002:0000dac0       ??_R2IRegistrarBase@@8     000000014005bac0     main.obj
 0002:0000dad8       ??_R1A@?0A@EA@IUnknown@@8  000000014005bad8     main.obj
 0002:0000db00       ??_R3IUnknown@@8           000000014005bb00     main.obj
 0002:0000db18       ??_R2IUnknown@@8           000000014005bb18     main.obj
 0002:0000db28       ??_R1A@?0A@EA@CRegObject@ATL@@8 000000014005bb28     main.obj
 0002:0000db50       ??_R4CComModule@ATL@@6B@   000000014005bb50     main.obj
 0002:0000db78       ??_R3CComModule@ATL@@8     000000014005bb78     main.obj
 0002:0000db90       ??_R2CComModule@ATL@@8     000000014005bb90     main.obj
 0002:0000dbb8       ??_R1A@?0A@EA@?$CAtlModuleT@VCComModule@ATL@@@ATL@@8 000000014005bbb8     main.obj
 0002:0000dbe0       ??_R3?$CAtlModuleT@VCComModule@ATL@@@ATL@@8 000000014005bbe0     main.obj
 0002:0000dbf8       ??_R2?$CAtlModuleT@VCComModule@ATL@@@ATL@@8 000000014005bbf8     main.obj
 0002:0000dc18       ??_R1A@?0A@EA@CAtlModule@ATL@@8 000000014005bc18     main.obj
 0002:0000dc40       ??_R3CAtlModule@ATL@@8     000000014005bc40     main.obj
 0002:0000dc58       ??_R2CAtlModule@ATL@@8     000000014005bc58     main.obj
 0002:0000dc70       ??_R17?0A@EA@_ATL_MODULE70@ATL@@8 000000014005bc70     main.obj
 0002:0000dc98       ??_R3_ATL_MODULE70@ATL@@8  000000014005bc98     main.obj
 0002:0000dcb0       ??_R2_ATL_MODULE70@ATL@@8  000000014005bcb0     main.obj
 0002:0000dcc0       ??_R1A@?0A@EA@_ATL_MODULE70@ATL@@8 000000014005bcc0     main.obj
 0002:0000dce8       ??_R1A@?0A@EA@CComModule@ATL@@8 000000014005bce8     main.obj
 0002:0000dd10       ??_R4OptionsGui@@6B@       000000014005bd10     MainGui.obj
 0002:0000dd38       ??_R3OptionsGui@@8         000000014005bd38     MainGui.obj
 0002:0000dd50       ??_R2OptionsGui@@8         000000014005bd50     MainGui.obj
 0002:0000dd90       ??_R1EA@?0A@EA@?$CWinDataExchange@VOptionsGui@@@WTL@@8 000000014005bd90     MainGui.obj
 0002:0000ddb8       ??_R3?$CWinDataExchange@VOptionsGui@@@WTL@@8 000000014005bdb8     MainGui.obj
 0002:0000ddd0       ??_R2?$CWinDataExchange@VOptionsGui@@@WTL@@8 000000014005bdd0     MainGui.obj
 0002:0000dde0       ??_R1A@?0A@EA@?$CWinDataExchange@VOptionsGui@@@WTL@@8 000000014005bde0     MainGui.obj
 0002:0000de08       ??_R1A@?0A@EA@?$CDialogImpl@VOptionsGui@@VCWindow@ATL@@@ATL@@8 000000014005be08     MainGui.obj
 0002:0000de30       ??_R3?$CDialogImpl@VOptionsGui@@VCWindow@ATL@@@ATL@@8 000000014005be30     MainGui.obj
 0002:0000de48       ??_R2?$CDialogImpl@VOptionsGui@@VCWindow@ATL@@@ATL@@8 000000014005be48     MainGui.obj
 0002:0000de78       ??_R1A@?0A@EA@OptionsGui@@8 000000014005be78     MainGui.obj
 0002:0000dea0       ??_R4DonateGui@@6B@        000000014005bea0     MainGui.obj
 0002:0000dec8       ??_R3DonateGui@@8          000000014005bec8     MainGui.obj
 0002:0000dee0       ??_R2DonateGui@@8          000000014005bee0     MainGui.obj
 0002:0000df20       ??_R1EA@?0A@EA@?$CWinDataExchange@VDonateGui@@@WTL@@8 000000014005bf20     MainGui.obj
 0002:0000df48       ??_R3?$CWinDataExchange@VDonateGui@@@WTL@@8 000000014005bf48     MainGui.obj
 0002:0000df60       ??_R2?$CWinDataExchange@VDonateGui@@@WTL@@8 000000014005bf60     MainGui.obj
 0002:0000df70       ??_R1A@?0A@EA@?$CWinDataExchange@VDonateGui@@@WTL@@8 000000014005bf70     MainGui.obj
 0002:0000df98       ??_R1A@?0A@EA@?$CDialogImpl@VDonateGui@@VCWindow@ATL@@@ATL@@8 000000014005bf98     MainGui.obj
 0002:0000dfc0       ??_R3?$CDialogImpl@VDonateGui@@VCWindow@ATL@@@ATL@@8 000000014005bfc0     MainGui.obj
 0002:0000dfd8       ??_R2?$CDialogImpl@VDonateGui@@VCWindow@ATL@@@ATL@@8 000000014005bfd8     MainGui.obj
 0002:0000e008       ??_R1A@?0A@EA@DonateGui@@8 000000014005c008     MainGui.obj
 0002:0000e030       ??_R4AboutGui@@6B@         000000014005c030     MainGui.obj
 0002:0000e058       ??_R3AboutGui@@8           000000014005c058     MainGui.obj
 0002:0000e070       ??_R2AboutGui@@8           000000014005c070     MainGui.obj
 0002:0000e0b0       ??_R1EA@?0A@EA@?$CWinDataExchange@VAboutGui@@@WTL@@8 000000014005c0b0     MainGui.obj
 0002:0000e0d8       ??_R3?$CWinDataExchange@VAboutGui@@@WTL@@8 000000014005c0d8     MainGui.obj
 0002:0000e0f0       ??_R2?$CWinDataExchange@VAboutGui@@@WTL@@8 000000014005c0f0     MainGui.obj
 0002:0000e100       ??_R1A@?0A@EA@?$CWinDataExchange@VAboutGui@@@WTL@@8 000000014005c100     MainGui.obj
 0002:0000e128       ??_R1A@?0A@EA@?$CDialogImpl@VAboutGui@@VCWindow@ATL@@@ATL@@8 000000014005c128     MainGui.obj
 0002:0000e150       ??_R3?$CDialogImpl@VAboutGui@@VCWindow@ATL@@@ATL@@8 000000014005c150     MainGui.obj
 0002:0000e168       ??_R2?$CDialogImpl@VAboutGui@@VCWindow@ATL@@@ATL@@8 000000014005c168     MainGui.obj
 0002:0000e198       ??_R1A@?0A@EA@AboutGui@@8  000000014005c198     MainGui.obj
 0002:0000e1c0       ??_R4MainGui@@6BCMessageFilter@WTL@@@ 000000014005c1c0     MainGui.obj
 0002:0000e1e8       ??_R4MainGui@@6B?$CDialogImpl@VMainGui@@VCWindow@ATL@@@ATL@@@ 000000014005c1e8     MainGui.obj
 0002:0000e210       ??_R3MainGui@@8            000000014005c210     MainGui.obj
 0002:0000e230       ??_R2MainGui@@8            000000014005c230     MainGui.obj
 0002:0000e280       ??_R1EA@?0A@EA@CMessageFilter@WTL@@8 000000014005c280     MainGui.obj
 0002:0000e2a8       ??_R1EI@?0A@EA@?$CDialogResize@VMainGui@@@WTL@@8 000000014005c2a8     MainGui.obj
 0002:0000e2d0       ??_R3?$CDialogResize@VMainGui@@@WTL@@8 000000014005c2d0     MainGui.obj
 0002:0000e2e8       ??_R2?$CDialogResize@VMainGui@@@WTL@@8 000000014005c2e8     MainGui.obj
 0002:0000e2f8       ??_R1A@?0A@EA@?$CDialogResize@VMainGui@@@WTL@@8 000000014005c2f8     MainGui.obj
 0002:0000e320       ??_R1EI@?0A@EA@?$CWinDataExchange@VMainGui@@@WTL@@8 000000014005c320     MainGui.obj
 0002:0000e348       ??_R3?$CWinDataExchange@VMainGui@@@WTL@@8 000000014005c348     MainGui.obj
 0002:0000e360       ??_R2?$CWinDataExchange@VMainGui@@@WTL@@8 000000014005c360     MainGui.obj
 0002:0000e370       ??_R1A@?0A@EA@?$CWinDataExchange@VMainGui@@@WTL@@8 000000014005c370     MainGui.obj
 0002:0000e398       ??_R1A@?0A@EA@?$CDialogImpl@VMainGui@@VCWindow@ATL@@@ATL@@8 000000014005c398     MainGui.obj
 0002:0000e3c0       ??_R3?$CDialogImpl@VMainGui@@VCWindow@ATL@@@ATL@@8 000000014005c3c0     MainGui.obj
 0002:0000e3d8       ??_R2?$CDialogImpl@VMainGui@@VCWindow@ATL@@@ATL@@8 000000014005c3d8     MainGui.obj
 0002:0000e408       ??_R1A@?0A@EA@MainGui@@8   000000014005c408     MainGui.obj
 0002:0000e430       ??_R4CMultiSelectTreeViewCtrl@@6B@ 000000014005c430     MainGui.obj
 0002:0000e458       ??_R3CMultiSelectTreeViewCtrl@@8 000000014005c458     MainGui.obj
 0002:0000e470       ??_R2CMultiSelectTreeViewCtrl@@8 000000014005c470     MainGui.obj
 0002:0000e4c8       ??_R1A@?0A@EA@?$CMultiSelectTreeViewImpl@VCMultiSelectTreeViewCtrl@@V?$CTreeViewCtrlExT@VCWindow@ATL@@@WTL@@V?$CWinTraitsOR@$0CA@$0A@V?$CWinTraits@$0FGAAAAAA@$0A@@ATL@@@ATL@@@@8 000000014005c4c8     MainGui.obj
 0002:0000e4f0       ??_R3?$CMultiSelectTreeViewImpl@VCMultiSelectTreeViewCtrl@@V?$CTreeViewCtrlExT@VCWindow@ATL@@@WTL@@V?$CWinTraitsOR@$0CA@$0A@V?$CWinTraits@$0FGAAAAAA@$0A@@ATL@@@ATL@@@@8 000000014005c4f0     MainGui.obj
 0002:0000e510       ??_R2?$CMultiSelectTreeViewImpl@VCMultiSelectTreeViewCtrl@@V?$CTreeViewCtrlExT@VCWindow@ATL@@@WTL@@V?$CWinTraitsOR@$0CA@$0A@V?$CWinTraits@$0FGAAAAAA@$0A@@ATL@@@ATL@@@@8 000000014005c510     MainGui.obj
 0002:0000e560       ??_R1EI@?0A@EA@?$CCustomDraw@VCMultiSelectTreeViewCtrl@@@WTL@@8 000000014005c560     MainGui.obj
 0002:0000e588       ??_R3?$CCustomDraw@VCMultiSelectTreeViewCtrl@@@WTL@@8 000000014005c588     MainGui.obj
 0002:0000e5a0       ??_R2?$CCustomDraw@VCMultiSelectTreeViewCtrl@@@WTL@@8 000000014005c5a0     MainGui.obj
 0002:0000e5b0       ??_R1A@?0A@EA@?$CCustomDraw@VCMultiSelectTreeViewCtrl@@@WTL@@8 000000014005c5b0     MainGui.obj
 0002:0000e5d8       ??_R1A@?0A@EA@?$CWindowImpl@VCMultiSelectTreeViewCtrl@@V?$CTreeViewCtrlExT@VCWindow@ATL@@@WTL@@V?$CWinTraitsOR@$0CA@$0A@V?$CWinTraits@$0FGAAAAAA@$0A@@ATL@@@ATL@@@ATL@@8 000000014005c5d8     MainGui.obj
 0002:0000e600       ??_R3?$CWindowImpl@VCMultiSelectTreeViewCtrl@@V?$CTreeViewCtrlExT@VCWindow@ATL@@@WTL@@V?$CWinTraitsOR@$0CA@$0A@V?$CWinTraits@$0FGAAAAAA@$0A@@ATL@@@ATL@@@ATL@@8 000000014005c600     MainGui.obj
 0002:0000e618       ??_R2?$CWindowImpl@VCMultiSelectTreeViewCtrl@@V?$CTreeViewCtrlExT@VCWindow@ATL@@@WTL@@V?$CWinTraitsOR@$0CA@$0A@V?$CWinTraits@$0FGAAAAAA@$0A@@ATL@@@ATL@@@ATL@@8 000000014005c618     MainGui.obj
 0002:0000e658       ??_R1A@?0A@EA@?$CWindowImplBaseT@V?$CTreeViewCtrlExT@VCWindow@ATL@@@WTL@@V?$CWinTraitsOR@$0CA@$0A@V?$CWinTraits@$0FGAAAAAA@$0A@@ATL@@@ATL@@@ATL@@8 000000014005c658     MainGui.obj
 0002:0000e680       ??_R3?$CWindowImplBaseT@V?$CTreeViewCtrlExT@VCWindow@ATL@@@WTL@@V?$CWinTraitsOR@$0CA@$0A@V?$CWinTraits@$0FGAAAAAA@$0A@@ATL@@@ATL@@@ATL@@8 000000014005c680     MainGui.obj
 0002:0000e698       ??_R2?$CWindowImplBaseT@V?$CTreeViewCtrlExT@VCWindow@ATL@@@WTL@@V?$CWinTraitsOR@$0CA@$0A@V?$CWinTraits@$0FGAAAAAA@$0A@@ATL@@@ATL@@@ATL@@8 000000014005c698     MainGui.obj
 0002:0000e6d0       ??_R1A@?0A@EA@?$CWindowImplRoot@V?$CTreeViewCtrlExT@VCWindow@ATL@@@WTL@@@ATL@@8 000000014005c6d0     MainGui.obj
 0002:0000e6f8       ??_R3?$CWindowImplRoot@V?$CTreeViewCtrlExT@VCWindow@ATL@@@WTL@@@ATL@@8 000000014005c6f8     MainGui.obj
 0002:0000e710       ??_R2?$CWindowImplRoot@V?$CTreeViewCtrlExT@VCWindow@ATL@@@WTL@@@ATL@@8 000000014005c710     MainGui.obj
 0002:0000e740       ??_R17?0A@EA@?$CTreeViewCtrlT@VCWindow@ATL@@@WTL@@8 000000014005c740     MainGui.obj
 0002:0000e768       ??_R17?0A@EA@?$CTreeViewCtrlExT@VCWindow@ATL@@@WTL@@8 000000014005c768     MainGui.obj
 0002:0000e790       ??_R3?$CTreeViewCtrlExT@VCWindow@ATL@@@WTL@@8 000000014005c790     MainGui.obj
 0002:0000e7a8       ??_R2?$CTreeViewCtrlExT@VCWindow@ATL@@@WTL@@8 000000014005c7a8     MainGui.obj
 0002:0000e7c8       ??_R1A@?0A@EA@?$CTreeViewCtrlT@VCWindow@ATL@@@WTL@@8 000000014005c7c8     MainGui.obj
 0002:0000e7f0       ??_R3?$CTreeViewCtrlT@VCWindow@ATL@@@WTL@@8 000000014005c7f0     MainGui.obj
 0002:0000e808       ??_R2?$CTreeViewCtrlT@VCWindow@ATL@@@WTL@@8 000000014005c808     MainGui.obj
 0002:0000e820       ??_R1A@?0A@EA@?$CTreeViewCtrlExT@VCWindow@ATL@@@WTL@@8 000000014005c820     MainGui.obj
 0002:0000e848       ??_R1A@?0A@EA@CMultiSelectTreeViewCtrl@@8 000000014005c848     MainGui.obj
 0002:0000e870       ??_R3CMessageFilter@WTL@@8 000000014005c870     MainGui.obj
 0002:0000e888       ??_R2CMessageFilter@WTL@@8 000000014005c888     MainGui.obj
 0002:0000e898       ??_R1A@?0A@EA@CMessageFilter@WTL@@8 000000014005c898     MainGui.obj
 0002:0000e8c0       ??_R4PickApiGui@@6B@       000000014005c8c0     PickApiGui.obj
 0002:0000e8e8       ??_R3PickApiGui@@8         000000014005c8e8     PickApiGui.obj
 0002:0000e900       ??_R2PickApiGui@@8         000000014005c900     PickApiGui.obj
 0002:0000e948       ??_R1EA@?0A@EA@?$CDialogResize@VPickApiGui@@@WTL@@8 000000014005c948     PickApiGui.obj
 0002:0000e970       ??_R3?$CDialogResize@VPickApiGui@@@WTL@@8 000000014005c970     PickApiGui.obj
 0002:0000e988       ??_R2?$CDialogResize@VPickApiGui@@@WTL@@8 000000014005c988     PickApiGui.obj
 0002:0000e998       ??_R1A@?0A@EA@?$CDialogResize@VPickApiGui@@@WTL@@8 000000014005c998     PickApiGui.obj
 0002:0000e9c0       ??_R1EA@?0A@EA@?$CWinDataExchange@VPickApiGui@@@WTL@@8 000000014005c9c0     PickApiGui.obj
 0002:0000e9e8       ??_R3?$CWinDataExchange@VPickApiGui@@@WTL@@8 000000014005c9e8     PickApiGui.obj
 0002:0000ea00       ??_R2?$CWinDataExchange@VPickApiGui@@@WTL@@8 000000014005ca00     PickApiGui.obj
 0002:0000ea10       ??_R1A@?0A@EA@?$CWinDataExchange@VPickApiGui@@@WTL@@8 000000014005ca10     PickApiGui.obj
 0002:0000ea38       ??_R1A@?0A@EA@?$CDialogImpl@VPickApiGui@@VCWindow@ATL@@@ATL@@8 000000014005ca38     PickApiGui.obj
 0002:0000ea60       ??_R3?$CDialogImpl@VPickApiGui@@VCWindow@ATL@@@ATL@@8 000000014005ca60     PickApiGui.obj
 0002:0000ea78       ??_R2?$CDialogImpl@VPickApiGui@@VCWindow@ATL@@@ATL@@8 000000014005ca78     PickApiGui.obj
 0002:0000eaa8       ??_R1A@?0A@EA@PickApiGui@@8 000000014005caa8     PickApiGui.obj
 0002:0000ead0       ??_R4PickDllGui@@6B@       000000014005cad0     PickDllGui.obj
 0002:0000eaf8       ??_R3PickDllGui@@8         000000014005caf8     PickDllGui.obj
 0002:0000eb10       ??_R2PickDllGui@@8         000000014005cb10     PickDllGui.obj
 0002:0000eb58       ??_R1EA@?0A@EA@?$CDialogResize@VPickDllGui@@@WTL@@8 000000014005cb58     PickDllGui.obj
 0002:0000eb80       ??_R3?$CDialogResize@VPickDllGui@@@WTL@@8 000000014005cb80     PickDllGui.obj
 0002:0000eb98       ??_R2?$CDialogResize@VPickDllGui@@@WTL@@8 000000014005cb98     PickDllGui.obj
 0002:0000eba8       ??_R1A@?0A@EA@?$CDialogResize@VPickDllGui@@@WTL@@8 000000014005cba8     PickDllGui.obj
 0002:0000ebd0       ??_R1EA@?0A@EA@?$CWinDataExchange@VPickDllGui@@@WTL@@8 000000014005cbd0     PickDllGui.obj
 0002:0000ebf8       ??_R3?$CWinDataExchange@VPickDllGui@@@WTL@@8 000000014005cbf8     PickDllGui.obj
 0002:0000ec10       ??_R2?$CWinDataExchange@VPickDllGui@@@WTL@@8 000000014005cc10     PickDllGui.obj
 0002:0000ec20       ??_R1A@?0A@EA@?$CWinDataExchange@VPickDllGui@@@WTL@@8 000000014005cc20     PickDllGui.obj
 0002:0000ec48       ??_R1A@?0A@EA@?$CDialogImpl@VPickDllGui@@VCWindow@ATL@@@ATL@@8 000000014005cc48     PickDllGui.obj
 0002:0000ec70       ??_R3?$CDialogImpl@VPickDllGui@@VCWindow@ATL@@@ATL@@8 000000014005cc70     PickDllGui.obj
 0002:0000ec88       ??_R2?$CDialogImpl@VPickDllGui@@VCWindow@ATL@@@ATL@@8 000000014005cc88     PickDllGui.obj
 0002:0000ecb8       ??_R1A@?0A@EA@PickDllGui@@8 000000014005ccb8     PickDllGui.obj
 0002:0000ece0       ??_R4ListboxLog@@6B@       000000014005cce0     Scylla.obj
 0002:0000ed08       ??_R3ListboxLog@@8         000000014005cd08     Scylla.obj
 0002:0000ed20       ??_R2ListboxLog@@8         000000014005cd20     Scylla.obj
 0002:0000ed38       ??_R1A@?0A@EA@ListboxLog@@8 000000014005cd38     Scylla.obj
 0002:0000ed60       ??_R4TiXmlDocument@@6B@    000000014005cd60     TreeImportExport.obj
 0002:0000ed88       ??_R3TiXmlDocument@@8      000000014005cd88     TreeImportExport.obj
 0002:0000eda0       ??_R2TiXmlDocument@@8      000000014005cda0     TreeImportExport.obj
 0002:0000edc0       ??_R1A@?0A@EA@TiXmlNode@@8 000000014005cdc0     TreeImportExport.obj
 0002:0000ede8       ??_R3TiXmlNode@@8          000000014005cde8     TreeImportExport.obj
 0002:0000ee00       ??_R2TiXmlNode@@8          000000014005ce00     TreeImportExport.obj
 0002:0000ee18       ??_R1A@?0A@EA@TiXmlBase@@8 000000014005ce18     TreeImportExport.obj
 0002:0000ee40       ??_R3TiXmlBase@@8          000000014005ce40     TreeImportExport.obj
 0002:0000ee58       ??_R2TiXmlBase@@8          000000014005ce58     TreeImportExport.obj
 0002:0000ee68       ??_R1A@?0A@EA@TiXmlDocument@@8 000000014005ce68     TreeImportExport.obj
 0002:0000ee90       __rtc_iaa                  000000014005ce90     LIBCMT:_initsect_.obj
 0002:0000ee98       __rtc_izz                  000000014005ce98     LIBCMT:_initsect_.obj
 0002:0000eea0       __rtc_taa                  000000014005cea0     LIBCMT:_initsect_.obj
 0002:0000eea8       __rtc_tzz                  000000014005cea8     LIBCMT:_initsect_.obj
 0002:00015d48       _CT??_R0?AVlogic_error@std@@@8??0logic_error@std@@QEAA@AEBV01@@Z24 0000000140063d48     libcpmt:xthrow.obj
 0002:00015d70       _TI3?AVlength_error@std@@  0000000140063d70     libcpmt:xthrow.obj
 0002:00015d90       _CTA3?AVlength_error@std@@ 0000000140063d90     libcpmt:xthrow.obj
 0002:00015db0       _CT??_R0?AVlength_error@std@@@8??0length_error@std@@QEAA@AEBV01@@Z24 0000000140063db0     libcpmt:xthrow.obj
 0002:00015dd8       _TI3?AVout_of_range@std@@  0000000140063dd8     libcpmt:xthrow.obj
 0002:00015df8       _CTA3?AVout_of_range@std@@ 0000000140063df8     libcpmt:xthrow.obj
 0002:00015e18       _CT??_R0?AVout_of_range@std@@@8??0out_of_range@std@@QEAA@AEBV01@@Z24 0000000140063e18     libcpmt:xthrow.obj
 0002:00015e40       _TI2?AVbad_exception@std@@ 0000000140063e40     LIBCMT:frame.obj
 0002:00015e60       _CTA2?AVbad_exception@std@@ 0000000140063e60     LIBCMT:frame.obj
 0002:00015e78       _CT??_R0?AVbad_exception@std@@@8??0bad_exception@std@@QEAA@AEBV01@@Z24 0000000140063e78     LIBCMT:frame.obj
 0002:00015ea0       _CT??_R0?AVbad_alloc@std@@@8??0bad_alloc@std@@QEAA@AEBV01@@Z24 0000000140063ea0     ApiReader.obj
 0002:00015ec8       _CT??_R0?AVexception@std@@@8??0exception@std@@QEAA@AEBV01@@Z24 0000000140063ec8     ApiReader.obj
 0002:00015ef0       _CTA2?AVbad_alloc@std@@    0000000140063ef0     ApiReader.obj
 0002:00015f08       _TI2?AVbad_alloc@std@@     0000000140063f08     ApiReader.obj
 0002:00015f28       _CT??_R0?AVCAtlException@ATL@@@84 0000000140063f28     DisassemblerGui.obj
 0002:00015f50       _CTA1?AVCAtlException@ATL@@ 0000000140063f50     DisassemblerGui.obj
 0002:00015f60       _TI1?AVCAtlException@ATL@@ 0000000140063f60     DisassemblerGui.obj
 0002:00015f80       __pobjMapEntryFirst        0000000140063f80     AboutGui.obj
 0002:00015f88       __pobjMapEntryLast         0000000140063f88     AboutGui.obj
 0002:00015f90       __IMPORT_DESCRIPTOR_KERNEL32 0000000140063f90     kernel32:KERNEL32.dll
 0002:00015fa4       __IMPORT_DESCRIPTOR_USER32 0000000140063fa4     user32:USER32.dll
 0002:00015fb8       __IMPORT_DESCRIPTOR_GDI32  0000000140063fb8     gdi32:GDI32.dll
 0002:00015fcc       __IMPORT_DESCRIPTOR_COMDLG32 0000000140063fcc     comdlg32:COMDLG32.dll
 0002:00015fe0       __IMPORT_DESCRIPTOR_ADVAPI32 0000000140063fe0     advapi32:ADVAPI32.dll
 0002:00015ff4       __IMPORT_DESCRIPTOR_SHELL32 0000000140063ff4     shell32:SHELL32.dll
 0002:00016008       __IMPORT_DESCRIPTOR_ole32  0000000140064008     ole32:ole32.dll
 0002:0001601c       __IMPORT_DESCRIPTOR_OLEAUT32 000000014006401c     oleaut32:OLEAUT32.dll
 0002:00016030       __IMPORT_DESCRIPTOR_SHLWAPI 0000000140064030     shlwapi:SHLWAPI.dll
 0002:00016044       __IMPORT_DESCRIPTOR_COMCTL32 0000000140064044     comctl32:COMCTL32.dll
 0002:00016058       __IMPORT_DESCRIPTOR_PSAPI  0000000140064058     Psapi:PSAPI.DLL
 0002:0001606c       __IMPORT_DESCRIPTOR_imagehlp 000000014006406c     Imagehlp:imagehlp.dll
 0002:00016080       __NULL_IMPORT_DESCRIPTOR   0000000140064080     kernel32:KERNEL32.dll
 0003:00000830       _REGISTERTORCLASS          0000000140066830     diStorm:operands.obj
 0003:00000a80       II_MOVSXD                  0000000140066a80     diStorm:insts.obj
 0003:00000a84       II_NOP                     0000000140066a84     diStorm:insts.obj
 0003:00000a88       II_PAUSE                   0000000140066a88     diStorm:insts.obj
 0003:00000a8c       II_WAIT                    0000000140066a8c     diStorm:insts.obj
 0003:00000a90       II_RDRAND                  0000000140066a90     diStorm:insts.obj
 0003:00000a94       II_3DNOW                   0000000140066a94     diStorm:insts.obj
 0003:00000a98       Table_0F                   0000000140066a98     diStorm:insts.obj
 0003:00000aa0       FlagsTable                 0000000140066aa0     diStorm:insts.obj
 0003:00000c30       Table_0F_0F                0000000140066c30     diStorm:insts.obj
 0003:00000c34       Table_0F_38                0000000140066c34     diStorm:insts.obj
 0003:00000c38       Table_0F_3A                0000000140066c38     diStorm:insts.obj
 0003:00000c40       InstInfos                  0000000140066c40     diStorm:insts.obj
 0003:00001fb0       InstInfosEx                0000000140067fb0     diStorm:insts.obj
 0003:00003190       InstructionsTree           0000000140069190     diStorm:insts.obj
 0003:00005d00       InstSharedInfoTable        000000014006bd00     diStorm:insts.obj
 0003:000069c8       CmpMnemonicOffsets         000000014006c9c8     diStorm:insts.obj
 0003:000069e0       VCmpMnemonicOffsets        000000014006c9e0     diStorm:insts.obj
 0003:00006a20       ?condenseWhiteSpace@TiXmlBase@@0_NA 000000014006ca20     tinyxml:tinyxml.obj
 0003:00006a28       ??_R0?AVTiXmlAttribute@@@8 000000014006ca28     tinyxml:tinyxml.obj
 0003:00006a50       ??_R0?AVTiXmlComment@@@8   000000014006ca50     tinyxml:tinyxml.obj
 0003:00006a78       ??_R0?AVTiXmlDeclaration@@@8 000000014006ca78     tinyxml:tinyxml.obj
 0003:00006aa0       ??_R0?AVTiXmlText@@@8      000000014006caa0     tinyxml:tinyxml.obj
 0003:00006ac0       ??_R0?AVTiXmlUnknown@@@8   000000014006cac0     tinyxml:tinyxml.obj
 0003:00006ae8       ??_R0?AVTiXmlElement@@@8   000000014006cae8     tinyxml:tinyxml.obj
 0003:00006b10       ?entity@TiXmlBase@@0PAUEntity@1@A 000000014006cb10     tinyxml:tinyxmlparser.obj
 0003:00006b60       ?errorString@TiXmlBase@@1PAPEBDA 000000014006cb60     tinyxml:tinyxmlerror.obj
 0003:00006be0       ??_R0?AVlogic_error@std@@@8 000000014006cbe0     libcpmt:xthrow.obj
 0003:00006c08       ??_R0?AVlength_error@std@@@8 000000014006cc08     libcpmt:xthrow.obj
 0003:00006c30       ??_R0?AVout_of_range@std@@@8 000000014006cc30     libcpmt:xthrow.obj
 0003:00006c60       ??_R0?AVtype_info@@@8      000000014006cc60     LIBCMT:typinfo.obj
 0003:00006c80       __app_type                 000000014006cc80     LIBCMT:wwincrt0.obj
 0003:00006c88       __security_cookie          000000014006cc88     LIBCMT:gs_cookie.obj
 0003:00006c90       __security_cookie_complement 000000014006cc90     LIBCMT:gs_cookie.obj
 0003:00006c98       _fltused                   000000014006cc98     LIBCMT:_fpinit_.obj
 0003:00006c9c       _ldused                    000000014006cc9c     LIBCMT:_fpinit_.obj
 0003:00006e10       __initialmbcinfo           000000014006ce10     LIBCMT:mbctype.obj
 0003:00007030       _mbctype                   000000014006d030     LIBCMT:mbctype.obj
 0003:00007140       _mbcasemap                 000000014006d140     LIBCMT:mbctype.obj
 0003:00007240       __ptmbcinfo                000000014006d240     LIBCMT:mbctype.obj
 0003:00007340       __globallocalestatus       000000014006d340     LIBCMT:glstatus.obj
 0003:00007344       __clocalestr               000000014006d344     LIBCMT:nlsdata2.obj
 0003:00007350       __lc_time_c                000000014006d350     LIBCMT:nlsdata2.obj
 0003:00007610       __initiallocinfo           000000014006d610     LIBCMT:nlsdata2.obj
 0003:00007770       __ptlocinfo                000000014006d770     LIBCMT:nlsdata2.obj
 0003:00007778       __initiallocalestructinfo  000000014006d778     LIBCMT:nlsdata2.obj
 0003:00007788       __flsindex                 000000014006d788     LIBCMT:tidtable.obj
 0003:000077a0       _iob                       000000014006d7a0     LIBCMT:_file.obj
 0003:00007b60       __nullstring               000000014006db60     LIBCMT:output.obj
 0003:00007b68       __wnullstring              000000014006db68     LIBCMT:output.obj
 0003:00007b70       __badioinfo                000000014006db70     LIBCMT:ioinit.obj
 0003:00007bc8       __abort_behavior           000000014006dbc8     LIBCMT:abort.obj
 0003:00007bd0       ??_R0?AVbad_exception@std@@@8 000000014006dbd0     LIBCMT:frame.obj
 0003:00007c00       _lookuptrailbytes          000000014006dc00     LIBCMT:read.obj
 0003:00007d00       _cfltcvt_tab               000000014006dd00     LIBCMT:cmiscdat.obj
 0003:00007f90       __lconv_static_decimal     000000014006df90     LIBCMT:lconv.obj
 0003:00007f94       __lconv_static_W_decimal   000000014006df94     LIBCMT:lconv.obj
 0003:00007f98       __lconv                    000000014006df98     LIBCMT:lconv.obj
 0003:00007fa0       __lconv_c                  000000014006dfa0     LIBCMT:lconv.obj
 0003:00008038       _pctype                    000000014006e038     LIBCMT:ctype.obj
 0003:00008040       _pwctype                   000000014006e040     LIBCMT:ctype.obj
 0003:00008048       __mb_cur_max               000000014006e048     LIBCMT:nlsdata1.obj
 0003:0000804c       __decimal_point            000000014006e04c     LIBCMT:nlsdata1.obj
 0003:00008050       __decimal_point_length     000000014006e050     LIBCMT:nlsdata1.obj
 0003:00008090       _pow10pos                  000000014006e090     LIBCMT:_constpow_.obj
 0003:000081f0       _pow10neg                  000000014006e1f0     LIBCMT:_constpow_.obj
 0003:00008350       _confh                     000000014006e350     LIBCMT:initcon.obj
 0003:00008358       ?rcDefault@CWindow@ATL@@2UtagRECT@@A 000000014006e358     AboutGui.obj
 0003:00008370       ?MemoryStateValues@DumpMemoryGui@@0PAPEB_WA 000000014006e370     DumpMemoryGui.obj
 0003:00008388       ?MemoryTypeValues@DumpMemoryGui@@0PAPEB_WA 000000014006e388     DumpMemoryGui.obj
 0003:000083a0       ?MemoryProtectionValues@DumpMemoryGui@@0PAPEB_WA 000000014006e3a0     DumpMemoryGui.obj
 0003:000083f8       ?FILE_MAPPING_NAME@DllInjectionPlugin@@2PEB_WEB 000000014006e3f8     DllInjectionPlugin.obj
 0003:00008400       ?minApiAddress@ApiReader@@2_KA 000000014006e400     ApiReader.obj
 0003:00008410       ?directImportLog@IATReferenceScan@@2VFileLog@@A 000000014006e410     IATReferenceScan.obj
 0003:00008620       ?debugLog@Scylla@@2VFileLog@@A 000000014006e620     Scylla.obj
 0003:00008830       ?windowLog@Scylla@@2VListboxLog@@A 000000014006e830     Scylla.obj
 0003:00008840       ??_R0?AVbad_alloc@std@@@8  000000014006e840     ApiReader.obj
 0003:00008868       ??_R0?AVexception@std@@@8  000000014006e868     ApiReader.obj
 0003:00008890       ??_R0?AV?$CEditT@VCWindow@ATL@@@WTL@@@8 000000014006e890     DisassemblerGui.obj
 0003:000088d0       ??_R0?AV?$CWindowImplRoot@V?$CEditT@VCWindow@ATL@@@WTL@@@ATL@@@8 000000014006e8d0     DisassemblerGui.obj
 0003:00008920       ??_R0?AV?$CWindowImplBaseT@V?$CEditT@VCWindow@ATL@@@WTL@@V?$CWinTraits@$0FGAAAAAA@$0A@@ATL@@@ATL@@@8 000000014006e920     DisassemblerGui.obj
 0003:00008990       ??_R0?AV?$CWindowImpl@V?$CHexEdit@_K@@V?$CEditT@VCWindow@ATL@@@WTL@@V?$CWinTraits@$0FGAAAAAA@$0A@@ATL@@@ATL@@@8 000000014006e990     DisassemblerGui.obj
 0003:00008a10       ??_R0?AV?$CHexEditImpl@V?$CHexEdit@_K@@_KV?$CEditT@VCWindow@ATL@@@WTL@@V?$CWinTraits@$0FGAAAAAA@$0A@@ATL@@@@@8 000000014006ea10     DisassemblerGui.obj
 0003:00008a90       ??_R0?AV?$CHexEdit@_K@@@8  000000014006ea90     DisassemblerGui.obj
 0003:00008ab8       ??_R0?AV?$CDialogResize@VDisassemblerGui@@@WTL@@@8 000000014006eab8     DisassemblerGui.obj
 0003:00008b00       ??_R0?AV?$CWinDataExchange@VDisassemblerGui@@@WTL@@@8 000000014006eb00     DisassemblerGui.obj
 0003:00008b40       ??_R0?AVCMessageMap@ATL@@@8 000000014006eb40     DisassemblerGui.obj
 0003:00008b68       ??_R0?AVCWindow@ATL@@@8    000000014006eb68     DisassemblerGui.obj
 0003:00008b90       ??_R0?AV?$CWindowImplRoot@VCWindow@ATL@@@ATL@@@8 000000014006eb90     DisassemblerGui.obj
 0003:00008bd0       ??_R0?AV?$CDialogImplBaseT@VCWindow@ATL@@@ATL@@@8 000000014006ebd0     DisassemblerGui.obj
 0003:00008c10       ??_R0?AV?$CDialogImpl@VDisassemblerGui@@VCWindow@ATL@@@ATL@@@8 000000014006ec10     DisassemblerGui.obj
 0003:00008c60       ??_R0?AVDisassemblerGui@@@8 000000014006ec60     DisassemblerGui.obj
 0003:00008c88       ??_R0?AVCAtlException@ATL@@@8 000000014006ec88     DisassemblerGui.obj
 0003:00008cb0       ??_R0?AV?$CWindowImpl@V?$CHexEdit@K@@V?$CEditT@VCWindow@ATL@@@WTL@@V?$CWinTraits@$0FGAAAAAA@$0A@@ATL@@@ATL@@@8 000000014006ecb0     DumpMemoryGui.obj
 0003:00008d30       ??_R0?AV?$CHexEditImpl@V?$CHexEdit@K@@KV?$CEditT@VCWindow@ATL@@@WTL@@V?$CWinTraits@$0FGAAAAAA@$0A@@ATL@@@@@8 000000014006ed30     DumpMemoryGui.obj
 0003:00008da8       ??_R0?AV?$CHexEdit@K@@@8   000000014006eda8     DumpMemoryGui.obj
 0003:00008dd0       ??_R0?AV?$CDialogResize@VDumpMemoryGui@@@WTL@@@8 000000014006edd0     DumpMemoryGui.obj
 0003:00008e10       ??_R0?AV?$CWinDataExchange@VDumpMemoryGui@@@WTL@@@8 000000014006ee10     DumpMemoryGui.obj
 0003:00008e50       ??_R0?AV?$CDialogImpl@VDumpMemoryGui@@VCWindow@ATL@@@ATL@@@8 000000014006ee50     DumpMemoryGui.obj
 0003:00008e98       ??_R0?AVDumpMemoryGui@@@8  000000014006ee98     DumpMemoryGui.obj
 0003:00008ec0       ??_R0?AV?$CDialogResize@VDumpSectionGui@@@WTL@@@8 000000014006eec0     DumpSectionGui.obj
 0003:00008f00       ??_R0?AV?$CWinDataExchange@VDumpSectionGui@@@WTL@@@8 000000014006ef00     DumpSectionGui.obj
 0003:00008f40       ??_R0?AV?$CDialogImpl@VDumpSectionGui@@VCWindow@ATL@@@ATL@@@8 000000014006ef40     DumpSectionGui.obj
 0003:00008f88       ??_R0?AVDumpSectionGui@@@8 000000014006ef88     DumpSectionGui.obj
 0003:00008fb0       ??_R0?AVFileLog@@@8        000000014006efb0     Logger.obj
 0003:00008fd0       ??_R0?AVLogger@@@8         000000014006efd0     Logger.obj
 0003:00008ff0       ??_R0?AVCAppModule@WTL@@@8 000000014006eff0     main.obj
 0003:00009018       ??_R0?AVCMessageLoop@WTL@@@8 000000014006f018     main.obj
 0003:00009040       ??_R0?AUIUnknown@@@8       000000014006f040     main.obj
 0003:00009060       ??_R0?AUIRegistrarBase@@@8 000000014006f060     main.obj
 0003:00009088       ??_R0?AVCRegObject@ATL@@@8 000000014006f088     main.obj
 0003:000090b0       ??_R0?AU_ATL_MODULE70@ATL@@@8 000000014006f0b0     main.obj
 0003:000090d8       ??_R0?AVCAtlModule@ATL@@@8 000000014006f0d8     main.obj
 0003:00009100       ??_R0?AV?$CAtlModuleT@VCComModule@ATL@@@ATL@@@8 000000014006f100     main.obj
 0003:00009140       ??_R0?AVCComModule@ATL@@@8 000000014006f140     main.obj
 0003:00009168       ??_R0?AV?$CWinDataExchange@VOptionsGui@@@WTL@@@8 000000014006f168     MainGui.obj
 0003:000091b0       ??_R0?AV?$CDialogImpl@VOptionsGui@@VCWindow@ATL@@@ATL@@@8 000000014006f1b0     MainGui.obj
 0003:000091f8       ??_R0?AVOptionsGui@@@8     000000014006f1f8     MainGui.obj
 0003:00009220       ??_R0?AV?$CWinDataExchange@VDonateGui@@@WTL@@@8 000000014006f220     MainGui.obj
 0003:00009260       ??_R0?AV?$CDialogImpl@VDonateGui@@VCWindow@ATL@@@ATL@@@8 000000014006f260     MainGui.obj
 0003:000092a8       ??_R0?AVDonateGui@@@8      000000014006f2a8     MainGui.obj
 0003:000092c8       ??_R0?AV?$CWinDataExchange@VAboutGui@@@WTL@@@8 000000014006f2c8     MainGui.obj
 0003:00009310       ??_R0?AV?$CDialogImpl@VAboutGui@@VCWindow@ATL@@@ATL@@@8 000000014006f310     MainGui.obj
 0003:00009358       ??_R0?AVAboutGui@@@8       000000014006f358     MainGui.obj
 0003:00009378       ??_R0?AV?$CDialogResize@VMainGui@@@WTL@@@8 000000014006f378     MainGui.obj
 0003:000093b0       ??_R0?AV?$CWinDataExchange@VMainGui@@@WTL@@@8 000000014006f3b0     MainGui.obj
 0003:000093f0       ??_R0?AV?$CDialogImpl@VMainGui@@VCWindow@ATL@@@ATL@@@8 000000014006f3f0     MainGui.obj
 0003:00009438       ??_R0?AVMainGui@@@8        000000014006f438     MainGui.obj
 0003:00009460       ??_R0?AV?$CCustomDraw@VCMultiSelectTreeViewCtrl@@@WTL@@@8 000000014006f460     MainGui.obj
 0003:000094a8       ??_R0?AV?$CTreeViewCtrlT@VCWindow@ATL@@@WTL@@@8 000000014006f4a8     MainGui.obj
 0003:000094e8       ??_R0?AV?$CTreeViewCtrlExT@VCWindow@ATL@@@WTL@@@8 000000014006f4e8     MainGui.obj
 0003:00009530       ??_R0?AV?$CWindowImplRoot@V?$CTreeViewCtrlExT@VCWindow@ATL@@@WTL@@@ATL@@@8 000000014006f530     MainGui.obj
 0003:00009590       ??_R0?AV?$CWindowImplBaseT@V?$CTreeViewCtrlExT@VCWindow@ATL@@@WTL@@V?$CWinTraitsOR@$0CA@$0A@V?$CWinTraits@$0FGAAAAAA@$0A@@ATL@@@ATL@@@ATL@@@8 000000014006f590     MainGui.obj
 0003:00009630       ??_R0?AV?$CWindowImpl@VCMultiSelectTreeViewCtrl@@V?$CTreeViewCtrlExT@VCWindow@ATL@@@WTL@@V?$CWinTraitsOR@$0CA@$0A@V?$CWinTraits@$0FGAAAAAA@$0A@@ATL@@@ATL@@@ATL@@@8 000000014006f630     MainGui.obj
 0003:000096e0       ??_R0?AV?$CMultiSelectTreeViewImpl@VCMultiSelectTreeViewCtrl@@V?$CTreeViewCtrlExT@VCWindow@ATL@@@WTL@@V?$CWinTraitsOR@$0CA@$0A@V?$CWinTraits@$0FGAAAAAA@$0A@@ATL@@@ATL@@@@@8 000000014006f6e0     MainGui.obj
 0003:00009798       ??_R0?AVCMultiSelectTreeViewCtrl@@@8 000000014006f798     MainGui.obj
 0003:000097c8       ??_R0?AVCMessageFilter@WTL@@@8 000000014006f7c8     MainGui.obj
 0003:000097f8       ??_R0?AV?$CDialogResize@VPickApiGui@@@WTL@@@8 000000014006f7f8     PickApiGui.obj
 0003:00009830       ??_R0?AV?$CWinDataExchange@VPickApiGui@@@WTL@@@8 000000014006f830     PickApiGui.obj
 0003:00009870       ??_R0?AV?$CDialogImpl@VPickApiGui@@VCWindow@ATL@@@ATL@@@8 000000014006f870     PickApiGui.obj
 0003:000098b8       ??_R0?AVPickApiGui@@@8     000000014006f8b8     PickApiGui.obj
 0003:000098e0       ??_R0?AV?$CDialogResize@VPickDllGui@@@WTL@@@8 000000014006f8e0     PickDllGui.obj
 0003:00009918       ??_R0?AV?$CWinDataExchange@VPickDllGui@@@WTL@@@8 000000014006f918     PickDllGui.obj
 0003:00009960       ??_R0?AV?$CDialogImpl@VPickDllGui@@VCWindow@ATL@@@ATL@@@8 000000014006f960     PickDllGui.obj
 0003:000099a8       ??_R0?AVPickDllGui@@@8     000000014006f9a8     PickDllGui.obj
 0003:000099d0       ??_R0?AVListboxLog@@@8     000000014006f9d0     Scylla.obj
 0003:000099f8       ??_R0?AVTiXmlBase@@@8      000000014006f9f8     TreeImportExport.obj
 0003:00009a18       ??_R0?AVTiXmlNode@@@8      000000014006fa18     TreeImportExport.obj
 0003:00009a38       ??_R0?AVTiXmlDocument@@@8  000000014006fa38     TreeImportExport.obj
 0003:00009a60       ?nullrep_@TiXmlString@@0URep@1@A 000000014006fa60     tinyxml:tinystr.obj
 0003:00009a80       ?_AtlBaseModule@ATL@@3VCAtlBaseModule@1@A 000000014006fa80     atls:atlbase.obj
 0003:00009ae0       ?AtlThunkPool@@3PEAT_SLIST_HEADER@@EA 000000014006fae0     atls:atlthunk.obj
 0003:00009af0       ?_AtlComModule@ATL@@3VCAtlComModule@1@A 000000014006faf0     atls:atlcommodule.obj
 0003:00009b40       ?_AtlWinModule@ATL@@3VCAtlWinModule@1@A 000000014006fb40     atls:atlwinmodule.obj
 0003:00009ba8       _aenvptr                   000000014006fba8     LIBCMT:wwincrt0.obj
 0003:00009bb0       _wenvptr                   000000014006fbb0     LIBCMT:wwincrt0.obj
 0003:00009bb8       __error_mode               000000014006fbb8     LIBCMT:wwincrt0.obj
 0003:00009bbc       __fastflag                 000000014006fbbc     LIBCMT:_fpinit_.obj
 0003:0000a130       ?__pInconsistency@@3P6AXXZEA 0000000140070130     LIBCMT:hooks.obj
 0003:0000a148       __pInvalidArgHandler       0000000140070148     LIBCMT:invarg.obj
 0003:0000a158       __mbulinfo                 0000000140070158     LIBCMT:mbctype.obj
 0003:0000a164       __mbcodepage               0000000140070164     LIBCMT:mbctype.obj
 0003:0000a168       __ismbcodepage             0000000140070168     LIBCMT:mbctype.obj
 0003:0000a16c       __mblcid                   000000014007016c     LIBCMT:mbctype.obj
 0003:0000a170       __locale_changed           0000000140070170     LIBCMT:setlocal.obj
 0003:0000a174       _maxwait                   0000000140070174     LIBCMT:crtheap.obj
 0003:0000a178       _umaskval                  0000000140070178     LIBCMT:crt0dat.obj
 0003:0000a17c       __argc                     000000014007017c     LIBCMT:crt0dat.obj
 0003:0000a180       __argv                     0000000140070180     LIBCMT:crt0dat.obj
 0003:0000a188       __wargv                    0000000140070188     LIBCMT:crt0dat.obj
 0003:0000a190       _environ                   0000000140070190     LIBCMT:crt0dat.obj
 0003:0000a198       __initenv                  0000000140070198     LIBCMT:crt0dat.obj
 0003:0000a1a0       _wenviron                  00000001400701a0     LIBCMT:crt0dat.obj
 0003:0000a1a8       __winitenv                 00000001400701a8     LIBCMT:crt0dat.obj
 0003:0000a1b0       _pgmptr                    00000001400701b0     LIBCMT:crt0dat.obj
 0003:0000a1b8       _wpgmptr                   00000001400701b8     LIBCMT:crt0dat.obj
 0003:0000a1c0       _exitflag                  00000001400701c0     LIBCMT:crt0dat.obj
 0003:0000a1c4       _C_Termination_Done        00000001400701c4     LIBCMT:crt0dat.obj
 0003:0000a1c8       _C_Exit_Done               00000001400701c8     LIBCMT:crt0dat.obj
 0003:0000a1d0       ?_pnhHeap@@3P6AH_K@ZEA     00000001400701d0     LIBCMT:handler.obj
 0003:0000a1d8       _crtheap                   00000001400701d8     LIBCMT:heapinit.obj
 0003:0000a808       _newmode                   0000000140070808     LIBCMT:_newmode.obj
 0003:0000a80c       _cflush                    000000014007080c     LIBCMT:_file.obj
 0003:0000a810       _stdbuf                    0000000140070810     LIBCMT:_sftbuf.obj
 0003:0000a820       __pPurecall                0000000140070820     LIBCMT:inithelp.obj
 0003:0000ac70       ?pArgList@UnDecorator@@0PEAVReplicator@@EA 0000000140070c70     LIBCMT:undname.obj
 0003:0000aca0       ?pZNameList@UnDecorator@@0PEAVReplicator@@EA 0000000140070ca0     LIBCMT:undname.obj
 0003:0000aca8       ?pTemplateArgList@UnDecorator@@0PEAVReplicator@@EA 0000000140070ca8     LIBCMT:undname.obj
 0003:0000acb0       ?gName@UnDecorator@@0PEBDEB 0000000140070cb0     LIBCMT:undname.obj
 0003:0000acb8       ?name@UnDecorator@@0PEBDEB 0000000140070cb8     LIBCMT:undname.obj
 0003:0000acc0       ?outputString@UnDecorator@@0PEADEA 0000000140070cc0     LIBCMT:undname.obj
 0003:0000acc8       ?maxStringLength@UnDecorator@@0HA 0000000140070cc8     LIBCMT:undname.obj
 0003:0000accc       ?disableFlags@UnDecorator@@0KA 0000000140070ccc     LIBCMT:undname.obj
 0003:0000acd0       ?m_pGetParameter@UnDecorator@@0P6APEADJ@ZEA 0000000140070cd0     LIBCMT:undname.obj
 0003:0000acd8       ?fExplicitTemplateParams@UnDecorator@@0_NA 0000000140070cd8     LIBCMT:undname.obj
 0003:0000acd9       ?fGetTemplateArgumentList@UnDecorator@@0_NA 0000000140070cd9     LIBCMT:undname.obj
 0003:0000acdc       __lconv_static_null        0000000140070cdc     LIBCMT:lconv.obj
 0003:0000ace0       __lconv_static_W_null      0000000140070ce0     LIBCMT:lconv.obj
 0003:0000ad48       _commode                   0000000140070d48     LIBCMT:ncommode.obj
 0003:0000ad4c       _outputformat              0000000140070d4c     LIBCMT:outputformat.obj
 0003:0000ad50       _fmode                     0000000140070d50     LIBCMT:txtmode.obj
 0003:0000ad54       ?m_bInitFailed@CAtlBaseModule@ATL@@2_NA 0000000140070d54     AboutGui.obj
 0003:0000ad55       ?_AtlRegisterPerUser@ATL@@3_NA 0000000140070d55     AboutGui.obj
 0003:0000ad58       ?_pAtlModule@ATL@@3PEAVCAtlModule@1@EA 0000000140070d58     AboutGui.obj
 0003:0000ad60       ?_pModule@ATL@@3PEAVCComModule@1@EA 0000000140070d60     AboutGui.obj
 0003:0000ad70       ?moduleThunkList@ApiReader@@2PEAV?$map@_KVImportModuleThunk@@U?$less@_K@std@@V?$allocator@U?$pair@$$CB_KVImportModuleThunk@@@std@@@3@@std@@EA 0000000140070d70     ApiReader.obj
 0003:0000ad78       ?oldFilter@@3P6AJPEAU_EXCEPTION_POINTERS@@@ZEA 0000000140070d78     main.obj
 0003:0000ad80       ?protectionString@DumpMemoryGui@@0PA_WA 0000000140070d80     DumpMemoryGui.obj
 0003:0000ae48       ?selectedModule@ProcessAccessHelp@@2PEAVModuleInfo@@EA 0000000140070e48     ProcessAccessHelp.obj
 0003:0000ae50       ?fileHeaderFromDisk@ProcessAccessHelp@@2PAEA 0000000140070e50     ProcessAccessHelp.obj
 0003:0000b620       ?decodedInstructions@ProcessAccessHelp@@2PAU_DecodedInst@@A 0000000140071620     ProcessAccessHelp.obj
 0003:00013960       ?decomposerResult@ProcessAccessHelp@@2PAU_DInst@@A 0000000140079960     ProcessAccessHelp.obj
 0003:00016b60       ?maxApiAddress@ApiReader@@2_KA 000000014007cb60     ApiReader.obj
 0003:00016b68       ?hProcess@DllInjectionPlugin@@2PEAXEA 000000014007cb68     DllInjectionPlugin.obj
 0003:00016b70       ?pMainGui@@3PEAVMainGui@@EA 000000014007cb70     main.obj
 0003:00016b78       ?IsDllMode@@3_NA           000000014007cb78     main.obj
 0003:00016b80       ?NtCreateThreadEx@NativeWinApi@@2P6AJPEAPEAXKPEAX1P6AK1@Z1HK111@ZEA 000000014007cb80     NativeWinApi.obj
 0003:00016b88       ?NtDuplicateObject@NativeWinApi@@2P6AJPEAX00PEAPEAXKEK@ZEA 000000014007cb88     NativeWinApi.obj
 0003:00016b90       ?NtOpenProcess@NativeWinApi@@2P6AJPEAPEAXKPEAXPEAU_CLIENT_ID@@@ZEA 000000014007cb90     NativeWinApi.obj
 0003:00016b98       ?NtOpenThread@NativeWinApi@@2P6AJPEAPEAXKPEAU_OBJECT_ATTRIBUTES@@PEAU_CLIENT_ID@@@ZEA 000000014007cb98     NativeWinApi.obj
 0003:00016ba0       ?NtQueryObject@NativeWinApi@@2P6AJPEAXW4_OBJECT_INFORMATION_CLASS@@0KPEAK@ZEA 000000014007cba0     NativeWinApi.obj
 0003:00016ba8       ?NtQueryInformationFile@NativeWinApi@@2P6AJPEAXPEAU_IO_STATUS_BLOCK@@0KW4_FILE_INFORMATION_CLASS@@@ZEA 000000014007cba8     NativeWinApi.obj
 0003:00016bb0       ?NtQueryInformationProcess@NativeWinApi@@2P6AJPEAXW4_PROCESSINFOCLASS@@0KPEAK@ZEA 000000014007cbb0     NativeWinApi.obj
 0003:00016bb8       ?NtQueryInformationThread@NativeWinApi@@2P6AJPEAXW4_THREADINFOCLASS@@0KPEAK@ZEA 000000014007cbb8     NativeWinApi.obj
 0003:00016bc0       ?NtQuerySystemInformation@NativeWinApi@@2P6AJW4_SYSTEM_INFORMATION_CLASS@@PEAXKPEAK@ZEA 000000014007cbc0     NativeWinApi.obj
 0003:00016bc8       ?NtQueryVirtualMemory@NativeWinApi@@2P6AJPEAX0W4_MEMORY_INFORMATION_CLASS@@0_KPEA_K@ZEA 000000014007cbc8     NativeWinApi.obj
 0003:00016bd0       ?NtResumeProcess@NativeWinApi@@2P6AJPEAX@ZEA 000000014007cbd0     NativeWinApi.obj
 0003:00016bd8       ?NtResumeThread@NativeWinApi@@2P6AJPEAXPEAK@ZEA 000000014007cbd8     NativeWinApi.obj
 0003:00016be0       ?NtSetInformationThread@NativeWinApi@@2P6AJPEAXW4_THREADINFOCLASS@@0K@ZEA 000000014007cbe0     NativeWinApi.obj
 0003:00016be8       ?NtSuspendProcess@NativeWinApi@@2P6AJPEAX@ZEA 000000014007cbe8     NativeWinApi.obj
 0003:00016bf0       ?NtTerminateProcess@NativeWinApi@@2P6AJPEAXJ@ZEA 000000014007cbf0     NativeWinApi.obj
 0003:00016bf8       ?NtOpenSymbolicLinkObject@NativeWinApi@@2P6AJPEAPEAXKPEAU_OBJECT_ATTRIBUTES@@@ZEA 000000014007cbf8     NativeWinApi.obj
 0003:00016c00       ?NtQuerySymbolicLinkObject@NativeWinApi@@2P6AJPEAXPEAU_UNICODE_STRING@@PEAK@ZEA 000000014007cc00     NativeWinApi.obj
 0003:00016c08       ?RtlNtStatusToDosError@NativeWinApi@@2P6AKJ@ZEA 000000014007cc08     NativeWinApi.obj
 0003:00016c10       ?NtClose@NativeWinApi@@2P6AJPEAX@ZEA 000000014007cc10     NativeWinApi.obj
 0003:00016c18       ?hProcess@ProcessAccessHelp@@2PEAXEA 000000014007cc18     ProcessAccessHelp.obj
 0003:00016c20       ?targetImageBase@ProcessAccessHelp@@2_KA 000000014007cc20     ProcessAccessHelp.obj
 0003:00016c28       ?targetSizeOfImage@ProcessAccessHelp@@2_KA 000000014007cc28     ProcessAccessHelp.obj
 0003:00016c30       ?maxValidAddress@ProcessAccessHelp@@2_KA 000000014007cc30     ProcessAccessHelp.obj
 0003:00016c38       ?decomposerInstructionsCount@ProcessAccessHelp@@2IA 000000014007cc38     ProcessAccessHelp.obj
 0003:00016c3c       ?decodedInstructionsCount@ProcessAccessHelp@@2IA 000000014007cc3c     ProcessAccessHelp.obj
 0003:00016c40       ?decomposerCi@ProcessAccessHelp@@2U_CodeInfo@@A 000000014007cc40     ProcessAccessHelp.obj
 0003:00016c68       ?_IsWow64Process@ProcessLister@@2P6AHPEAXPEAH@ZEA 000000014007cc68     ProcessLister.obj
 0003:00016c70       ?currenOS@SystemInformation@@2W4OPERATING_SYSTEM@@A 000000014007cc70     SystemInformation.obj
 0003:00016c80       ?apiList@ApiReader@@2V?$hash_multimap@_KPEAVApiInfo@@V?$hash_compare@_KU?$less@_K@std@@@stdext@@V?$allocator@U?$pair@$$CB_KPEAVApiInfo@@@std@@@std@@@stdext@@A 000000014007cc80     ApiReader.obj
 0003:00016ce0       ?_Module@@3VCAppModule@WTL@@A 000000014007cce0     main.obj
 0003:00016d48       ?moduleList@ProcessAccessHelp@@2V?$vector@VModuleInfo@@V?$allocator@VModuleInfo@@@std@@@std@@A 000000014007cd48     ProcessAccessHelp.obj
 0003:00016d68       ?ownModuleList@ProcessAccessHelp@@2V?$vector@VModuleInfo@@V?$allocator@VModuleInfo@@@std@@@std@@A 000000014007cd68     ProcessAccessHelp.obj
 0003:00016d88       ?processLister@Scylla@@2VProcessLister@@A 000000014007cd88     Scylla.obj
 0003:00016db0       ?plugins@Scylla@@2VPluginLoader@@A 000000014007cdb0     Scylla.obj
 0003:00017410       ?config@Scylla@@2VConfigurationHolder@@A 000000014007d410     Scylla.obj
 0003:00017638       ??_B?1??VTFromRegType@CRegParser@ATL@@KAHPEB_WAEAG@Z@51 000000014007d638     main.obj
 0003:0001763c       ?bInitialized@?8??DeleteSubKey@CRegKey@ATL@@QEAAJPEB_W@Z@4_NA 000000014007d63c     main.obj
 0003:00017640       ?pfnRegDeleteKeyEx@?8??DeleteSubKey@CRegKey@ATL@@QEAAJPEB_W@Z@4P6AJPEAUHKEY__@@0KK@ZEA 000000014007d640     main.obj
 0003:00017650       ?map@?1??VTFromRegType@CRegParser@ATL@@KAHPEB_WAEAG@Z@4QBUtypemap@?1??123@KAH01@Z@B 000000014007d650     main.obj
 0003:00017a18       _debugger_hook_dummy       000000014007da18     <common>
 0003:00017a1c       _nhandle                   000000014007da1c     <common>
 0003:00017a20       __pioinfo                  000000014007da20     <common>
 0003:00017c20       __piob                     000000014007dc20     <common>
 0003:00017c40       _bufin                     000000014007dc40     <common>
 0003:00018c40       _nstream                   000000014007ec40     <common>
 0003:00018c44       __env_initialized          000000014007ec44     <common>
 0003:00018c48       __onexitend                000000014007ec48     <common>
 0003:00018c50       __onexitbegin              000000014007ec50     <common>
 0003:00018c58       __mbctype_initialized      000000014007ec58     <common>
 0003:00018c60       __dyn_tls_init_callback    000000014007ec60     <common>
 0003:00018c68       _wcmdln                    000000014007ec68     <common>

 entry point at        0001:0003a8e4

 Static symbols

 0001:0002fa10       distorm_format_size        0000000140030a10 f   diStorm:distorm.obj
 0001:0002fd00       distorm_format_signed_disp 0000000140030d00 f   diStorm:distorm.obj
 0001:00030610       decode_inst                0000000140031610 f   diStorm:decoder.obj
 0001:00031470       operands_extract_sib       0000000140032470 f   diStorm:operands.obj
 0001:00031590       operands_extract_modrm     0000000140032590 f   diStorm:operands.obj
 0001:00033540       inst_get_info              0000000140034540 f   diStorm:instructions.obj
 0001:000335a0       inst_lookup_prefixed       00000001400345a0 f   diStorm:instructions.obj
 0001:00033730       inst_vex_lookup            0000000140034730 f   diStorm:instructions.obj
 0001:00039348       ?wcstoxq@@YA_KPEAUlocaleinfo_struct@@PEB_WPEAPEB_WHH@Z 000000014003a348 f   LIBCMT:wcstoq.obj
 0001:0003a1e0       ?strtoxq@@YA_KPEAUlocaleinfo_struct@@PEBDPEAPEBDHH@Z 000000014003b1e0 f   LIBCMT:strtoq.obj
 0001:0003a478       ?strtoxl@@YAKPEAUlocaleinfo_struct@@PEBDPEAPEBDHH@Z 000000014003b478 f   LIBCMT:strtol.obj
 0001:0003a748       __tmainCRTStartup          000000014003b748 f   LIBCMT:wwincrt0.obj
 0001:0003c5a8       ?setSBCS@@YAXPEAUthreadmbcinfostruct@@@Z 000000014003d5a8 f   LIBCMT:mbctype.obj
 0001:0003c634       ?setSBUpLow@@YAXPEAUthreadmbcinfostruct@@@Z 000000014003d634 f   LIBCMT:mbctype.obj
 0001:0003c8e0       ?getSystemCP@@YAHH@Z       000000014003d8e0 f   LIBCMT:mbctype.obj
 0001:0003d8c0       _initterm                  000000014003e8c0 f   LIBCMT:crt0dat.obj
 0001:0003d9e0       doexit                     000000014003e9e0 f   LIBCMT:crt0dat.obj
 0001:0003dd9c       write_char                 000000014003ed9c f   LIBCMT:woutputs.obj
 0001:0003ddd4       write_multi_char           000000014003edd4 f   LIBCMT:woutputs.obj
 0001:0003de28       write_string               000000014003ee28 f   LIBCMT:woutputs.obj
 0001:0003f7e4       write_char                 00000001400407e4 f   LIBCMT:output.obj
 0001:0003f7e4       write_char                 00000001400407e4 f   LIBCMT:output.obj
 0001:000402d8       write_multi_char           00000001400412d8 f   LIBCMT:outputs.obj
 0001:000402d8       write_multi_char           00000001400412d8 f   LIBCMT:outputs.obj
 0001:0004032c       write_string               000000014004132c f   LIBCMT:outputs.obj
 0001:0004032c       write_string               000000014004132c f   LIBCMT:outputs.obj
 0001:00041928       flsall                     0000000140042928 f   LIBCMT:fflush.obj
 0001:00041ec4       wparse_cmdline             0000000140042ec4 f   LIBCMT:wstdargv.obj
 0001:000427e0       ?IsInExceptionSpec@@YAEPEAUEHExceptionRecord@@PEBU_s_ESTypeList@@@Z 00000001400437e0 f   LIBCMT:frame.obj
 0001:00042d7c       ?CatchIt@@YAXPEAUEHExceptionRecord@@PEA_KPEAU_CONTEXT@@PEAU_xDISPATCHER_CONTEXT@@PEBU_s_FuncInfo@@PEBU_s_HandlerType@@PEBU_s_CatchableType@@PEBU_s_TryBlockMapEntry@@H1EE@Z 0000000140043d7c f   LIBCMT:frame.obj
 0001:00042e40       ?FindHandlerForForeignException@@YAXPEAUEHExceptionRecord@@PEA_KPEAU_CONTEXT@@PEAU_xDISPATCHER_CONTEXT@@PEBU_s_FuncInfo@@HH1@Z 0000000140043e40 f   LIBCMT:frame.obj
 0001:00043078       ?FindHandler@@YAXPEAUEHExceptionRecord@@PEA_KPEAU_CONTEXT@@PEAU_xDISPATCHER_CONTEXT@@PEBU_s_FuncInfo@@EH1@Z 0000000140044078 f   LIBCMT:frame.obj
 0001:00044c98       _cftoe2_l                  0000000140045c98 f   LIBCMT:cvt.obj
 0001:000453a4       _cftof2_l                  00000001400463a4 f   LIBCMT:cvt.obj
 0001:0004583c       ?__crtLCMapStringA_stat@@YAHPEAUlocaleinfo_struct@@KKPEBDHPEADHHH@Z 000000014004683c f   LIBCMT:a_map.obj
 0001:00045ec4       ?__crtGetStringTypeA_stat@@YAHPEAUlocaleinfo_struct@@KPEBDHPEAGHHH@Z 0000000140046ec4 f   LIBCMT:a_str.obj
 0001:00047870       _tsopen_nolock             0000000140048870 f   LIBCMT:wopen.obj
 0001:0004abd0       ?dtor$0@?0??assign@TiXmlString@@QEAAAEAV1@PEBD_K@Z@4HA 000000014004bbd0 f   tinyxml:tinystr.obj
 0001:0004abd0       ?dtor$0@?0??reserve@TiXmlString@@QEAAX_K@Z@4HA 000000014004bbd0 f   tinyxml:tinystr.obj
 0001:0004abe0       ?dtor$0@?0???1TiXmlNode@@UEAA@XZ@4HA 000000014004bbe0 f   tinyxml:tinyxml.obj
 0001:0004abf0       ?dtor$1@?0???1TiXmlNode@@UEAA@XZ@4HA 000000014004bbf0 f   tinyxml:tinyxml.obj
 0001:0004ac00       ?dtor$0@?0???0TiXmlDocument@@QEAA@XZ@4HA 000000014004bc00 f   tinyxml:tinyxml.obj
 0001:0004ac10       ?dtor$1@?0???0TiXmlDocument@@QEAA@XZ@4HA 000000014004bc10 f   tinyxml:tinyxml.obj
 0001:0004ac20       ?dtor$0@?0??Clone@TiXmlDocument@@MEBAPEAVTiXmlNode@@XZ@4HA 000000014004bc20 f   tinyxml:tinyxml.obj
 0001:0004ac20       ?dtor$0@?0??Clone@TiXmlElement@@UEBAPEAVTiXmlNode@@XZ@4HA 000000014004bc20 f   tinyxml:tinyxml.obj
 0001:0004ac30       ?dtor$0@?0??Print@TiXmlAttribute@@QEBAXPEAU_iobuf@@HPEAVTiXmlString@@@Z@4HA 000000014004bc30 f   tinyxml:tinyxml.obj
 0001:0004ac40       ?dtor$1@?0??Print@TiXmlAttribute@@QEBAXPEAU_iobuf@@HPEAVTiXmlString@@@Z@4HA 000000014004bc40 f   tinyxml:tinyxml.obj
 0001:0004ac50       ?dtor$0@?0??Print@TiXmlText@@UEBAXPEAU_iobuf@@H@Z@4HA 000000014004bc50 f   tinyxml:tinyxml.obj
 0001:0004ac60       ?dtor$0@?0???0TiXmlDeclaration@@QEAA@PEBD00@Z@4HA 000000014004bc60 f   tinyxml:tinyxml.obj
 0001:0004ac70       ?dtor$1@?0???0TiXmlDeclaration@@QEAA@PEBD00@Z@4HA 000000014004bc70 f   tinyxml:tinyxml.obj
 0001:0004ac80       ?dtor$2@?0???0TiXmlDeclaration@@QEAA@PEBD00@Z@4HA 000000014004bc80 f   tinyxml:tinyxml.obj
 0001:0004ac90       ?dtor$3@?0???0TiXmlDeclaration@@QEAA@PEBD00@Z@4HA 000000014004bc90 f   tinyxml:tinyxml.obj
 0001:0004aca0       ?dtor$1@?0???1TiXmlAttributeSet@@QEAA@XZ@4HA 000000014004bca0 f   tinyxml:tinyxml.obj
 0001:0004aca0       ?dtor$0@?0???1TiXmlAttribute@@UEAA@XZ@4HA 000000014004bca0 f   tinyxml:tinyxml.obj
 0001:0004aca0       ?dtor$0@?0???_GTiXmlAttribute@@UEAAPEAXI@Z@4HA 000000014004bca0 f   tinyxml:tinyxml.obj
 0001:0004acb0       ?dtor$1@?0???_GTiXmlAttribute@@UEAAPEAXI@Z@4HA 000000014004bcb0 f   tinyxml:tinyxml.obj
 0001:0004acb0       ?dtor$2@?0???1TiXmlAttributeSet@@QEAA@XZ@4HA 000000014004bcb0 f   tinyxml:tinyxml.obj
 0001:0004acb0       ?dtor$1@?0???1TiXmlAttribute@@UEAA@XZ@4HA 000000014004bcb0 f   tinyxml:tinyxml.obj
 0001:0004acc0       ?dtor$0@?0???0TiXmlText@@QEAA@PEBD@Z@4HA 000000014004bcc0 f   tinyxml:tinyxml.obj
 0001:0004acd0       ?dtor$0@?0???1TiXmlDeclaration@@UEAA@XZ@4HA 000000014004bcd0 f   tinyxml:tinyxml.obj
 0001:0004ace0       ?dtor$1@?0???1TiXmlDeclaration@@UEAA@XZ@4HA 000000014004bce0 f   tinyxml:tinyxml.obj
 0001:0004acf0       ?dtor$2@?0???1TiXmlDeclaration@@UEAA@XZ@4HA 000000014004bcf0 f   tinyxml:tinyxml.obj
 0001:0004ad00       ?dtor$0@?0???0TiXmlElement@@QEAA@PEBD@Z@4HA 000000014004bd00 f   tinyxml:tinyxml.obj
 0001:0004ad00       ?dtor$0@?0???1TiXmlElement@@UEAA@XZ@4HA 000000014004bd00 f   tinyxml:tinyxml.obj
 0001:0004ad10       ?dtor$1@?0???1TiXmlElement@@UEAA@XZ@4HA 000000014004bd10 f   tinyxml:tinyxml.obj
 0001:0004ad10       ?dtor$1@?0???0TiXmlElement@@QEAA@PEBD@Z@4HA 000000014004bd10 f   tinyxml:tinyxml.obj
 0001:0004ad20       ?dtor$0@?0??Clone@TiXmlText@@MEBAPEAVTiXmlNode@@XZ@4HA 000000014004bd20 f   tinyxml:tinyxml.obj
 0001:0004ad30       ?dtor$1@?0??Clone@TiXmlText@@MEBAPEAVTiXmlNode@@XZ@4HA 000000014004bd30 f   tinyxml:tinyxml.obj
 0001:0004ad40       ?dtor$0@?0??GetEntity@TiXmlBase@@KAPEBDPEBDPEADPEAHW4TiXmlEncoding@@@Z@4HA 000000014004bd40 f   tinyxml:tinyxmlparser.obj
 0001:0004ad50       ?dtor$0@?0??Identify@TiXmlNode@@IEAAPEAV1@PEBDW4TiXmlEncoding@@@Z@4HA 000000014004bd50 f   tinyxml:tinyxmlparser.obj
 0001:0004ad60       ?dtor$1@?0??Identify@TiXmlNode@@IEAAPEAV1@PEBDW4TiXmlEncoding@@@Z@4HA 000000014004bd60 f   tinyxml:tinyxmlparser.obj
 0001:0004ad70       ?dtor$2@?0??Identify@TiXmlNode@@IEAAPEAV1@PEBDW4TiXmlEncoding@@@Z@4HA 000000014004bd70 f   tinyxml:tinyxmlparser.obj
 0001:0004ad80       ?dtor$3@?0??Identify@TiXmlNode@@IEAAPEAV1@PEBDW4TiXmlEncoding@@@Z@4HA 000000014004bd80 f   tinyxml:tinyxmlparser.obj
 0001:0004ad90       ?dtor$4@?0??Identify@TiXmlNode@@IEAAPEAV1@PEBDW4TiXmlEncoding@@@Z@4HA 000000014004bd90 f   tinyxml:tinyxmlparser.obj
 0001:0004ada0       ?dtor$5@?0??Identify@TiXmlNode@@IEAAPEAV1@PEBDW4TiXmlEncoding@@@Z@4HA 000000014004bda0 f   tinyxml:tinyxmlparser.obj
 0001:0004adb0       ?dtor$0@?0??ReadValue@TiXmlElement@@IEAAPEBDPEBDPEAVTiXmlParsingData@@W4TiXmlEncoding@@@Z@4HA 000000014004bdb0 f   tinyxml:tinyxmlparser.obj
 0001:0004adc0       ?dtor$1@?0??ReadValue@TiXmlElement@@IEAAPEBDPEBDPEAVTiXmlParsingData@@W4TiXmlEncoding@@@Z@4HA 000000014004bdc0 f   tinyxml:tinyxmlparser.obj
 0001:0004add0       ?dtor$0@?0??Parse@TiXmlElement@@UEAAPEBDPEBDPEAVTiXmlParsingData@@W4TiXmlEncoding@@@Z@4HA 000000014004bdd0 f   tinyxml:tinyxmlparser.obj
 0001:0004ade0       ?dtor$0@?0??Parse@TiXmlText@@UEAAPEBDPEBDPEAVTiXmlParsingData@@W4TiXmlEncoding@@@Z@4HA 000000014004bde0 f   tinyxml:tinyxmlparser.obj
 0001:0004adf0       ?dtor$0@?0??Parse@TiXmlDeclaration@@UEAAPEBDPEBDPEAVTiXmlParsingData@@W4TiXmlEncoding@@@Z@4HA 000000014004bdf0 f   tinyxml:tinyxmlparser.obj
 0001:0004ae00       ?dtor$3@?0??Parse@TiXmlDeclaration@@UEAAPEBDPEBDPEAVTiXmlParsingData@@W4TiXmlEncoding@@@Z@4HA 000000014004be00 f   tinyxml:tinyxmlparser.obj
 0001:0004ae10       ?dtor$4@?0??Parse@TiXmlDeclaration@@UEAAPEBDPEBDPEAVTiXmlParsingData@@W4TiXmlEncoding@@@Z@4HA 000000014004be10 f   tinyxml:tinyxmlparser.obj
 0001:0004ae20       ?dtor$1@?0??Parse@TiXmlDeclaration@@UEAAPEBDPEBDPEAVTiXmlParsingData@@W4TiXmlEncoding@@@Z@4HA 000000014004be20 f   tinyxml:tinyxmlparser.obj
 0001:0004ae30       ?dtor$6@?0??Parse@TiXmlDeclaration@@UEAAPEBDPEBDPEAVTiXmlParsingData@@W4TiXmlEncoding@@@Z@4HA 000000014004be30 f   tinyxml:tinyxmlparser.obj
 0001:0004ae40       ?dtor$7@?0??Parse@TiXmlDeclaration@@UEAAPEBDPEBDPEAVTiXmlParsingData@@W4TiXmlEncoding@@@Z@4HA 000000014004be40 f   tinyxml:tinyxmlparser.obj
 0001:0004ae50       ?dtor$2@?0??Parse@TiXmlDeclaration@@UEAAPEBDPEBDPEAVTiXmlParsingData@@W4TiXmlEncoding@@@Z@4HA 000000014004be50 f   tinyxml:tinyxmlparser.obj
 0001:0004ae60       ?dtor$9@?0??Parse@TiXmlDeclaration@@UEAAPEBDPEBDPEAVTiXmlParsingData@@W4TiXmlEncoding@@@Z@4HA 000000014004be60 f   tinyxml:tinyxmlparser.obj
 0001:0004ae70       ?dtor$10@?0??Parse@TiXmlDeclaration@@UEAAPEBDPEBDPEAVTiXmlParsingData@@W4TiXmlEncoding@@@Z@4HA 000000014004be70 f   tinyxml:tinyxmlparser.obj
 0001:0004ae80       _onexit$fin$0              000000014004be80 f   LIBCMT:onexit.obj
 0001:0004ae96       fputs$fin$0                000000014004be96 f   LIBCMT:fputs.obj
 0001:0004aeb0       fputws$fin$0               000000014004beb0 f   LIBCMT:fputws.obj
 0001:0004aeca       __tmainCRTStartup$filt$0   000000014004beca f   LIBCMT:wwincrt0.obj
 0001:0004aee8       _CallSETranslator$filt$0   000000014004bee8 f   LIBCMT:trnsctrl.obj
 0001:0004af2e       fread_s$fin$0              000000014004bf2e f   LIBCMT:fread.obj
 0001:0004af48       fseek$fin$0                000000014004bf48 f   LIBCMT:ftell.obj
 0001:0004af48       fclose$fin$0               000000014004bf48 f   LIBCMT:ftell.obj
 0001:0004af48       ftell$fin$0                000000014004bf48 f   LIBCMT:ftell.obj
 0001:0004af62       fprintf$fin$0              000000014004bf62 f   LIBCMT:fprintf.obj
 0001:0004af62       _wfsopen$fin$0             000000014004bf62 f   LIBCMT:fprintf.obj
 0001:0004af7c       ?fin$0@?0??_Type_info_dtor@type_info@@CAXPEAV1@@Z@4HA 000000014004bf7c f   LIBCMT:typname.obj
 0001:0004af97       __updatetmbcinfo$fin$0     000000014004bf97 f   LIBCMT:mbctype.obj
 0001:0004af97       _setmbcp$fin$0             000000014004bf97 f   LIBCMT:mbctype.obj
 0001:0004afb2       __updatetlocinfo$fin$0     000000014004bfb2 f   LIBCMT:localref.obj
 0001:0004afcd       _initptd$fin$1             000000014004bfcd f   LIBCMT:tidtable.obj
 0001:0004afcd       _freefls$fin$1             000000014004bfcd f   LIBCMT:tidtable.obj
 0001:0004afed       _initptd$fin$0             000000014004bfed f   LIBCMT:tidtable.obj
 0001:0004afed       _freefls$fin$0             000000014004bfed f   LIBCMT:tidtable.obj
 0001:0004b008       doexit$fin$0               000000014004c008 f   LIBCMT:crt0dat.obj
 0001:0004b02c       _getstream$fin$0           000000014004c02c f   LIBCMT:stream.obj
 0001:0004b02c       _fcloseall$fin$0           000000014004c02c f   LIBCMT:stream.obj
 0001:0004b047       _commit$fin$0              000000014004c047 f   LIBCMT:close.obj
 0001:0004b047       _close$fin$0               000000014004c047 f   LIBCMT:close.obj
 0001:0004b060       flsall$fin$0               000000014004c060 f   LIBCMT:fflush.obj
 0001:0004b090       flsall$fin$1               000000014004c090 f   LIBCMT:fflush.obj
 0001:0004b0ab       __FrameUnwindToState$filt$0 000000014004c0ab f   LIBCMT:frame.obj
 0001:0004b0cb       __FrameUnwindToState$fin$1 000000014004c0cb f   LIBCMT:frame.obj
 0001:0004b0f4       __DestructExceptionObject$filt$0 000000014004c0f4 f   LIBCMT:frame.obj
 0001:0004b10c       __CxxCallCatchBlock$filt$0 000000014004c10c f   LIBCMT:frame.obj
 0001:0004b20c       __CxxCallCatchBlock$fin$1  000000014004c20c f   LIBCMT:frame.obj
 0001:0004b2a0       _IsNonwritableInCurrentImage$filt$0 000000014004c2a0 f   LIBCMT:pesect.obj
 0001:0004b2c2       _mtinitlocknum$fin$0       000000014004c2c2 f   LIBCMT:mlock.obj
 0001:0004b2e0       raise$fin$0                000000014004c2e0 f   LIBCMT:winsig.obj
 0001:0004b2fe       _lseek$fin$0               000000014004c2fe f   LIBCMT:lseeki64.obj
 0001:0004b2fe       _lseeki64$fin$0            000000014004c2fe f   LIBCMT:lseeki64.obj
 0001:0004b2fe       _read$fin$0                000000014004c2fe f   LIBCMT:lseeki64.obj
 0001:0004b2fe       _write$fin$0               000000014004c2fe f   LIBCMT:lseeki64.obj
 0001:0004b317       _wsopen_helper$fin$0       000000014004c317 f   LIBCMT:wopen.obj
 0001:0004b360       __lock_fhandle$fin$0       000000014004c360 f   LIBCMT:osfinfo.obj
 0001:0004b37b       _alloc_osfhnd$fin$0        000000014004c37b f   LIBCMT:osfinfo.obj
 0001:0004b39b       _alloc_osfhnd$fin$1        000000014004c39b f   LIBCMT:osfinfo.obj
 0001:0004b3c0       ?catch$0@?0??saveLogToFile@MainGui@@IEAA_NPEB_W@Z@4HA 000000014004c3c0 f    CIL library: CIL module
 0001:0004b3cd       __catch$?saveLogToFile@MainGui@@IEAA_NPEB_W@Z$0 000000014004c3cd f    CIL library: CIL module
 0001:0004b3f0       ?dtor$0@?0??getImportXmlElement@TreeImportExport@@AEAAPEAVTiXmlElement@@PEBVImportThunk@@@Z@4HA 000000014004c3f0 f    CIL library: CIL module
 0001:0004b400       ?dtor$1@?0??getImportXmlElement@TreeImportExport@@AEAAPEAVTiXmlElement@@PEBVImportThunk@@@Z@4HA 000000014004c400 f    CIL library: CIL module
 0001:0004b410       ?catch$0@?0???$_Uninit_move@PEAVProcess@@PEAV1@V?$allocator@VProcess@@@std@@V1@@std@@YAPEAVProcess@@PEAV1@00AEAV?$allocator@VProcess@@@0@0U_Nonscalar_ptr_iterator_tag@0@@Z@4HA 000000014004c410 f    CIL library: CIL module
 0001:0004b41d       __catch$??$_Uninit_move@PEAVProcess@@PEAV1@V?$allocator@VProcess@@@std@@V1@@std@@YAPEAVProcess@@PEAV1@00AEAV?$allocator@VProcess@@@0@0U_Nonscalar_ptr_iterator_tag@0@@Z$0 000000014004c41d f    CIL library: CIL module
 0001:0004b430       ?catch$0@?0??reserve@?$vector@VProcess@@V?$allocator@VProcess@@@std@@@std@@QEAAX_K@Z@4HA 000000014004c430 f    CIL library: CIL module
 0001:0004b43d       __catch$?reserve@?$vector@VProcess@@V?$allocator@VProcess@@@std@@@std@@QEAAX_K@Z$0 000000014004c43d f    CIL library: CIL module
 0001:0004b450       ?catch$0@?0???$_Uninit_move@PEAVPlugin@@PEAV1@V?$allocator@VPlugin@@@std@@V1@@std@@YAPEAVPlugin@@PEAV1@00AEAV?$allocator@VPlugin@@@0@0U_Nonscalar_ptr_iterator_tag@0@@Z@4HA 000000014004c450 f    CIL library: CIL module
 0001:0004b45d       __catch$??$_Uninit_move@PEAVPlugin@@PEAV1@V?$allocator@VPlugin@@@std@@V1@@std@@YAPEAVPlugin@@PEAV1@00AEAV?$allocator@VPlugin@@@0@0U_Nonscalar_ptr_iterator_tag@0@@Z$0 000000014004c45d f    CIL library: CIL module
 0001:0004b470       ?catch$0@?0??reserve@?$vector@VPlugin@@V?$allocator@VPlugin@@@std@@@std@@QEAAX_K@Z@4HA 000000014004c470 f    CIL library: CIL module
 0001:0004b47d       __catch$?reserve@?$vector@VPlugin@@V?$allocator@VPlugin@@@std@@@std@@QEAAX_K@Z$0 000000014004c47d f    CIL library: CIL module
 0001:0004b490       ?dtor$0@?0??DisplayContextMenuLog@MainGui@@IEAAXVCWindow@ATL@@VCPoint@WTL@@@Z@4HA 000000014004c490 f    CIL library: CIL module
 0001:0004b4a0       ?catch$0@?0??Init@CAppModule@WTL@@QEAAJPEAU_ATL_OBJMAP_ENTRY30@ATL@@PEAUHINSTANCE__@@PEBU_GUID@@@Z@4HA 000000014004c4a0 f    CIL library: CIL module
 0001:0004b4ad       __catch$?Init@CAppModule@WTL@@QEAAJPEAU_ATL_OBJMAP_ENTRY30@ATL@@PEAUHINSTANCE__@@PEBU_GUID@@@Z$0 000000014004c4ad f    CIL library: CIL module
 0001:0004b4c0       ?catch$0@?0???$_Uninit_fill_n@PEAV?$_List_iterator@V?$_List_val@U?$pair@QEAU_TREEITEM@@UTreeItemData@ImportsHandling@@@std@@V?$allocator@U?$pair@QEAU_TREEITEM@@UTreeItemData@ImportsHandling@@@std@@@2@@std@@@std@@_KV12@V?$allocator@V?$_List_iterator@V?$_List_val@U?$pair@QEAU_TREEITEM@@UTreeItemData@ImportsHandling@@@std@@V?$allocator@U?$pair@QEAU_TREEITEM@@UTreeItemData@ImportsHandling@@@std@@@2@@std@@@std@@@2@V12@@std@@YAXPEAV?$_List_iterator@V?$_List_val@U?$pair@QEAU_TREEITEM@@UTreeItemData@ImportsHandling@@@std@@V?$allocator@U?$pair@QEAU_TREEITEM@@UTreeItemData@ImportsHandling@@@std@@@2@@std@@@0@_KPEBV10@AEAV?$allocator@V?$_List_iterator@V?$_List_val@U?$pair@QEAU_TREEITEM@@UTreeItemData@ImportsHandling@@@std@@V?$allocator@U?$pair@QEAU_TREEITEM@@UTreeItemData@ImportsHandling@@@std@@@2@@std@@@std@@@0@0U_Nonscalar_ptr_iterator_tag@0@@Z@4HA 000000014004c4c0 f    CIL library: CIL module
 0001:0004b4c0       ?catch$0@?0???$_Uninit_fill_n@PEAV?$_List_iterator@V?$_List_val@U?$pair@$$CB_KPEAVApiInfo@@@std@@V?$allocator@U?$pair@$$CB_KPEAVApiInfo@@@std@@@2@@std@@@std@@_KV12@V?$allocator@V?$_List_iterator@V?$_List_val@U?$pair@$$CB_KPEAVApiInfo@@@std@@V?$allocator@U?$pair@$$CB_KPEAVApiInfo@@@std@@@2@@std@@@std@@@2@V12@@std@@YAXPEAV?$_List_iterator@V?$_List_val@U?$pair@$$CB_KPEAVApiInfo@@@std@@V?$allocator@U?$pair@$$CB_KPEAVApiInfo@@@std@@@2@@std@@@0@_KPEBV10@AEAV?$allocator@V?$_List_iterator@V?$_List_val@U?$pair@$$CB_KPEAVApiInfo@@@std@@V?$allocator@U?$pair@$$CB_KPEAVApiInfo@@@std@@@2@@std@@@std@@@0@0U_Nonscalar_ptr_iterator_tag@0@@Z@4HA 000000014004c4c0 f    CIL library: CIL module
 0001:0004b4cd       __catch$??$_Uninit_fill_n@PEAV?$_List_iterator@V?$_List_val@U?$pair@$$CB_KPEAVApiInfo@@@std@@V?$allocator@U?$pair@$$CB_KPEAVApiInfo@@@std@@@2@@std@@@std@@_KV12@V?$allocator@V?$_List_iterator@V?$_List_val@U?$pair@$$CB_KPEAVApiInfo@@@std@@V?$allocator@U?$pair@$$CB_KPEAVApiInfo@@@std@@@2@@std@@@std@@@2@V12@@std@@YAXPEAV?$_List_iterator@V?$_List_val@U?$pair@$$CB_KPEAVApiInfo@@@std@@V?$allocator@U?$pair@$$CB_KPEAVApiInfo@@@std@@@2@@std@@@0@_KPEBV10@AEAV?$allocator@V?$_List_iterator@V?$_List_val@U?$pair@$$CB_KPEAVApiInfo@@@std@@V?$allocator@U?$pair@$$CB_KPEAVApiInfo@@@std@@@2@@std@@@std@@@0@0U_Nonscalar_ptr_iterator_tag@0@@Z$0 000000014004c4cd f    CIL library: CIL module
 0001:0004b4cd       __catch$??$_Uninit_fill_n@PEAV?$_List_iterator@V?$_List_val@U?$pair@QEAU_TREEITEM@@UTreeItemData@ImportsHandling@@@std@@V?$allocator@U?$pair@QEAU_TREEITEM@@UTreeItemData@ImportsHandling@@@std@@@2@@std@@@std@@_KV12@V?$allocator@V?$_List_iterator@V?$_List_val@U?$pair@QEAU_TREEITEM@@UTreeItemData@ImportsHandling@@@std@@V?$allocator@U?$pair@QEAU_TREEITEM@@UTreeItemData@ImportsHandling@@@std@@@2@@std@@@std@@@2@V12@@std@@YAXPEAV?$_List_iterator@V?$_List_val@U?$pair@QEAU_TREEITEM@@UTreeItemData@ImportsHandling@@@std@@V?$allocator@U?$pair@QEAU_TREEITEM@@UTreeItemData@ImportsHandling@@@std@@@2@@std@@@0@_KPEBV10@AEAV?$allocator@V?$_List_iterator@V?$_List_val@U?$pair@QEAU_TREEITEM@@UTreeItemData@ImportsHandling@@@std@@V?$allocator@U?$pair@QEAU_TREEITEM@@UTreeItemData@ImportsHandling@@@std@@@2@@std@@@std@@@0@0U_Nonscalar_ptr_iterator_tag@0@@Z$0 000000014004c4cd f    CIL library: CIL module
 0001:0004b4e0       ?catch$0@?0???$_Uninit_move@PEAVIATReference@@PEAV1@V?$allocator@VIATReference@@@std@@V1@@std@@YAPEAVIATReference@@PEAV1@00AEAV?$allocator@VIATReference@@@0@0U_Nonscalar_ptr_iterator_tag@0@@Z@4HA 000000014004c4e0 f    CIL library: CIL module
 0001:0004b4ed       __catch$??$_Uninit_move@PEAVIATReference@@PEAV1@V?$allocator@VIATReference@@@std@@V1@@std@@YAPEAVIATReference@@PEAV1@00AEAV?$allocator@VIATReference@@@0@0U_Nonscalar_ptr_iterator_tag@0@@Z$0 000000014004c4ed f    CIL library: CIL module
 0001:0004b500       ?catch$0@?0??reserve@?$vector@VIATReference@@V?$allocator@VIATReference@@@std@@@std@@QEAAX_K@Z@4HA 000000014004c500 f    CIL library: CIL module
 0001:0004b50d       __catch$?reserve@?$vector@VIATReference@@V?$allocator@VIATReference@@@std@@@std@@QEAAX_K@Z$0 000000014004c50d f    CIL library: CIL module
 0001:0004b520       ?catch$0@?0???$_Uninit_move@PEAVPeFileSection@@PEAV1@V?$allocator@VPeFileSection@@@std@@V1@@std@@YAPEAVPeFileSection@@PEAV1@00AEAV?$allocator@VPeFileSection@@@0@0U_Nonscalar_ptr_iterator_tag@0@@Z@4HA 000000014004c520 f    CIL library: CIL module
 0001:0004b520       ?catch$0@?0???$_Uninit_move@PEAVPeSection@@PEAV1@V?$allocator@VPeSection@@@std@@V1@@std@@YAPEAVPeSection@@PEAV1@00AEAV?$allocator@VPeSection@@@0@0U_Nonscalar_ptr_iterator_tag@0@@Z@4HA 000000014004c520 f    CIL library: CIL module
 0001:0004b52d       __catch$??$_Uninit_move@PEAVPeSection@@PEAV1@V?$allocator@VPeSection@@@std@@V1@@std@@YAPEAVPeSection@@PEAV1@00AEAV?$allocator@VPeSection@@@0@0U_Nonscalar_ptr_iterator_tag@0@@Z$0 000000014004c52d f    CIL library: CIL module
 0001:0004b52d       __catch$??$_Uninit_move@PEAVPeFileSection@@PEAV1@V?$allocator@VPeFileSection@@@std@@V1@@std@@YAPEAVPeFileSection@@PEAV1@00AEAV?$allocator@VPeFileSection@@@0@0U_Nonscalar_ptr_iterator_tag@0@@Z$0 000000014004c52d f    CIL library: CIL module
 0001:0004b540       ?catch$0@?0??reserve@?$vector@VPeFileSection@@V?$allocator@VPeFileSection@@@std@@@std@@QEAAX_K@Z@4HA 000000014004c540 f    CIL library: CIL module
 0001:0004b540       ?catch$0@?0??reserve@?$vector@VPeSection@@V?$allocator@VPeSection@@@std@@@std@@QEAAX_K@Z@4HA 000000014004c540 f    CIL library: CIL module
 0001:0004b54d       __catch$?reserve@?$vector@VPeFileSection@@V?$allocator@VPeFileSection@@@std@@@std@@QEAAX_K@Z$0 000000014004c54d f    CIL library: CIL module
 0001:0004b54d       __catch$?reserve@?$vector@VPeSection@@V?$allocator@VPeSection@@@std@@@std@@QEAAX_K@Z$0 000000014004c54d f    CIL library: CIL module
 0001:0004b560       ?catch$0@?0???$_Uninit_move@PEAVMemory@@PEAV1@V?$allocator@VMemory@@@std@@V1@@std@@YAPEAVMemory@@PEAV1@00AEAV?$allocator@VMemory@@@0@0U_Nonscalar_ptr_iterator_tag@0@@Z@4HA 000000014004c560 f    CIL library: CIL module
 0001:0004b56d       __catch$??$_Uninit_move@PEAVMemory@@PEAV1@V?$allocator@VMemory@@@std@@V1@@std@@YAPEAVMemory@@PEAV1@00AEAV?$allocator@VMemory@@@0@0U_Nonscalar_ptr_iterator_tag@0@@Z$0 000000014004c56d f    CIL library: CIL module
 0001:0004b580       ?catch$0@?0??reserve@?$vector@VMemory@@V?$allocator@VMemory@@@std@@@std@@QEAAX_K@Z@4HA 000000014004c580 f    CIL library: CIL module
 0001:0004b58d       __catch$?reserve@?$vector@VMemory@@V?$allocator@VMemory@@@std@@@std@@QEAAX_K@Z$0 000000014004c58d f    CIL library: CIL module
 0001:0004b5a0       ?catch$0@?0???$_Uninit_move@PEAVDisassemblerAddressComment@@PEAV1@V?$allocator@VDisassemblerAddressComment@@@std@@V1@@std@@YAPEAVDisassemblerAddressComment@@PEAV1@00AEAV?$allocator@VDisassemblerAddressComment@@@0@0U_Nonscalar_ptr_iterator_tag@0@@Z@4HA 000000014004c5a0 f    CIL library: CIL module
 0001:0004b5a0       ?catch$0@?0???$_Uninit_move@PEAVHardDisk@@PEAV1@V?$allocator@VHardDisk@@@std@@V1@@std@@YAPEAVHardDisk@@PEAV1@00AEAV?$allocator@VHardDisk@@@0@0U_Nonscalar_ptr_iterator_tag@0@@Z@4HA 000000014004c5a0 f    CIL library: CIL module
 0001:0004b5ad       __catch$??$_Uninit_move@PEAVHardDisk@@PEAV1@V?$allocator@VHardDisk@@@std@@V1@@std@@YAPEAVHardDisk@@PEAV1@00AEAV?$allocator@VHardDisk@@@0@0U_Nonscalar_ptr_iterator_tag@0@@Z$0 000000014004c5ad f    CIL library: CIL module
 0001:0004b5ad       __catch$??$_Uninit_move@PEAVDisassemblerAddressComment@@PEAV1@V?$allocator@VDisassemblerAddressComment@@@std@@V1@@std@@YAPEAVDisassemblerAddressComment@@PEAV1@00AEAV?$allocator@VDisassemblerAddressComment@@@0@0U_Nonscalar_ptr_iterator_tag@0@@Z$0 000000014004c5ad f    CIL library: CIL module
 0001:0004b5c0       ?catch$0@?0??reserve@?$vector@VHardDisk@@V?$allocator@VHardDisk@@@std@@@std@@QEAAX_K@Z@4HA 000000014004c5c0 f    CIL library: CIL module
 0001:0004b5c0       ?catch$0@?0??reserve@?$vector@VDisassemblerAddressComment@@V?$allocator@VDisassemblerAddressComment@@@std@@@std@@QEAAX_K@Z@4HA 000000014004c5c0 f    CIL library: CIL module
 0001:0004b5cd       __catch$?reserve@?$vector@VDisassemblerAddressComment@@V?$allocator@VDisassemblerAddressComment@@@std@@@std@@QEAAX_K@Z$0 000000014004c5cd f    CIL library: CIL module
 0001:0004b5cd       __catch$?reserve@?$vector@VHardDisk@@V?$allocator@VHardDisk@@@std@@@std@@QEAAX_K@Z$0 000000014004c5cd f    CIL library: CIL module
 0001:0004b5e0       ?catch$0@?0??reserve@?$vector@_KV?$allocator@_K@std@@@std@@QEAAX_K@Z@4HA 000000014004c5e0 f    CIL library: CIL module
 0001:0004b5ed       __catch$?reserve@?$vector@_KV?$allocator@_K@std@@@std@@QEAAX_K@Z$0 000000014004c5ed f    CIL library: CIL module
 0001:0004b600       ?catch$0@?0???$_Uninit_move@PEAV?$_List_iterator@V?$_List_val@U?$pair@QEAU_TREEITEM@@UTreeItemData@ImportsHandling@@@std@@V?$allocator@U?$pair@QEAU_TREEITEM@@UTreeItemData@ImportsHandling@@@std@@@2@@std@@@std@@PEAV12@V?$allocator@V?$_List_iterator@V?$_List_val@U?$pair@QEAU_TREEITEM@@UTreeItemData@ImportsHandling@@@std@@V?$allocator@U?$pair@QEAU_TREEITEM@@UTreeItemData@ImportsHandling@@@std@@@2@@std@@@std@@@2@V12@@std@@YAPEAV?$_List_iterator@V?$_List_val@U?$pair@QEAU_TREEITEM@@UTreeItemData@ImportsHandling@@@std@@V?$allocator@U?$pair@QEAU_TREEITEM@@UTreeItemData@ImportsHandling@@@std@@@2@@std@@@0@PEAV10@00AEAV?$allocator@V?$_List_iterator@V?$_List_val@U?$pair@QEAU_TREEITEM@@UTreeItemData@ImportsHandling@@@std@@V?$allocator@U?$pair@QEAU_TREEITEM@@UTreeItemData@ImportsHandling@@@std@@@2@@std@@@std@@@0@0U_Nonscalar_ptr_iterator_tag@0@@Z@4HA 000000014004c600 f    CIL library: CIL module
 0001:0004b600       ?catch$0@?0???$_Uninit_move@PEAV?$_List_iterator@V?$_List_val@U?$pair@$$CB_KPEAVApiInfo@@@std@@V?$allocator@U?$pair@$$CB_KPEAVApiInfo@@@std@@@2@@std@@@std@@PEAV12@V?$allocator@V?$_List_iterator@V?$_List_val@U?$pair@$$CB_KPEAVApiInfo@@@std@@V?$allocator@U?$pair@$$CB_KPEAVApiInfo@@@std@@@2@@std@@@std@@@2@V12@@std@@YAPEAV?$_List_iterator@V?$_List_val@U?$pair@$$CB_KPEAVApiInfo@@@std@@V?$allocator@U?$pair@$$CB_KPEAVApiInfo@@@std@@@2@@std@@@0@PEAV10@00AEAV?$allocator@V?$_List_iterator@V?$_List_val@U?$pair@$$CB_KPEAVApiInfo@@@std@@V?$allocator@U?$pair@$$CB_KPEAVApiInfo@@@std@@@2@@std@@@std@@@0@0U_Nonscalar_ptr_iterator_tag@0@@Z@4HA 000000014004c600 f    CIL library: CIL module
 0001:0004b60d       __catch$??$_Uninit_move@PEAV?$_List_iterator@V?$_List_val@U?$pair@$$CB_KPEAVApiInfo@@@std@@V?$allocator@U?$pair@$$CB_KPEAVApiInfo@@@std@@@2@@std@@@std@@PEAV12@V?$allocator@V?$_List_iterator@V?$_List_val@U?$pair@$$CB_KPEAVApiInfo@@@std@@V?$allocator@U?$pair@$$CB_KPEAVApiInfo@@@std@@@2@@std@@@std@@@2@V12@@std@@YAPEAV?$_List_iterator@V?$_List_val@U?$pair@$$CB_KPEAVApiInfo@@@std@@V?$allocator@U?$pair@$$CB_KPEAVApiInfo@@@std@@@2@@std@@@0@PEAV10@00AEAV?$allocator@V?$_List_iterator@V?$_List_val@U?$pair@$$CB_KPEAVApiInfo@@@std@@V?$allocator@U?$pair@$$CB_KPEAVApiInfo@@@std@@@2@@std@@@std@@@0@0U_Nonscalar_ptr_iterator_tag@0@@Z$0 000000014004c60d f    CIL library: CIL module
 0001:0004b60d       __catch$??$_Uninit_move@PEAV?$_List_iterator@V?$_List_val@U?$pair@QEAU_TREEITEM@@UTreeItemData@ImportsHandling@@@std@@V?$allocator@U?$pair@QEAU_TREEITEM@@UTreeItemData@ImportsHandling@@@std@@@2@@std@@@std@@PEAV12@V?$allocator@V?$_List_iterator@V?$_List_val@U?$pair@QEAU_TREEITEM@@UTreeItemData@ImportsHandling@@@std@@V?$allocator@U?$pair@QEAU_TREEITEM@@UTreeItemData@ImportsHandling@@@std@@@2@@std@@@std@@@2@V12@@std@@YAPEAV?$_List_iterator@V?$_List_val@U?$pair@QEAU_TREEITEM@@UTreeItemData@ImportsHandling@@@std@@V?$allocator@U?$pair@QEAU_TREEITEM@@UTreeItemData@ImportsHandling@@@std@@@2@@std@@@0@PEAV10@00AEAV?$allocator@V?$_List_iterator@V?$_List_val@U?$pair@QEAU_TREEITEM@@UTreeItemData@ImportsHandling@@@std@@V?$allocator@U?$pair@QEAU_TREEITEM@@UTreeItemData@ImportsHandling@@@std@@@2@@std@@@std@@@0@0U_Nonscalar_ptr_iterator_tag@0@@Z$0 000000014004c60d f    CIL library: CIL module
 0001:0004b620       ?catch$0@?0??_Insert_n@?$vector@V?$_List_iterator@V?$_List_val@U?$pair@$$CB_KPEAVApiInfo@@@std@@V?$allocator@U?$pair@$$CB_KPEAVApiInfo@@@std@@@2@@std@@@std@@V?$allocator@V?$_List_iterator@V?$_List_val@U?$pair@$$CB_KPEAVApiInfo@@@std@@V?$allocator@U?$pair@$$CB_KPEAVApiInfo@@@std@@@2@@std@@@std@@@2@@std@@IEAAXV?$_Vector_const_iterator@V?$_Vector_val@V?$_List_iterator@V?$_List_val@U?$pair@$$CB_KPEAVApiInfo@@@std@@V?$allocator@U?$pair@$$CB_KPEAVApiInfo@@@std@@@2@@std@@@std@@V?$allocator@V?$_List_iterator@V?$_List_val@U?$pair@$$CB_KPEAVApiInfo@@@std@@V?$allocator@U?$pair@$$CB_KPEAVApiInfo@@@std@@@2@@std@@@std@@@2@@std@@@2@_KAEBV?$_List_iterator@V?$_List_val@U?$pair@$$CB_KPEAVApiInfo@@@std@@V?$allocator@U?$pair@$$CB_KPEAVApiInfo@@@std@@@2@@std@@@2@@Z@4HA 000000014004c620 f    CIL library: CIL module
 0001:0004b620       ?catch$0@?0??_Insert_n@?$vector@V?$_List_iterator@V?$_List_val@U?$pair@QEAU_TREEITEM@@UTreeItemData@ImportsHandling@@@std@@V?$allocator@U?$pair@QEAU_TREEITEM@@UTreeItemData@ImportsHandling@@@std@@@2@@std@@@std@@V?$allocator@V?$_List_iterator@V?$_List_val@U?$pair@QEAU_TREEITEM@@UTreeItemData@ImportsHandling@@@std@@V?$allocator@U?$pair@QEAU_TREEITEM@@UTreeItemData@ImportsHandling@@@std@@@2@@std@@@std@@@2@@std@@IEAAXV?$_Vector_const_iterator@V?$_Vector_val@V?$_List_iterator@V?$_List_val@U?$pair@QEAU_TREEITEM@@UTreeItemData@ImportsHandling@@@std@@V?$allocator@U?$pair@QEAU_TREEITEM@@UTreeItemData@ImportsHandling@@@std@@@2@@std@@@std@@V?$allocator@V?$_List_iterator@V?$_List_val@U?$pair@QEAU_TREEITEM@@UTreeItemData@ImportsHandling@@@std@@V?$allocator@U?$pair@QEAU_TREEITEM@@UTreeItemData@ImportsHandling@@@std@@@2@@std@@@std@@@2@@std@@@2@_KAEBV?$_List_iterator@V?$_List_val@U?$pair@QEAU_TREEITEM@@UTreeItemData@ImportsHandling@@@std@@V?$allocator@U?$pair@QEAU_TREEITEM@@UTreeItemData@ImportsHandling@@@std@@@2@@std@@@2@@Z@4HA 000000014004c620 f    CIL library: CIL module
 0001:0004b62d       __catch$?_Insert_n@?$vector@V?$_List_iterator@V?$_List_val@U?$pair@$$CB_KPEAVApiInfo@@@std@@V?$allocator@U?$pair@$$CB_KPEAVApiInfo@@@std@@@2@@std@@@std@@V?$allocator@V?$_List_iterator@V?$_List_val@U?$pair@$$CB_KPEAVApiInfo@@@std@@V?$allocator@U?$pair@$$CB_KPEAVApiInfo@@@std@@@2@@std@@@std@@@2@@std@@IEAAXV?$_Vector_const_iterator@V?$_Vector_val@V?$_List_iterator@V?$_List_val@U?$pair@$$CB_KPEAVApiInfo@@@std@@V?$allocator@U?$pair@$$CB_KPEAVApiInfo@@@std@@@2@@std@@@std@@V?$allocator@V?$_List_iterator@V?$_List_val@U?$pair@$$CB_KPEAVApiInfo@@@std@@V?$allocator@U?$pair@$$CB_KPEAVApiInfo@@@std@@@2@@std@@@std@@@2@@std@@@2@_KAEBV?$_List_iterator@V?$_List_val@U?$pair@$$CB_KPEAVApiInfo@@@std@@V?$allocator@U?$pair@$$CB_KPEAVApiInfo@@@std@@@2@@std@@@2@@Z$0 000000014004c62d f    CIL library: CIL module
 0001:0004b62d       __catch$?_Insert_n@?$vector@V?$_List_iterator@V?$_List_val@U?$pair@QEAU_TREEITEM@@UTreeItemData@ImportsHandling@@@std@@V?$allocator@U?$pair@QEAU_TREEITEM@@UTreeItemData@ImportsHandling@@@std@@@2@@std@@@std@@V?$allocator@V?$_List_iterator@V?$_List_val@U?$pair@QEAU_TREEITEM@@UTreeItemData@ImportsHandling@@@std@@V?$allocator@U?$pair@QEAU_TREEITEM@@UTreeItemData@ImportsHandling@@@std@@@2@@std@@@std@@@2@@std@@IEAAXV?$_Vector_const_iterator@V?$_Vector_val@V?$_List_iterator@V?$_List_val@U?$pair@QEAU_TREEITEM@@UTreeItemData@ImportsHandling@@@std@@V?$allocator@U?$pair@QEAU_TREEITEM@@UTreeItemData@ImportsHandling@@@std@@@2@@std@@@std@@V?$allocator@V?$_List_iterator@V?$_List_val@U?$pair@QEAU_TREEITEM@@UTreeItemData@ImportsHandling@@@std@@V?$allocator@U?$pair@QEAU_TREEITEM@@UTreeItemData@ImportsHandling@@@std@@@2@@std@@@std@@@2@@std@@@2@_KAEBV?$_List_iterator@V?$_List_val@U?$pair@QEAU_TREEITEM@@UTreeItemData@ImportsHandling@@@std@@V?$allocator@U?$pair@QEAU_TREEITEM@@UTreeItemData@ImportsHandling@@@std@@@2@@std@@@2@@Z$0 000000014004c62d f    CIL library: CIL module
 0001:0004b650       ?catch$1@?0??_Insert_n@?$vector@V?$_List_iterator@V?$_List_val@U?$pair@$$CB_KPEAVApiInfo@@@std@@V?$allocator@U?$pair@$$CB_KPEAVApiInfo@@@std@@@2@@std@@@std@@V?$allocator@V?$_List_iterator@V?$_List_val@U?$pair@$$CB_KPEAVApiInfo@@@std@@V?$allocator@U?$pair@$$CB_KPEAVApiInfo@@@std@@@2@@std@@@std@@@2@@std@@IEAAXV?$_Vector_const_iterator@V?$_Vector_val@V?$_List_iterator@V?$_List_val@U?$pair@$$CB_KPEAVApiInfo@@@std@@V?$allocator@U?$pair@$$CB_KPEAVApiInfo@@@std@@@2@@std@@@std@@V?$allocator@V?$_List_iterator@V?$_List_val@U?$pair@$$CB_KPEAVApiInfo@@@std@@V?$allocator@U?$pair@$$CB_KPEAVApiInfo@@@std@@@2@@std@@@std@@@2@@std@@@2@_KAEBV?$_List_iterator@V?$_List_val@U?$pair@$$CB_KPEAVApiInfo@@@std@@V?$allocator@U?$pair@$$CB_KPEAVApiInfo@@@std@@@2@@std@@@2@@Z@4HA 000000014004c650 f    CIL library: CIL module
 0001:0004b650       ?catch$1@?0??_Insert_n@?$vector@V?$_List_iterator@V?$_List_val@U?$pair@QEAU_TREEITEM@@UTreeItemData@ImportsHandling@@@std@@V?$allocator@U?$pair@QEAU_TREEITEM@@UTreeItemData@ImportsHandling@@@std@@@2@@std@@@std@@V?$allocator@V?$_List_iterator@V?$_List_val@U?$pair@QEAU_TREEITEM@@UTreeItemData@ImportsHandling@@@std@@V?$allocator@U?$pair@QEAU_TREEITEM@@UTreeItemData@ImportsHandling@@@std@@@2@@std@@@std@@@2@@std@@IEAAXV?$_Vector_const_iterator@V?$_Vector_val@V?$_List_iterator@V?$_List_val@U?$pair@QEAU_TREEITEM@@UTreeItemData@ImportsHandling@@@std@@V?$allocator@U?$pair@QEAU_TREEITEM@@UTreeItemData@ImportsHandling@@@std@@@2@@std@@@std@@V?$allocator@V?$_List_iterator@V?$_List_val@U?$pair@QEAU_TREEITEM@@UTreeItemData@ImportsHandling@@@std@@V?$allocator@U?$pair@QEAU_TREEITEM@@UTreeItemData@ImportsHandling@@@std@@@2@@std@@@std@@@2@@std@@@2@_KAEBV?$_List_iterator@V?$_List_val@U?$pair@QEAU_TREEITEM@@UTreeItemData@ImportsHandling@@@std@@V?$allocator@U?$pair@QEAU_TREEITEM@@UTreeItemData@ImportsHandling@@@std@@@2@@std@@@2@@Z@4HA 000000014004c650 f    CIL library: CIL module
 0001:0004b65d       __catch$?_Insert_n@?$vector@V?$_List_iterator@V?$_List_val@U?$pair@QEAU_TREEITEM@@UTreeItemData@ImportsHandling@@@std@@V?$allocator@U?$pair@QEAU_TREEITEM@@UTreeItemData@ImportsHandling@@@std@@@2@@std@@@std@@V?$allocator@V?$_List_iterator@V?$_List_val@U?$pair@QEAU_TREEITEM@@UTreeItemData@ImportsHandling@@@std@@V?$allocator@U?$pair@QEAU_TREEITEM@@UTreeItemData@ImportsHandling@@@std@@@2@@std@@@std@@@2@@std@@IEAAXV?$_Vector_const_iterator@V?$_Vector_val@V?$_List_iterator@V?$_List_val@U?$pair@QEAU_TREEITEM@@UTreeItemData@ImportsHandling@@@std@@V?$allocator@U?$pair@QEAU_TREEITEM@@UTreeItemData@ImportsHandling@@@std@@@2@@std@@@std@@V?$allocator@V?$_List_iterator@V?$_List_val@U?$pair@QEAU_TREEITEM@@UTreeItemData@ImportsHandling@@@std@@V?$allocator@U?$pair@QEAU_TREEITEM@@UTreeItemData@ImportsHandling@@@std@@@2@@std@@@std@@@2@@std@@@2@_KAEBV?$_List_iterator@V?$_List_val@U?$pair@QEAU_TREEITEM@@UTreeItemData@ImportsHandling@@@std@@V?$allocator@U?$pair@QEAU_TREEITEM@@UTreeItemData@ImportsHandling@@@std@@@2@@std@@@2@@Z$2 000000014004c65d f    CIL library: CIL module
 0001:0004b65d       __catch$?_Insert_n@?$vector@V?$_List_iterator@V?$_List_val@U?$pair@$$CB_KPEAVApiInfo@@@std@@V?$allocator@U?$pair@$$CB_KPEAVApiInfo@@@std@@@2@@std@@@std@@V?$allocator@V?$_List_iterator@V?$_List_val@U?$pair@$$CB_KPEAVApiInfo@@@std@@V?$allocator@U?$pair@$$CB_KPEAVApiInfo@@@std@@@2@@std@@@std@@@2@@std@@IEAAXV?$_Vector_const_iterator@V?$_Vector_val@V?$_List_iterator@V?$_List_val@U?$pair@$$CB_KPEAVApiInfo@@@std@@V?$allocator@U?$pair@$$CB_KPEAVApiInfo@@@std@@@2@@std@@@std@@V?$allocator@V?$_List_iterator@V?$_List_val@U?$pair@$$CB_KPEAVApiInfo@@@std@@V?$allocator@U?$pair@$$CB_KPEAVApiInfo@@@std@@@2@@std@@@std@@@2@@std@@@2@_KAEBV?$_List_iterator@V?$_List_val@U?$pair@$$CB_KPEAVApiInfo@@@std@@V?$allocator@U?$pair@$$CB_KPEAVApiInfo@@@std@@@2@@std@@@2@@Z$2 000000014004c65d f    CIL library: CIL module
 0001:0004b670       ?catch$0@?0??reserve@?$vector@PEAVApiInfo@@V?$allocator@PEAVApiInfo@@@std@@@std@@QEAAX_K@Z@4HA 000000014004c670 f    CIL library: CIL module
 0001:0004b67d       __catch$?reserve@?$vector@PEAVApiInfo@@V?$allocator@PEAVApiInfo@@@std@@@std@@QEAAX_K@Z$0 000000014004c67d f    CIL library: CIL module
 0001:0004b690       ?catch$0@?0???$_Uninit_copy@V?$_Vector_const_iterator@V?$_Vector_val@PEAVApiInfo@@V?$allocator@PEAVApiInfo@@@std@@@std@@@std@@PEAPEAVApiInfo@@V?$allocator@PEAVApiInfo@@@2@@std@@YAPEAPEAVApiInfo@@V?$_Vector_const_iterator@V?$_Vector_val@PEAVApiInfo@@V?$allocator@PEAVApiInfo@@@std@@@std@@@0@0PEAPEAV1@AEAV?$allocator@PEAVApiInfo@@@0@U_Nonscalar_ptr_iterator_tag@0@@Z@4HA 000000014004c690 f    CIL library: CIL module
 0001:0004b69d       __catch$??$_Uninit_copy@V?$_Vector_const_iterator@V?$_Vector_val@PEAVApiInfo@@V?$allocator@PEAVApiInfo@@@std@@@std@@@std@@PEAPEAVApiInfo@@V?$allocator@PEAVApiInfo@@@2@@std@@YAPEAPEAVApiInfo@@V?$_Vector_const_iterator@V?$_Vector_val@PEAVApiInfo@@V?$allocator@PEAVApiInfo@@@std@@@std@@@0@0PEAPEAV1@AEAV?$allocator@PEAVApiInfo@@@0@U_Nonscalar_ptr_iterator_tag@0@@Z$0 000000014004c69d f    CIL library: CIL module
 0001:0004b6b0       ?dtor$0@?0???0PeParser@@QEAA@_K_N@Z@4HA 000000014004c6b0 f    CIL library: CIL module
 0001:0004b6b0       ?dtor$0@?0???0PeParser@@QEAA@PEB_W_N@Z@4HA 000000014004c6b0 f    CIL library: CIL module
 0001:0004b6c0       ?catch$0@?0???$_Buynode@U?$pair@QEAU_TREEITEM@@UTreeItemData@ImportsHandling@@@std@@@?$_List_val@U?$pair@QEAU_TREEITEM@@UTreeItemData@ImportsHandling@@@std@@V?$allocator@U?$pair@QEAU_TREEITEM@@UTreeItemData@ImportsHandling@@@std@@@2@@std@@QEAAPEAU_Node@?$_List_nod@U?$pair@QEAU_TREEITEM@@UTreeItemData@ImportsHandling@@@std@@V?$allocator@U?$pair@QEAU_TREEITEM@@UTreeItemData@ImportsHandling@@@std@@@2@@1@PEAU231@0$$QEAU?$pair@QEAU_TREEITEM@@UTreeItemData@ImportsHandling@@@1@@Z@4HA 000000014004c6c0 f    CIL library: CIL module
 0001:0004b6cd       __catch$??$_Buynode@U?$pair@QEAU_TREEITEM@@UTreeItemData@ImportsHandling@@@std@@@?$_List_val@U?$pair@QEAU_TREEITEM@@UTreeItemData@ImportsHandling@@@std@@V?$allocator@U?$pair@QEAU_TREEITEM@@UTreeItemData@ImportsHandling@@@std@@@2@@std@@QEAAPEAU_Node@?$_List_nod@U?$pair@QEAU_TREEITEM@@UTreeItemData@ImportsHandling@@@std@@V?$allocator@U?$pair@QEAU_TREEITEM@@UTreeItemData@ImportsHandling@@@std@@@2@@1@PEAU231@0$$QEAU?$pair@QEAU_TREEITEM@@UTreeItemData@ImportsHandling@@@1@@Z$0 000000014004c6cd f    CIL library: CIL module
 0001:0004b6e0       ?dtor$1@?0???0?$hash_map@PEAU_TREEITEM@@UTreeItemData@ImportsHandling@@V?$hash_compare@PEAU_TREEITEM@@U?$less@PEAU_TREEITEM@@@std@@@stdext@@V?$allocator@U?$pair@QEAU_TREEITEM@@UTreeItemData@ImportsHandling@@@std@@@std@@@stdext@@QEAA@XZ@4HA 000000014004c6e0 f    CIL library: CIL module
 0001:0004b6f0       ?dtor$2@?0???0?$hash_map@PEAU_TREEITEM@@UTreeItemData@ImportsHandling@@V?$hash_compare@PEAU_TREEITEM@@U?$less@PEAU_TREEITEM@@@std@@@stdext@@V?$allocator@U?$pair@QEAU_TREEITEM@@UTreeItemData@ImportsHandling@@@std@@@std@@@stdext@@QEAA@XZ@4HA 000000014004c6f0 f    CIL library: CIL module
 0001:0004b700       ?dtor$2@?0???__F?config@Scylla@@2VConfigurationHolder@@A@@YAXXZ@4HA 000000014004c700 f    CIL library: CIL module
 0001:0004b700       ?dtor$1@?0???1?$map@_KVImportModuleThunk@@U?$less@_K@std@@V?$allocator@U?$pair@$$CB_KVImportModuleThunk@@@std@@@3@@std@@QEAA@XZ@4HA 000000014004c700 f    CIL library: CIL module
 0001:0004b700       ?dtor$4@?0??_Insert@?$_Tree@V?$_Tmap_traits@_KVImportModuleThunk@@U?$less@_K@std@@V?$allocator@U?$pair@$$CB_KVImportModuleThunk@@@std@@@3@$0A@@std@@@std@@IEAA?AV?$_Tree_iterator@V?$_Tree_val@V?$_Tmap_traits@_KVImportModuleThunk@@U?$less@_K@std@@V?$allocator@U?$pair@$$CB_KVImportModuleThunk@@@std@@@3@$0A@@std@@@std@@@2@_NPEAU_Node@?$_Tree_nod@V?$_Tmap_traits@_KVImportModuleThunk@@U?$less@_K@std@@V?$allocator@U?$pair@$$CB_KVImportModuleThunk@@@std@@@3@$0A@@std@@@2@1@Z@4HA 000000014004c700 f    CIL library: CIL module
 0001:0004b700       ?dtor$4@?0???1?$pair@$$CB_KVImportModuleThunk@@@std@@QEAA@XZ@4HA 000000014004c700 f    CIL library: CIL module
 0001:0004b700       ?dtor$2@?0???1ImportModuleThunk@@QEAA@XZ@4HA 000000014004c700 f    CIL library: CIL module
 0001:0004b700       ?dtor$1@?0???1?$set@_KU?$less@_K@std@@V?$allocator@_K@2@@std@@QEAA@XZ@4HA 000000014004c700 f    CIL library: CIL module
 0001:0004b700       ?dtor$1@?0???1?$map@W4ConfigOption@@VConfiguration@@U?$less@W4ConfigOption@@@std@@V?$allocator@U?$pair@$$CBW4ConfigOption@@VConfiguration@@@std@@@4@@std@@QEAA@XZ@4HA 000000014004c700 f    CIL library: CIL module
 0001:0004b700       ?dtor$4@?0???1?$pair@_KVImportModuleThunk@@@std@@QEAA@XZ@4HA 000000014004c700 f    CIL library: CIL module
 0001:0004b710       ?catch$0@?0???$_Buynode@U?$pair@W4ConfigOption@@VConfiguration@@@std@@@?$_Tree_val@V?$_Tmap_traits@W4ConfigOption@@VConfiguration@@U?$less@W4ConfigOption@@@std@@V?$allocator@U?$pair@$$CBW4ConfigOption@@VConfiguration@@@std@@@4@$0A@@std@@@std@@QEAAPEAU_Node@?$_Tree_nod@V?$_Tmap_traits@W4ConfigOption@@VConfiguration@@U?$less@W4ConfigOption@@@std@@V?$allocator@U?$pair@$$CBW4ConfigOption@@VConfiguration@@@std@@@4@$0A@@std@@@1@$$QEAU?$pair@W4ConfigOption@@VConfiguration@@@1@@Z@4HA 000000014004c710 f    CIL library: CIL module
 0001:0004b710       ?catch$0@?0???$_Buynode@U?$pair@$$CBW4ConfigOption@@VConfiguration@@@std@@@?$_Tree_val@V?$_Tmap_traits@W4ConfigOption@@VConfiguration@@U?$less@W4ConfigOption@@@std@@V?$allocator@U?$pair@$$CBW4ConfigOption@@VConfiguration@@@std@@@4@$0A@@std@@@std@@QEAAPEAU_Node@?$_Tree_nod@V?$_Tmap_traits@W4ConfigOption@@VConfiguration@@U?$less@W4ConfigOption@@@std@@V?$allocator@U?$pair@$$CBW4ConfigOption@@VConfiguration@@@std@@@4@$0A@@std@@@1@$$QEAU?$pair@$$CBW4ConfigOption@@VConfiguration@@@1@@Z@4HA 000000014004c710 f    CIL library: CIL module
 0001:0004b71d       __catch$??$_Buynode@U?$pair@$$CBW4ConfigOption@@VConfiguration@@@std@@@?$_Tree_val@V?$_Tmap_traits@W4ConfigOption@@VConfiguration@@U?$less@W4ConfigOption@@@std@@V?$allocator@U?$pair@$$CBW4ConfigOption@@VConfiguration@@@std@@@4@$0A@@std@@@std@@QEAAPEAU_Node@?$_Tree_nod@V?$_Tmap_traits@W4ConfigOption@@VConfiguration@@U?$less@W4ConfigOption@@@std@@V?$allocator@U?$pair@$$CBW4ConfigOption@@VConfiguration@@@std@@@4@$0A@@std@@@1@$$QEAU?$pair@$$CBW4ConfigOption@@VConfiguration@@@1@@Z$0 000000014004c71d f    CIL library: CIL module
 0001:0004b71d       __catch$??$_Buynode@U?$pair@W4ConfigOption@@VConfiguration@@@std@@@?$_Tree_val@V?$_Tmap_traits@W4ConfigOption@@VConfiguration@@U?$less@W4ConfigOption@@@std@@V?$allocator@U?$pair@$$CBW4ConfigOption@@VConfiguration@@@std@@@4@$0A@@std@@@std@@QEAAPEAU_Node@?$_Tree_nod@V?$_Tmap_traits@W4ConfigOption@@VConfiguration@@U?$less@W4ConfigOption@@@std@@V?$allocator@U?$pair@$$CBW4ConfigOption@@VConfiguration@@@std@@@4@$0A@@std@@@1@$$QEAU?$pair@W4ConfigOption@@VConfiguration@@@1@@Z$0 000000014004c71d f    CIL library: CIL module
 0001:0004b730       ?catch$0@?0???$_Buynode@U?$pair@_KPEAVApiInfo@@@std@@@?$_List_val@U?$pair@$$CB_KPEAVApiInfo@@@std@@V?$allocator@U?$pair@$$CB_KPEAVApiInfo@@@std@@@2@@std@@QEAAPEAU_Node@?$_List_nod@U?$pair@$$CB_KPEAVApiInfo@@@std@@V?$allocator@U?$pair@$$CB_KPEAVApiInfo@@@std@@@2@@1@PEAU231@0$$QEAU?$pair@_KPEAVApiInfo@@@1@@Z@4HA 000000014004c730 f    CIL library: CIL module
 0001:0004b73d       __catch$??$_Buynode@U?$pair@_KPEAVApiInfo@@@std@@@?$_List_val@U?$pair@$$CB_KPEAVApiInfo@@@std@@V?$allocator@U?$pair@$$CB_KPEAVApiInfo@@@std@@@2@@std@@QEAAPEAU_Node@?$_List_nod@U?$pair@$$CB_KPEAVApiInfo@@@std@@V?$allocator@U?$pair@$$CB_KPEAVApiInfo@@@std@@@2@@1@PEAU231@0$$QEAU?$pair@_KPEAVApiInfo@@@1@@Z$0 000000014004c73d f    CIL library: CIL module
 0001:0004b750       ?dtor$0@?0???0?$_Hash@V?$_Hmap_traits@_KPEAVApiInfo@@V?$hash_compare@_KU?$less@_K@std@@@stdext@@V?$allocator@U?$pair@$$CB_KPEAVApiInfo@@@std@@@std@@$00@std@@@std@@QEAA@AEBV?$hash_compare@_KU?$less@_K@std@@@stdext@@AEBV?$allocator@U?$pair@$$CB_KPEAVApiInfo@@@std@@@1@@Z@4HA 000000014004c750 f    CIL library: CIL module
 0001:0004b760       ?dtor$1@?0???0?$_Hash@V?$_Hmap_traits@_KPEAVApiInfo@@V?$hash_compare@_KU?$less@_K@std@@@stdext@@V?$allocator@U?$pair@$$CB_KPEAVApiInfo@@@std@@@std@@$00@std@@@std@@QEAA@AEBV?$hash_compare@_KU?$less@_K@std@@@stdext@@AEBV?$allocator@U?$pair@$$CB_KPEAVApiInfo@@@std@@@1@@Z@4HA 000000014004c760 f    CIL library: CIL module
 0001:0004b770       ?catch$0@?0???0?$vector@PEAVApiInfo@@V?$allocator@PEAVApiInfo@@@std@@@std@@QEAA@AEBV01@@Z@4HA 000000014004c770 f    CIL library: CIL module
 0001:0004b77e       __catch$??0?$vector@PEAVApiInfo@@V?$allocator@PEAVApiInfo@@@std@@@std@@QEAA@AEBV01@@Z$0 000000014004c77e f    CIL library: CIL module
 0001:0004b7b0       ?dtor$1@?0??getEntryPointFromFile@ProcessAccessHelp@@SAKPEB_W@Z@4HA 000000014004c7b0 f    CIL library: CIL module
 0001:0004b7b0       ?dtor$1@?0??setAllSectionNames@DumpMemoryGui@@AEAAX_KPEA_W@Z@4HA 000000014004c7b0 f    CIL library: CIL module
 0001:0004b7b0       ?dtor$1@?0??isValidDllFile@PluginLoader@@CA_NPEB_W@Z@4HA 000000014004c7b0 f    CIL library: CIL module
 0001:0004b7c0       ?dtor$0@?0??OnApiFilterUpdated@PickApiGui@@IEAAXIHVCWindow@ATL@@@Z@4HA 000000014004c7c0 f    CIL library: CIL module
 0001:0004b7d0       ?dtor$1@?0??OnApiFilterUpdated@PickApiGui@@IEAAXIHVCWindow@ATL@@@Z@4HA 000000014004c7d0 f    CIL library: CIL module
 0001:0004b7e0       ?dtor$0@?0??AddValue@CRegParser@ATL@@IEAAJAEAVCRegKey@2@PEB_WPEA_W@Z@4HA 000000014004c7e0 f    CIL library: CIL module
 0001:0004b7f0       ?catch$0@?0??AddValue@CRegParser@ATL@@IEAAJAEAVCRegKey@2@PEB_WPEA_W@Z@4HA 000000014004c7f0 f    CIL library: CIL module
 0001:0004b7fd       __catch$?AddValue@CRegParser@ATL@@IEAAJAEAVCRegKey@2@PEB_WPEA_W@Z$0 000000014004c7fd f    CIL library: CIL module
 0001:0004b810       ?dtor$2@?0??AddValue@CRegParser@ATL@@IEAAJAEAVCRegKey@2@PEB_WPEA_W@Z@4HA 000000014004c810 f    CIL library: CIL module
 0001:0004b820       ?catch$1@?0??AddValue@CRegParser@ATL@@IEAAJAEAVCRegKey@2@PEB_WPEA_W@Z@4HA 000000014004c820 f    CIL library: CIL module
 0001:0004b82d       __catch$?AddValue@CRegParser@ATL@@IEAAJAEAVCRegKey@2@PEB_WPEA_W@Z$2 000000014004c82d f    CIL library: CIL module
 0001:0004b840       ?dtor$0@?0??write@Logger@@MEAAXPEBD@Z@4HA 000000014004c840 f    CIL library: CIL module
 0001:0004b850       ?catch$0@?0???$_Buynode@AEA_K@?$_Tree_val@V?$_Tset_traits@_KU?$less@_K@std@@V?$allocator@_K@2@$0A@@std@@@std@@QEAAPEAU_Node@?$_Tree_nod@V?$_Tset_traits@_KU?$less@_K@std@@V?$allocator@_K@2@$0A@@std@@@1@AEA_K@Z@4HA 000000014004c850 f    CIL library: CIL module
 0001:0004b850       ?catch$0@?0???$_Buynode@_K@?$_Tree_val@V?$_Tset_traits@_KU?$less@_K@std@@V?$allocator@_K@2@$0A@@std@@@std@@QEAAPEAU_Node@?$_Tree_nod@V?$_Tset_traits@_KU?$less@_K@std@@V?$allocator@_K@2@$0A@@std@@@1@$$QEA_K@Z@4HA 000000014004c850 f    CIL library: CIL module
 0001:0004b85d       __catch$??$_Buynode@AEA_K@?$_Tree_val@V?$_Tset_traits@_KU?$less@_K@std@@V?$allocator@_K@2@$0A@@std@@@std@@QEAAPEAU_Node@?$_Tree_nod@V?$_Tset_traits@_KU?$less@_K@std@@V?$allocator@_K@2@$0A@@std@@@1@AEA_K@Z$0 000000014004c85d f    CIL library: CIL module
 0001:0004b85d       __catch$??$_Buynode@_K@?$_Tree_val@V?$_Tset_traits@_KU?$less@_K@std@@V?$allocator@_K@2@$0A@@std@@@std@@QEAAPEAU_Node@?$_Tree_nod@V?$_Tset_traits@_KU?$less@_K@std@@V?$allocator@_K@2@$0A@@std@@@1@$$QEA_K@Z$0 000000014004c85d f    CIL library: CIL module
 0001:0004b870       ?dtor$0@?0??patchDirectJumpTable@IATReferenceScan@@QEAAX_KKPEAVPeParser@@PEAEK@Z@4HA 000000014004c870 f    CIL library: CIL module
 0001:0004b880       ?dtor$4@?0??patchDirectJumpTable@IATReferenceScan@@QEAAX_KKPEAVPeParser@@PEAEK@Z@4HA 000000014004c880 f    CIL library: CIL module
 0001:0004b890       ?dtor$0@?0??numberOfDirectImportApisNotInIat@IATReferenceScan@@QEAAHXZ@4HA 000000014004c890 f    CIL library: CIL module
 0001:0004b890       ?dtor$0@?0??numberOfFoundUniqueDirectImports@IATReferenceScan@@QEAAHXZ@4HA 000000014004c890 f    CIL library: CIL module
 0001:0004b8a0       ?dtor$4@?0??numberOfFoundUniqueDirectImports@IATReferenceScan@@QEAAHXZ@4HA 000000014004c8a0 f    CIL library: CIL module
 0001:0004b8a0       ?dtor$4@?0??numberOfDirectImportApisNotInIat@IATReferenceScan@@QEAAHXZ@4HA 000000014004c8a0 f    CIL library: CIL module
 0001:0004b8b0       ?dtor$0@?0???0ProcessLister@@QEAA@XZ@4HA 000000014004c8b0 f    CIL library: CIL module
 0001:0004b8c0       ?dtor$1@?0???0ProcessLister@@QEAA@XZ@4HA 000000014004c8c0 f    CIL library: CIL module
 0001:0004b8d0       ?dtor$2@?0???0ProcessLister@@QEAA@XZ@4HA 000000014004c8d0 f    CIL library: CIL module
 0001:0004b8e0       ?dtor$0@?0???1DisassemblerGui@@UEAA@XZ@4HA 000000014004c8e0 f    CIL library: CIL module
 0001:0004b8f0       ?dtor$1@?0???1DisassemblerGui@@UEAA@XZ@4HA 000000014004c8f0 f    CIL library: CIL module
 0001:0004b900       ?dtor$2@?0???1DisassemblerGui@@UEAA@XZ@4HA 000000014004c900 f    CIL library: CIL module
 0001:0004b920       ?dtor$3@?0???1DisassemblerGui@@UEAA@XZ@4HA 000000014004c920 f    CIL library: CIL module
 0001:0004b940       ?dtor$0@?0???0DisassemblerGui@@QEAA@_KPEAVApiReader@@@Z@4HA 000000014004c940 f    CIL library: CIL module
 0001:0004b950       ?dtor$1@?0???0DisassemblerGui@@QEAA@_KPEAVApiReader@@@Z@4HA 000000014004c950 f    CIL library: CIL module
 0001:0004b960       ?dtor$2@?0???0DisassemblerGui@@QEAA@_KPEAVApiReader@@@Z@4HA 000000014004c960 f    CIL library: CIL module
 0001:0004b980       ?dtor$3@?0???0DisassemblerGui@@QEAA@_KPEAVApiReader@@@Z@4HA 000000014004c980 f    CIL library: CIL module
 0001:0004b9a0       ?dtor$4@?0???0DisassemblerGui@@QEAA@_KPEAVApiReader@@@Z@4HA 000000014004c9a0 f    CIL library: CIL module
 0001:0004b9c0       ?dtor$5@?0???0DisassemblerGui@@QEAA@_KPEAVApiReader@@@Z@4HA 000000014004c9c0 f    CIL library: CIL module
 0001:0004b9e0       ?dtor$0@?0???0ConfigurationHolder@@QEAA@PEB_W@Z@4HA 000000014004c9e0 f    CIL library: CIL module
 0001:0004ba00       ?catch$0@?0???$_Buynode@AEAU?$pair@$$CB_KVImportThunk@@@std@@@?$_Tree_val@V?$_Tmap_traits@_KVImportThunk@@U?$less@_K@std@@V?$allocator@U?$pair@$$CB_KVImportThunk@@@std@@@3@$0A@@std@@@std@@QEAAPEAU_Node@?$_Tree_nod@V?$_Tmap_traits@_KVImportThunk@@U?$less@_K@std@@V?$allocator@U?$pair@$$CB_KVImportThunk@@@std@@@3@$0A@@std@@@1@AEAU?$pair@$$CB_KVImportThunk@@@1@@Z@4HA 000000014004ca00 f    CIL library: CIL module
 0001:0004ba00       ?catch$0@?0???$_Buynode@U?$pair@_KVImportThunk@@@std@@@?$_Tree_val@V?$_Tmap_traits@_KVImportThunk@@U?$less@_K@std@@V?$allocator@U?$pair@$$CB_KVImportThunk@@@std@@@3@$0A@@std@@@std@@QEAAPEAU_Node@?$_Tree_nod@V?$_Tmap_traits@_KVImportThunk@@U?$less@_K@std@@V?$allocator@U?$pair@$$CB_KVImportThunk@@@std@@@3@$0A@@std@@@1@$$QEAU?$pair@_KVImportThunk@@@1@@Z@4HA 000000014004ca00 f    CIL library: CIL module
 0001:0004ba00       ?catch$0@?0???$_Buynode@U?$pair@$$CB_KVImportThunk@@@std@@@?$_Tree_val@V?$_Tmap_traits@_KVImportThunk@@U?$less@_K@std@@V?$allocator@U?$pair@$$CB_KVImportThunk@@@std@@@3@$0A@@std@@@std@@QEAAPEAU_Node@?$_Tree_nod@V?$_Tmap_traits@_KVImportThunk@@U?$less@_K@std@@V?$allocator@U?$pair@$$CB_KVImportThunk@@@std@@@3@$0A@@std@@@1@$$QEAU?$pair@$$CB_KVImportThunk@@@1@@Z@4HA 000000014004ca00 f    CIL library: CIL module
 0001:0004ba0d       __catch$??$_Buynode@U?$pair@$$CB_KVImportThunk@@@std@@@?$_Tree_val@V?$_Tmap_traits@_KVImportThunk@@U?$less@_K@std@@V?$allocator@U?$pair@$$CB_KVImportThunk@@@std@@@3@$0A@@std@@@std@@QEAAPEAU_Node@?$_Tree_nod@V?$_Tmap_traits@_KVImportThunk@@U?$less@_K@std@@V?$allocator@U?$pair@$$CB_KVImportThunk@@@std@@@3@$0A@@std@@@1@$$QEAU?$pair@$$CB_KVImportThunk@@@1@@Z$0 000000014004ca0d f    CIL library: CIL module
 0001:0004ba0d       __catch$??$_Buynode@U?$pair@_KVImportThunk@@@std@@@?$_Tree_val@V?$_Tmap_traits@_KVImportThunk@@U?$less@_K@std@@V?$allocator@U?$pair@$$CB_KVImportThunk@@@std@@@3@$0A@@std@@@std@@QEAAPEAU_Node@?$_Tree_nod@V?$_Tmap_traits@_KVImportThunk@@U?$less@_K@std@@V?$allocator@U?$pair@$$CB_KVImportThunk@@@std@@@3@$0A@@std@@@1@$$QEAU?$pair@_KVImportThunk@@@1@@Z$0 000000014004ca0d f    CIL library: CIL module
 0001:0004ba0d       __catch$??$_Buynode@AEAU?$pair@$$CB_KVImportThunk@@@std@@@?$_Tree_val@V?$_Tmap_traits@_KVImportThunk@@U?$less@_K@std@@V?$allocator@U?$pair@$$CB_KVImportThunk@@@std@@@3@$0A@@std@@@std@@QEAAPEAU_Node@?$_Tree_nod@V?$_Tmap_traits@_KVImportThunk@@U?$less@_K@std@@V?$allocator@U?$pair@$$CB_KVImportThunk@@@std@@@3@$0A@@std@@@1@AEAU?$pair@$$CB_KVImportThunk@@@1@@Z$0 000000014004ca0d f    CIL library: CIL module
 0001:0004ba20       ?catch$0@?0??_Copy@?$_Tree@V?$_Tmap_traits@_KVImportThunk@@U?$less@_K@std@@V?$allocator@U?$pair@$$CB_KVImportThunk@@@std@@@3@$0A@@std@@@std@@IEAAPEAU_Node@?$_Tree_nod@V?$_Tmap_traits@_KVImportThunk@@U?$less@_K@std@@V?$allocator@U?$pair@$$CB_KVImportThunk@@@std@@@3@$0A@@std@@@2@PEAU342@0@Z@4HA 000000014004ca20 f    CIL library: CIL module
 0001:0004ba30       __catch$?_Copy@?$_Tree@V?$_Tmap_traits@_KVImportThunk@@U?$less@_K@std@@V?$allocator@U?$pair@$$CB_KVImportThunk@@@std@@@3@$0A@@std@@@std@@IEAAPEAU_Node@?$_Tree_nod@V?$_Tmap_traits@_KVImportThunk@@U?$less@_K@std@@V?$allocator@U?$pair@$$CB_KVImportThunk@@@std@@@3@$0A@@std@@@2@PEAU342@0@Z$0 000000014004ca30 f    CIL library: CIL module
 0001:0004ba80       ?dtor$0@?0???0?$_Tree@V?$_Tmap_traits@_KVImportThunk@@U?$less@_K@std@@V?$allocator@U?$pair@$$CB_KVImportThunk@@@std@@@3@$0A@@std@@@std@@QEAA@AEBV01@@Z@4HA 000000014004ca80 f    CIL library: CIL module
 0001:0004ba90       ?catch$0@?0???0?$_Tree@V?$_Tmap_traits@_KVImportThunk@@U?$less@_K@std@@V?$allocator@U?$pair@$$CB_KVImportThunk@@@std@@@3@$0A@@std@@@std@@QEAA@AEBV01@@Z@4HA 000000014004ca90 f    CIL library: CIL module
 0001:0004ba9d       __catch$??0?$_Tree@V?$_Tmap_traits@_KVImportThunk@@U?$less@_K@std@@V?$allocator@U?$pair@$$CB_KVImportThunk@@@std@@@3@$0A@@std@@@std@@QEAA@AEBV01@@Z$0 000000014004ca9d f    CIL library: CIL module
 0001:0004bac0       ?dtor$4@?0??_Erase@?$_Tree@V?$_Tmap_traits@_KVImportModuleThunk@@U?$less@_K@std@@V?$allocator@U?$pair@$$CB_KVImportModuleThunk@@@std@@@3@$0A@@std@@@std@@IEAAXPEAU_Node@?$_Tree_nod@V?$_Tmap_traits@_KVImportModuleThunk@@U?$less@_K@std@@V?$allocator@U?$pair@$$CB_KVImportModuleThunk@@@std@@@3@$0A@@std@@@2@@Z@4HA 000000014004cac0 f    CIL library: CIL module
 0001:0004bad0       ?dtor$0@?0??getModuleXmlElement@TreeImportExport@@AEAAPEAVTiXmlElement@@PEBVImportModuleThunk@@@Z@4HA 000000014004cad0 f    CIL library: CIL module
 0001:0004bae0       ?dtor$0@?0??exportTreeList@TreeImportExport@@QEAA_NAEBV?$map@_KVImportModuleThunk@@U?$less@_K@std@@V?$allocator@U?$pair@$$CB_KVImportModuleThunk@@@std@@@3@@std@@PEBVProcess@@_K2K@Z@4HA 000000014004cae0 f    CIL library: CIL module
 0001:0004baf0       ?dtor$1@?0??exportTreeList@TreeImportExport@@QEAA_NAEBV?$map@_KVImportModuleThunk@@U?$less@_K@std@@V?$allocator@U?$pair@$$CB_KVImportModuleThunk@@@std@@@3@@std@@PEBVProcess@@_K2K@Z@4HA 000000014004caf0 f    CIL library: CIL module
 0001:0004bb00       ?dtor$2@?0??exportTreeList@TreeImportExport@@QEAA_NAEBV?$map@_KVImportModuleThunk@@U?$less@_K@std@@V?$allocator@U?$pair@$$CB_KVImportModuleThunk@@@std@@@3@@std@@PEBVProcess@@_K2K@Z@4HA 000000014004cb00 f    CIL library: CIL module
 0001:0004bb10       ?dtor$0@?0???$_Uninit_move@PEAVModuleInfo@@PEAV1@V?$allocator@VModuleInfo@@@std@@V1@@std@@YAPEAVModuleInfo@@PEAV1@00AEAV?$allocator@VModuleInfo@@@0@0U_Nonscalar_ptr_iterator_tag@0@@Z@4HA 000000014004cb10 f    CIL library: CIL module
 0001:0004bb30       ?catch$0@?0???$_Uninit_move@PEAVModuleInfo@@PEAV1@V?$allocator@VModuleInfo@@@std@@V1@@std@@YAPEAVModuleInfo@@PEAV1@00AEAV?$allocator@VModuleInfo@@@0@0U_Nonscalar_ptr_iterator_tag@0@@Z@4HA 000000014004cb30 f    CIL library: CIL module
 0001:0004bb3f       __catch$??$_Uninit_move@PEAVModuleInfo@@PEAV1@V?$allocator@VModuleInfo@@@std@@V1@@std@@YAPEAVModuleInfo@@PEAV1@00AEAV?$allocator@VModuleInfo@@@0@0U_Nonscalar_ptr_iterator_tag@0@@Z$0 000000014004cb3f f    CIL library: CIL module
 0001:0004bb70       ?catch$0@?0??reserve@?$vector@VModuleInfo@@V?$allocator@VModuleInfo@@@std@@@std@@QEAAX_K@Z@4HA 000000014004cb70 f    CIL library: CIL module
 0001:0004bb7d       __catch$?reserve@?$vector@VModuleInfo@@V?$allocator@VModuleInfo@@@std@@@std@@QEAAX_K@Z$0 000000014004cb7d f    CIL library: CIL module
 0001:0004bb90       ?dtor$0@?0??disassemblerActionHandler@MainGui@@IEAAXXZ@4HA 000000014004cb90 f    CIL library: CIL module
 0001:0004bba0       ?dtor$0@?0??optionsActionHandler@MainGui@@IEAAXXZ@4HA 000000014004cba0 f    CIL library: CIL module
 0001:0004bba0       ?dtor$0@?0??showAboutDialog@MainGui@@IEAAXXZ@4HA 000000014004cba0 f    CIL library: CIL module
 0001:0004bbb0       ?dtor$1@?0??peRebuildActionHandler@MainGui@@IEAAXXZ@4HA 000000014004cbb0 f    CIL library: CIL module
 0001:0004bbc0       ?dtor$0@?0??peRebuildActionHandler@MainGui@@IEAAXXZ@4HA 000000014004cbc0 f    CIL library: CIL module
 0001:0004bbd0       ?dtor$0@?0??dumpActionHandler@MainGui@@IEAAXXZ@4HA 000000014004cbd0 f    CIL library: CIL module
 0001:0004bbe0       ?dtor$1@?0??dumpActionHandler@MainGui@@IEAAXXZ@4HA 000000014004cbe0 f    CIL library: CIL module
 0001:0004bbf0       ?dtor$0@?0??startDisassemblerGui@MainGui@@IEAAXV?$CTreeItemT@VCWindow@ATL@@@WTL@@@Z@4HA 000000014004cbf0 f    CIL library: CIL module
 0001:0004bc00       ?dtor$0@?0??pickDllActionHandler@MainGui@@IEAAXXZ@4HA 000000014004cc00 f    CIL library: CIL module
 0001:0004bc10       ?dtor$0@?0??RegisterSubkeys@CRegParser@ATL@@IEAAJPEA_WPEAUHKEY__@@HH@Z@4HA 000000014004cc10 f    CIL library: CIL module
 0001:0004bc20       ?dtor$2@?0??RegisterSubkeys@CRegParser@ATL@@IEAAJPEA_WPEAUHKEY__@@HH@Z@4HA 000000014004cc20 f    CIL library: CIL module
 0001:0004bc30       ?catch$0@?0??Add@CExpansionVector@ATL@@QEAAHPEB_W0@Z@4HA 000000014004cc30 f    CIL library: CIL module
 0001:0004bc3d       __catch$?Add@CExpansionVector@ATL@@QEAAHPEB_W0@Z$0 000000014004cc3d f    CIL library: CIL module
 0001:0004bc50       ?dtor$0@?0??Add@CExpansionVector@ATL@@QEAAHPEB_W0@Z@4HA 000000014004cc50 f    CIL library: CIL module
 0001:0004bc60       ?catch$1@?0??Add@CExpansionVector@ATL@@QEAAHPEB_W0@Z@4HA 000000014004cc60 f    CIL library: CIL module
 0001:0004bc6d       __catch$?Add@CExpansionVector@ATL@@QEAAHPEB_W0@Z$2 000000014004cc6d f    CIL library: CIL module
 0001:0004bc80       ?dtor$1@?0??Add@CExpansionVector@ATL@@QEAAHPEB_W0@Z@4HA 000000014004cc80 f    CIL library: CIL module
 0001:0004bc90       ?dtor$0@?0???$_Buynode@U?$pair@_KVImportModuleThunk@@@std@@@?$_Tree_val@V?$_Tmap_traits@_KVImportModuleThunk@@U?$less@_K@std@@V?$allocator@U?$pair@$$CB_KVImportModuleThunk@@@std@@@3@$0A@@std@@@std@@QEAAPEAU_Node@?$_Tree_nod@V?$_Tmap_traits@_KVImportModuleThunk@@U?$less@_K@std@@V?$allocator@U?$pair@$$CB_KVImportModuleThunk@@@std@@@3@$0A@@std@@@1@$$QEAU?$pair@_KVImportModuleThunk@@@1@@Z@4HA 000000014004cc90 f    CIL library: CIL module
 0001:0004bc90       ?dtor$0@?0???$_Buynode@U?$pair@$$CB_KVImportModuleThunk@@@std@@@?$_Tree_val@V?$_Tmap_traits@_KVImportModuleThunk@@U?$less@_K@std@@V?$allocator@U?$pair@$$CB_KVImportModuleThunk@@@std@@@3@$0A@@std@@@std@@QEAAPEAU_Node@?$_Tree_nod@V?$_Tmap_traits@_KVImportModuleThunk@@U?$less@_K@std@@V?$allocator@U?$pair@$$CB_KVImportModuleThunk@@@std@@@3@$0A@@std@@@1@$$QEAU?$pair@$$CB_KVImportModuleThunk@@@1@@Z@4HA 000000014004cc90 f    CIL library: CIL module
 0001:0004bc90       ?dtor$0@?0???$_Buynode@AEAU?$pair@$$CB_KVImportModuleThunk@@@std@@@?$_Tree_val@V?$_Tmap_traits@_KVImportModuleThunk@@U?$less@_K@std@@V?$allocator@U?$pair@$$CB_KVImportModuleThunk@@@std@@@3@$0A@@std@@@std@@QEAAPEAU_Node@?$_Tree_nod@V?$_Tmap_traits@_KVImportModuleThunk@@U?$less@_K@std@@V?$allocator@U?$pair@$$CB_KVImportModuleThunk@@@std@@@3@$0A@@std@@@1@AEAU?$pair@$$CB_KVImportModuleThunk@@@1@@Z@4HA 000000014004cc90 f    CIL library: CIL module
 0001:0004bc90       ?dtor$0@?0??_Buynode@?$_Tree_val@V?$_Tmap_traits@_KVImportModuleThunk@@U?$less@_K@std@@V?$allocator@U?$pair@$$CB_KVImportModuleThunk@@@std@@@3@$0A@@std@@@std@@QEAAPEAU_Node@?$_Tree_nod@V?$_Tmap_traits@_KVImportModuleThunk@@U?$less@_K@std@@V?$allocator@U?$pair@$$CB_KVImportModuleThunk@@@std@@@3@$0A@@std@@@2@AEBU?$pair@$$CB_KVImportModuleThunk@@@2@@Z@4HA 000000014004cc90 f    CIL library: CIL module
 0001:0004bcb0       ?catch$0@?0???$_Buynode@AEAU?$pair@$$CB_KVImportModuleThunk@@@std@@@?$_Tree_val@V?$_Tmap_traits@_KVImportModuleThunk@@U?$less@_K@std@@V?$allocator@U?$pair@$$CB_KVImportModuleThunk@@@std@@@3@$0A@@std@@@std@@QEAAPEAU_Node@?$_Tree_nod@V?$_Tmap_traits@_KVImportModuleThunk@@U?$less@_K@std@@V?$allocator@U?$pair@$$CB_KVImportModuleThunk@@@std@@@3@$0A@@std@@@1@AEAU?$pair@$$CB_KVImportModuleThunk@@@1@@Z@4HA 000000014004ccb0 f    CIL library: CIL module
 0001:0004bcb0       ?catch$0@?0???$_Buynode@U?$pair@_KVImportModuleThunk@@@std@@@?$_Tree_val@V?$_Tmap_traits@_KVImportModuleThunk@@U?$less@_K@std@@V?$allocator@U?$pair@$$CB_KVImportModuleThunk@@@std@@@3@$0A@@std@@@std@@QEAAPEAU_Node@?$_Tree_nod@V?$_Tmap_traits@_KVImportModuleThunk@@U?$less@_K@std@@V?$allocator@U?$pair@$$CB_KVImportModuleThunk@@@std@@@3@$0A@@std@@@1@$$QEAU?$pair@_KVImportModuleThunk@@@1@@Z@4HA 000000014004ccb0 f    CIL library: CIL module
 0001:0004bcb0       ?catch$0@?0???$_Buynode@U?$pair@$$CB_KVImportModuleThunk@@@std@@@?$_Tree_val@V?$_Tmap_traits@_KVImportModuleThunk@@U?$less@_K@std@@V?$allocator@U?$pair@$$CB_KVImportModuleThunk@@@std@@@3@$0A@@std@@@std@@QEAAPEAU_Node@?$_Tree_nod@V?$_Tmap_traits@_KVImportModuleThunk@@U?$less@_K@std@@V?$allocator@U?$pair@$$CB_KVImportModuleThunk@@@std@@@3@$0A@@std@@@1@$$QEAU?$pair@$$CB_KVImportModuleThunk@@@1@@Z@4HA 000000014004ccb0 f    CIL library: CIL module
 0001:0004bcb0       ?catch$0@?0??_Buynode@?$_Tree_val@V?$_Tmap_traits@_KVImportModuleThunk@@U?$less@_K@std@@V?$allocator@U?$pair@$$CB_KVImportModuleThunk@@@std@@@3@$0A@@std@@@std@@QEAAPEAU_Node@?$_Tree_nod@V?$_Tmap_traits@_KVImportModuleThunk@@U?$less@_K@std@@V?$allocator@U?$pair@$$CB_KVImportModuleThunk@@@std@@@3@$0A@@std@@@2@AEBU?$pair@$$CB_KVImportModuleThunk@@@2@@Z@4HA 000000014004ccb0 f    CIL library: CIL module
 0001:0004bcbd       __catch$??$_Buynode@U?$pair@$$CB_KVImportModuleThunk@@@std@@@?$_Tree_val@V?$_Tmap_traits@_KVImportModuleThunk@@U?$less@_K@std@@V?$allocator@U?$pair@$$CB_KVImportModuleThunk@@@std@@@3@$0A@@std@@@std@@QEAAPEAU_Node@?$_Tree_nod@V?$_Tmap_traits@_KVImportModuleThunk@@U?$less@_K@std@@V?$allocator@U?$pair@$$CB_KVImportModuleThunk@@@std@@@3@$0A@@std@@@1@$$QEAU?$pair@$$CB_KVImportModuleThunk@@@1@@Z$0 000000014004ccbd f    CIL library: CIL module
 0001:0004bcbd       __catch$??$_Buynode@AEAU?$pair@$$CB_KVImportModuleThunk@@@std@@@?$_Tree_val@V?$_Tmap_traits@_KVImportModuleThunk@@U?$less@_K@std@@V?$allocator@U?$pair@$$CB_KVImportModuleThunk@@@std@@@3@$0A@@std@@@std@@QEAAPEAU_Node@?$_Tree_nod@V?$_Tmap_traits@_KVImportModuleThunk@@U?$less@_K@std@@V?$allocator@U?$pair@$$CB_KVImportModuleThunk@@@std@@@3@$0A@@std@@@1@AEAU?$pair@$$CB_KVImportModuleThunk@@@1@@Z$0 000000014004ccbd f    CIL library: CIL module
 0001:0004bcbd       __catch$?_Buynode@?$_Tree_val@V?$_Tmap_traits@_KVImportModuleThunk@@U?$less@_K@std@@V?$allocator@U?$pair@$$CB_KVImportModuleThunk@@@std@@@3@$0A@@std@@@std@@QEAAPEAU_Node@?$_Tree_nod@V?$_Tmap_traits@_KVImportModuleThunk@@U?$less@_K@std@@V?$allocator@U?$pair@$$CB_KVImportModuleThunk@@@std@@@3@$0A@@std@@@2@AEBU?$pair@$$CB_KVImportModuleThunk@@@2@@Z$0 000000014004ccbd f    CIL library: CIL module
 0001:0004bcbd       __catch$??$_Buynode@U?$pair@_KVImportModuleThunk@@@std@@@?$_Tree_val@V?$_Tmap_traits@_KVImportModuleThunk@@U?$less@_K@std@@V?$allocator@U?$pair@$$CB_KVImportModuleThunk@@@std@@@3@$0A@@std@@@std@@QEAAPEAU_Node@?$_Tree_nod@V?$_Tmap_traits@_KVImportModuleThunk@@U?$less@_K@std@@V?$allocator@U?$pair@$$CB_KVImportModuleThunk@@@std@@@3@$0A@@std@@@1@$$QEAU?$pair@_KVImportModuleThunk@@@1@@Z$0 000000014004ccbd f    CIL library: CIL module
 0001:0004bcd0       ?catch$0@?0??_Copy@?$_Tree@V?$_Tmap_traits@_KVImportModuleThunk@@U?$less@_K@std@@V?$allocator@U?$pair@$$CB_KVImportModuleThunk@@@std@@@3@$0A@@std@@@std@@IEAAPEAU_Node@?$_Tree_nod@V?$_Tmap_traits@_KVImportModuleThunk@@U?$less@_K@std@@V?$allocator@U?$pair@$$CB_KVImportModuleThunk@@@std@@@3@$0A@@std@@@2@PEAU342@0@Z@4HA 000000014004ccd0 f    CIL library: CIL module
 0001:0004bcdd       __catch$?_Copy@?$_Tree@V?$_Tmap_traits@_KVImportModuleThunk@@U?$less@_K@std@@V?$allocator@U?$pair@$$CB_KVImportModuleThunk@@@std@@@3@$0A@@std@@@std@@IEAAPEAU_Node@?$_Tree_nod@V?$_Tmap_traits@_KVImportModuleThunk@@U?$less@_K@std@@V?$allocator@U?$pair@$$CB_KVImportModuleThunk@@@std@@@3@$0A@@std@@@2@PEAU342@0@Z$0 000000014004ccdd f    CIL library: CIL module
 0001:0004bd00       ?dtor$0@?0??findIATAdvanced@IATSearch@@AEAA_N_KPEA_KPEAK@Z@4HA 000000014004cd00 f    CIL library: CIL module
 0001:0004bd10       ?dtor$4@?0??findIATAdvanced@IATSearch@@AEAA_N_KPEA_KPEAK@Z@4HA 000000014004cd10 f    CIL library: CIL module
 0001:0004bd20       ?dtor$6@?0??findIATAdvanced@IATSearch@@AEAA_N_KPEA_KPEAK@Z@4HA 000000014004cd20 f    CIL library: CIL module
 0001:0004bd30       ?dtor$8@?0??findIATAdvanced@IATSearch@@AEAA_N_KPEA_KPEAK@Z@4HA 000000014004cd30 f    CIL library: CIL module
 0001:0004bd40       ?dtor$10@?0??findIATAdvanced@IATSearch@@AEAA_N_KPEA_KPEAK@Z@4HA 000000014004cd40 f    CIL library: CIL module
 0001:0004bd50       ?dtor$4@?0??erase@?$_Tree@V?$_Tmap_traits@_KVImportModuleThunk@@U?$less@_K@std@@V?$allocator@U?$pair@$$CB_KVImportModuleThunk@@@std@@@3@$0A@@std@@@std@@QEAA?AV?$_Tree_iterator@V?$_Tree_val@V?$_Tmap_traits@_KVImportModuleThunk@@U?$less@_K@std@@V?$allocator@U?$pair@$$CB_KVImportModuleThunk@@@std@@@3@$0A@@std@@@std@@@2@V?$_Tree_const_iterator@V?$_Tree_val@V?$_Tmap_traits@_KVImportModuleThunk@@U?$less@_K@std@@V?$allocator@U?$pair@$$CB_KVImportModuleThunk@@@std@@@3@$0A@@std@@@std@@@2@@Z@4HA 000000014004cd50 f    CIL library: CIL module
 0001:0004bd60       ?dtor$0@?0???1DumpSectionGui@@UEAA@XZ@4HA 000000014004cd60 f    CIL library: CIL module
 0001:0004bd70       ?dtor$1@?0???1DumpSectionGui@@UEAA@XZ@4HA 000000014004cd70 f    CIL library: CIL module
 0001:0004bd80       ?dtor$0@?0???1DumpMemoryGui@@UEAA@XZ@4HA 000000014004cd80 f    CIL library: CIL module
 0001:0004bd90       ?dtor$1@?0???1DumpMemoryGui@@UEAA@XZ@4HA 000000014004cd90 f    CIL library: CIL module
 0001:0004bda0       ?dtor$2@?0???1DumpMemoryGui@@UEAA@XZ@4HA 000000014004cda0 f    CIL library: CIL module
 0001:0004bdc0       ?dtor$0@?0???0DumpMemoryGui@@QEAA@XZ@4HA 000000014004cdc0 f    CIL library: CIL module
 0001:0004bdd0       ?dtor$1@?0???0DumpMemoryGui@@QEAA@XZ@4HA 000000014004cdd0 f    CIL library: CIL module
 0001:0004bde0       ?dtor$2@?0???0DumpMemoryGui@@QEAA@XZ@4HA 000000014004cde0 f    CIL library: CIL module
 0001:0004be00       ?dtor$3@?0???0DumpMemoryGui@@QEAA@XZ@4HA 000000014004ce00 f    CIL library: CIL module
 0001:0004be20       ?dtor$4@?0???0DumpMemoryGui@@QEAA@XZ@4HA 000000014004ce20 f    CIL library: CIL module
 0001:0004be40       ?dtor$5@?0???0DumpMemoryGui@@QEAA@XZ@4HA 000000014004ce40 f    CIL library: CIL module
 0001:0004be50       ?dtor$6@?0???0DumpMemoryGui@@QEAA@XZ@4HA 000000014004ce50 f    CIL library: CIL module
 0001:0004be60       ?dtor$0@?0??OnContextMenu@DisassemblerGui@@IEAAXVCWindow@ATL@@VCPoint@WTL@@@Z@4HA 000000014004ce60 f    CIL library: CIL module
 0001:0004be70       ?dtor$4@?0??_Linsert@?$_Tree@V?$_Tmap_traits@_KVImportModuleThunk@@U?$less@_K@std@@V?$allocator@U?$pair@$$CB_KVImportModuleThunk@@@std@@@3@$0A@@std@@@std@@QEAA?AU?$pair@V?$_Tree_iterator@V?$_Tree_val@V?$_Tmap_traits@_KVImportModuleThunk@@U?$less@_K@std@@V?$allocator@U?$pair@$$CB_KVImportModuleThunk@@@std@@@3@$0A@@std@@@std@@@std@@_N@2@PEAU_Node@?$_Tree_nod@V?$_Tmap_traits@_KVImportModuleThunk@@U?$less@_K@std@@V?$allocator@U?$pair@$$CB_KVImportModuleThunk@@@std@@@3@$0A@@std@@@2@_N@Z@4HA 000000014004ce70 f    CIL library: CIL module
 0001:0004be80       ?dtor$0@?0???A?$map@_KVImportModuleThunk@@U?$less@_K@std@@V?$allocator@U?$pair@$$CB_KVImportModuleThunk@@@std@@@3@@std@@QEAAAEAVImportModuleThunk@@AEB_K@Z@4HA 000000014004ce80 f    CIL library: CIL module
 0001:0004be80       ?dtor$0@?0??addModuleToModuleList@ApiReader@@AEAA_NPEB_W_K@Z@4HA 000000014004ce80 f    CIL library: CIL module
 0001:0004be80       ?dtor$0@?0??addUnknownModuleToModuleList@ApiReader@@AEAAX_K@Z@4HA 000000014004ce80 f    CIL library: CIL module
 0001:0004be90       ?dtor$1@?0??addUnknownModuleToModuleList@ApiReader@@AEAAX_K@Z@4HA 000000014004ce90 f    CIL library: CIL module
 0001:0004be90       ?dtor$1@?0???A?$map@_KVImportModuleThunk@@U?$less@_K@std@@V?$allocator@U?$pair@$$CB_KVImportModuleThunk@@@std@@@3@@std@@QEAAAEAVImportModuleThunk@@AEB_K@Z@4HA 000000014004ce90 f    CIL library: CIL module
 0001:0004be90       ?dtor$1@?0??addModuleToModuleList@ApiReader@@AEAA_NPEB_W_K@Z@4HA 000000014004ce90 f    CIL library: CIL module
 0001:0004bea0       ?dtor$10@?0???A?$map@_KVImportModuleThunk@@U?$less@_K@std@@V?$allocator@U?$pair@$$CB_KVImportModuleThunk@@@std@@@3@@std@@QEAAAEAVImportModuleThunk@@AEB_K@Z@4HA 000000014004cea0 f    CIL library: CIL module
 0001:0004bea0       ?dtor$12@?0??addUnknownModuleToModuleList@ApiReader@@AEAAX_K@Z@4HA 000000014004cea0 f    CIL library: CIL module
 0001:0004bea0       ?dtor$12@?0??addModuleToModuleList@ApiReader@@AEAA_NPEB_W_K@Z@4HA 000000014004cea0 f    CIL library: CIL module
 0001:0004beb0       ?dtor$15@?0??addModuleToModuleList@ApiReader@@AEAA_NPEB_W_K@Z@4HA 000000014004ceb0 f    CIL library: CIL module
 0001:0004beb0       ?dtor$15@?0??addUnknownModuleToModuleList@ApiReader@@AEAAX_K@Z@4HA 000000014004ceb0 f    CIL library: CIL module
 0001:0004beb0       ?dtor$13@?0???A?$map@_KVImportModuleThunk@@U?$less@_K@std@@V?$allocator@U?$pair@$$CB_KVImportModuleThunk@@@std@@@3@@std@@QEAAAEAVImportModuleThunk@@AEB_K@Z@4HA 000000014004ceb0 f    CIL library: CIL module
 0001:0004bec0       ?dtor$0@?0??push_back@?$vector@VModuleInfo@@V?$allocator@VModuleInfo@@@std@@@std@@QEAAXAEBVModuleInfo@@@Z@4HA 000000014004cec0 f    CIL library: CIL module
 0001:0004bee0       ?dtor$1@?0??push_back@?$vector@VModuleInfo@@V?$allocator@VModuleInfo@@@std@@@std@@QEAAXAEBVModuleInfo@@@Z@4HA 000000014004cee0 f    CIL library: CIL module
 0001:0004bf00       ?dtor$0@?0??getProcessModules@ProcessAccessHelp@@SA_NPEAXAEAV?$vector@VModuleInfo@@V?$allocator@VModuleInfo@@@std@@@std@@@Z@4HA 000000014004cf00 f    CIL library: CIL module
 0001:0004bf10       ?dtor$2@?0??getProcessModules@ProcessAccessHelp@@SA_NPEAXAEAV?$vector@VModuleInfo@@V?$allocator@VModuleInfo@@@std@@@std@@@Z@4HA 000000014004cf10 f    CIL library: CIL module
 0001:0004bf20       ?dtor$1@?0??getProcessModules@ProcessAccessHelp@@SA_NPEAXAEAV?$vector@VModuleInfo@@V?$allocator@VModuleInfo@@@std@@@std@@@Z@4HA 000000014004cf20 f    CIL library: CIL module
 0001:0004bf30       ?dtor$0@?0??dumpMemoryActionHandler@MainGui@@IEAAXXZ@4HA 000000014004cf30 f    CIL library: CIL module
 0001:0004bf40       ?dtor$0@?0??AddReplacement@CRegObject@ATL@@UEAAJPEB_W0@Z@4HA 000000014004cf40 f    CIL library: CIL module
 0001:0004bf50       ?dtor$0@?0??addModuleToModuleList@ImportsHandling@@AEAA_NPEB_W_K@Z@4HA 000000014004cf50 f    CIL library: CIL module
 0001:0004bf50       ?dtor$0@?0??addUnknownModuleToModuleList@ImportsHandling@@AEAAX_K@Z@4HA 000000014004cf50 f    CIL library: CIL module
 0001:0004bf60       ?dtor$5@?0??addUnknownModuleToModuleList@ImportsHandling@@AEAAX_K@Z@4HA 000000014004cf60 f    CIL library: CIL module
 0001:0004bf60       ?dtor$5@?0??addModuleToModuleList@ImportsHandling@@AEAA_NPEB_W_K@Z@4HA 000000014004cf60 f    CIL library: CIL module
 0001:0004bf70       ?dtor$0@?0???1ImportsHandling@@QEAA@XZ@4HA 000000014004cf70 f    CIL library: CIL module
 0001:0004bf80       ?dtor$7@?0???1ImportsHandling@@QEAA@XZ@4HA 000000014004cf80 f    CIL library: CIL module
 0001:0004bf90       ?dtor$9@?0???1ImportsHandling@@QEAA@XZ@4HA 000000014004cf90 f    CIL library: CIL module
 0001:0004bfa0       ?dtor$0@?0???0ImportsHandling@@QEAA@AEAVCMultiSelectTreeViewCtrl@@@Z@4HA 000000014004cfa0 f    CIL library: CIL module
 0001:0004bfb0       ?dtor$1@?0???0ImportsHandling@@QEAA@AEAVCMultiSelectTreeViewCtrl@@@Z@4HA 000000014004cfb0 f    CIL library: CIL module
 0001:0004bfc0       ?dtor$0@?0??rebuildImportTable@ImportRebuilder@@QEAA_NPEB_WAEAV?$map@_KVImportModuleThunk@@U?$less@_K@std@@V?$allocator@U?$pair@$$CB_KVImportModuleThunk@@@std@@@3@@std@@@Z@4HA 000000014004cfc0 f    CIL library: CIL module
 0001:0004bfd0       ?dtor$4@?0??rebuildImportTable@ImportRebuilder@@QEAA_NPEB_WAEAV?$map@_KVImportModuleThunk@@U?$less@_K@std@@V?$allocator@U?$pair@$$CB_KVImportModuleThunk@@@std@@@3@@std@@@Z@4HA 000000014004cfd0 f    CIL library: CIL module
 0001:0004bfe0       ?dtor$0@?0??addAdditionalApisToList@IATReferenceScan@@QEAAKXZ@4HA 000000014004cfe0 f    CIL library: CIL module
 0001:0004bff0       ?dtor$4@?0??addAdditionalApisToList@IATReferenceScan@@QEAAKXZ@4HA 000000014004cff0 f    CIL library: CIL module
 0001:0004c000       ?dtor$1@?0??parseModuleWithProcess@ApiReader@@AEAAXPEAVModuleInfo@@@Z@4HA 000000014004d000 f    CIL library: CIL module
 0001:0004c000       ?dtor$1@?0??getAllSectionsFromFile@DumpSectionGui@@AEAAXXZ@4HA 000000014004d000 f    CIL library: CIL module
 0001:0004c010       ?dtor$0@?0??getAllSectionsFromFile@DumpSectionGui@@AEAAXXZ@4HA 000000014004d010 f    CIL library: CIL module
 0001:0004c010       ?dtor$0@?0??parseModuleWithProcess@ApiReader@@AEAAXPEAVModuleInfo@@@Z@4HA 000000014004d010 f    CIL library: CIL module
 0001:0004c020       ?dtor$0@?0??parseAllElementModules@TreeImportExport@@AEAAXPEAVTiXmlElement@@AEAV?$map@_KVImportModuleThunk@@U?$less@_K@std@@V?$allocator@U?$pair@$$CB_KVImportModuleThunk@@@std@@@3@@std@@@Z@4HA 000000014004d020 f    CIL library: CIL module
 0001:0004c030       ?dtor$6@?0??parseAllElementModules@TreeImportExport@@AEAAXPEAVTiXmlElement@@AEAV?$map@_KVImportModuleThunk@@U?$less@_K@std@@V?$allocator@U?$pair@$$CB_KVImportModuleThunk@@@std@@@3@@std@@@Z@4HA 000000014004d030 f    CIL library: CIL module
 0001:0004c040       ?dtor$0@?0??importTreeList@TreeImportExport@@QEAA_NAEAV?$map@_KVImportModuleThunk@@U?$less@_K@std@@V?$allocator@U?$pair@$$CB_KVImportModuleThunk@@@std@@@3@@std@@PEA_K1PEAK@Z@4HA 000000014004d040 f    CIL library: CIL module
 0001:0004c050       ?dtor$2@?0??dumpFixActionHandler@MainGui@@IEAAXXZ@4HA 000000014004d050 f    CIL library: CIL module
 0001:0004c060       ?dtor$0@?0??dumpFixActionHandler@MainGui@@IEAAXXZ@4HA 000000014004d060 f    CIL library: CIL module
 0001:0004c070       ?dtor$0@?0??dumpSectionActionHandler@MainGui@@IEAAXXZ@4HA 000000014004d070 f    CIL library: CIL module
 0001:0004c080       ?dtor$1@?0??dumpSectionActionHandler@MainGui@@IEAAXXZ@4HA 000000014004d080 f    CIL library: CIL module
 0001:0004c090       ?dtor$2@?0??dumpSectionActionHandler@MainGui@@IEAAXXZ@4HA 000000014004d090 f    CIL library: CIL module
 0001:0004c0a0       ?dtor$3@?0??dumpSectionActionHandler@MainGui@@IEAAXXZ@4HA 000000014004d0a0 f    CIL library: CIL module
 0001:0004c0b0       ?dtor$4@?0??dumpSectionActionHandler@MainGui@@IEAAXXZ@4HA 000000014004d0b0 f    CIL library: CIL module
 0001:0004c0c0       ?dtor$0@?0???0MainGui@@QEAA@XZ@4HA 000000014004d0c0 f    CIL library: CIL module
 0001:0004c0d0       ?dtor$1@?0???0MainGui@@QEAA@XZ@4HA 000000014004d0d0 f    CIL library: CIL module
 0001:0004c0e0       ?dtor$0@?0???1MainGui@@UEAA@XZ@4HA 000000014004d0e0 f    CIL library: CIL module
 0001:0004c0f0       ?dtor$1@?0???1MainGui@@UEAA@XZ@4HA 000000014004d0f0 f    CIL library: CIL module
 0001:0004c100       ?dtor$2@?0???1MainGui@@UEAA@XZ@4HA 000000014004d100 f    CIL library: CIL module
 0001:0004c120       ?dtor$3@?0???1MainGui@@UEAA@XZ@4HA 000000014004d120 f    CIL library: CIL module
 0001:0004c140       ?dtor$4@?0???1MainGui@@UEAA@XZ@4HA 000000014004d140 f    CIL library: CIL module
 0001:0004c160       ?dtor$5@?0???1MainGui@@UEAA@XZ@4HA 000000014004d160 f    CIL library: CIL module
 0001:0004c180       ?dtor$6@?0???1MainGui@@UEAA@XZ@4HA 000000014004d180 f    CIL library: CIL module
 0001:0004c1a0       ?dtor$7@?0???1MainGui@@UEAA@XZ@4HA 000000014004d1a0 f    CIL library: CIL module
 0001:0004c1c0       ?dtor$0@?0??InitializeGui@@YAHPEAUHINSTANCE__@@_J@Z@4HA 000000014004d1c0 f    CIL library: CIL module
 0001:0004c1d0       ?dtor$1@?0??InitializeGui@@YAHPEAUHINSTANCE__@@_J@Z@4HA 000000014004d1d0 f    CIL library: CIL module
 0001:0004c1e0       ?dtor$0@?0??PreProcessBuffer@CRegParser@ATL@@QEAAJPEA_WPEAPEA_W@Z@4HA 000000014004d1e0 f    CIL library: CIL module
 0001:0004c1f0       ?dtor$1@?0??PreProcessBuffer@CRegParser@ATL@@QEAAJPEA_WPEAPEA_W@Z@4HA 000000014004d1f0 f    CIL library: CIL module
 0001:0004c200       ?dtor$2@?0??PreProcessBuffer@CRegParser@ATL@@QEAAJPEA_WPEAPEA_W@Z@4HA 000000014004d200 f    CIL library: CIL module
 0001:0004c210       ?dtor$3@?0??PreProcessBuffer@CRegParser@ATL@@QEAAJPEA_WPEAPEA_W@Z@4HA 000000014004d210 f    CIL library: CIL module
 0001:0004c220       ?dtor$0@?0??pluginActionHandler@MainGui@@IEAAXH@Z@4HA 000000014004d220 f    CIL library: CIL module
 0001:0004c230       ?dtor$0@?0??DisplayContextMenuImports@MainGui@@IEAAXVCWindow@ATL@@VCPoint@WTL@@@Z@4HA 000000014004d230 f    CIL library: CIL module
 0001:0004c240       ?dtor$0@?0??pickApiActionHandler@MainGui@@IEAAXV?$CTreeItemT@VCWindow@ATL@@@WTL@@@Z@4HA 000000014004d240 f    CIL library: CIL module
 0001:0004c250       ?dtor$0@?0??RegisterFromResource@CRegObject@ATL@@IEAAJPEB_W00H@Z@4HA 000000014004d250 f    CIL library: CIL module
 0001:0004c260       ?dtor$1@?0??RegisterFromResource@CRegObject@ATL@@IEAAJPEB_W00H@Z@4HA 000000014004d260 f    CIL library: CIL module
 0001:0004c270       ?catch$0@?0??RegisterFromResource@CRegObject@ATL@@IEAAJPEB_W00H@Z@4HA 000000014004d270 f    CIL library: CIL module
 0001:0004c27d       __catch$?RegisterFromResource@CRegObject@ATL@@IEAAJPEB_W00H@Z$4 000000014004d27d f    CIL library: CIL module
 0001:0004c290       ?dtor$0@?0??_ProcessWindowMessage@MainGui@@QEAAHPEAUHWND__@@I_K_JAEA_JK@Z@4HA 000000014004d290 f    CIL library: CIL module
 0001:0004c2a0       ??__E?apiList@ApiReader@@2V?$hash_multimap@_KPEAVApiInfo@@V?$hash_compare@_KU?$less@_K@std@@@stdext@@V?$allocator@U?$pair@$$CB_KPEAVApiInfo@@@std@@@std@@@stdext@@A@@YAXXZ 000000014004d2a0 f    CIL library: CIL module
 0001:0004c2c0       ??__E?directImportLog@IATReferenceScan@@2VFileLog@@A@@YAXXZ 000000014004d2c0 f    CIL library: CIL module
 0001:0004c300       ??__E_Module@@YAXXZ        000000014004d300 f    CIL library: CIL module
 0001:0004c340       ??__E?moduleList@ProcessAccessHelp@@2V?$vector@VModuleInfo@@V?$allocator@VModuleInfo@@@std@@@std@@A@@YAXXZ 000000014004d340 f    CIL library: CIL module
 0001:0004c350       ??__E?ownModuleList@ProcessAccessHelp@@2V?$vector@VModuleInfo@@V?$allocator@VModuleInfo@@@std@@@std@@A@@YAXXZ 000000014004d350 f    CIL library: CIL module
 0001:0004c360       ??__E?config@Scylla@@2VConfigurationHolder@@A@@YAXXZ 000000014004d360 f    CIL library: CIL module
 0001:0004c380       ??__E?plugins@Scylla@@2VPluginLoader@@A@@YAXXZ 000000014004d380 f    CIL library: CIL module
 0001:0004c390       ??__E?processLister@Scylla@@2VProcessLister@@A@@YAXXZ 000000014004d390 f    CIL library: CIL module
 0001:0004c3b0       ??__E?debugLog@Scylla@@2VFileLog@@A@@YAXXZ 000000014004d3b0 f    CIL library: CIL module
 0001:0004c3f0       ??__E_AtlBaseModule@ATL@@YAXXZ 000000014004d3f0 f   atls:atlbase.obj
 0001:0004c410       ??__E_AtlComModule@ATL@@YAXXZ 000000014004d410 f   atls:atlcommodule.obj
 0001:0004c430       ??__E_AtlWinModule@ATL@@YAXXZ 000000014004d430 f   atls:atlwinmodule.obj
 0001:0004c450       ??__F?apiList@ApiReader@@2V?$hash_multimap@_KPEAVApiInfo@@V?$hash_compare@_KU?$less@_K@std@@@stdext@@V?$allocator@U?$pair@$$CB_KPEAVApiInfo@@@std@@@std@@@stdext@@A@@YAXXZ 000000014004d450 f    CIL library: CIL module
 0001:0004c460       ??__F_Module@@YAXXZ        000000014004d460 f    CIL library: CIL module
 0001:0004c480       ??__F?moduleList@ProcessAccessHelp@@2V?$vector@VModuleInfo@@V?$allocator@VModuleInfo@@@std@@@std@@A@@YAXXZ 000000014004d480 f    CIL library: CIL module
 0001:0004c510       ??__F?ownModuleList@ProcessAccessHelp@@2V?$vector@VModuleInfo@@V?$allocator@VModuleInfo@@@std@@@std@@A@@YAXXZ 000000014004d510 f    CIL library: CIL module
 0001:0004c5a0       ??__F?config@Scylla@@2VConfigurationHolder@@A@@YAXXZ 000000014004d5a0 f    CIL library: CIL module
 0001:0004c5f0       ??__F?plugins@Scylla@@2VPluginLoader@@A@@YAXXZ 000000014004d5f0 f    CIL library: CIL module
 0001:0004c650       ??__F?processLister@Scylla@@2VProcessLister@@A@@YAXXZ 000000014004d650 f    CIL library: CIL module
 0001:0004c6a0       ??__F_AtlBaseModule@ATL@@YAXXZ 000000014004d6a0 f   atls:atlbase.obj
 0001:0004c6ac       ??__F_AtlComModule@ATL@@YAXXZ 000000014004d6ac f   atls:atlcommodule.obj
 0001:0004c6b8       ??__F_AtlWinModule@ATL@@YAXXZ 000000014004d6b8 f   atls:atlwinmodule.obj
 0001:0004c6fc       ??__Fnomem@?5???2@YAPEAX_K@Z@YAXXZ 000000014004d6fc f   LIBCMT:new.obj
